

Microchip MPLAB XC8 Assembler V2.31 build 20201012212115 
                                                                                               Wed Feb 24 12:29:40 2021

Microchip MPLAB XC8 C Compiler v2.31 (Free license) build 20201012212115 Og1 
     1                           	processor	16F887
     2                           	pagewidth 120
     3                           	opt	flic
     4                           	psect	strings,global,class=STRING,delta=2,noexec
     5                           	psect	stringtext,global,reloc=256,class=STRCODE,delta=2,noexec
     6                           	psect	cinit,global,class=CODE,merge=1,delta=2
     7                           	psect	bssCOMMON,global,class=COMMON,space=1,delta=1,noexec
     8                           	psect	bssBANK0,global,class=BANK0,space=1,delta=1,noexec
     9                           	psect	cstackCOMMON,global,class=COMMON,space=1,delta=1,noexec
    10                           	psect	cstackBANK0,global,class=BANK0,space=1,delta=1,noexec
    11                           	psect	maintext,global,class=CODE,split=1,delta=2
    12                           	psect	text1,local,class=CODE,merge=1,delta=2
    13                           	psect	text2,local,class=CODE,merge=1,delta=2
    14                           	psect	text3,local,class=CODE,merge=1,delta=2
    15                           	psect	text4,local,class=CODE,merge=1,delta=2
    16                           	psect	text5,local,class=CODE,merge=1,delta=2
    17                           	psect	text6,local,class=CODE,merge=1,delta=2
    18                           	psect	text7,local,class=CODE,merge=1,delta=2
    19                           	psect	text8,local,class=CODE,merge=1,delta=2
    20                           	psect	text9,local,class=CODE,merge=1,delta=2
    21                           	psect	text10,local,class=CODE,merge=1,delta=2
    22                           	psect	text11,local,class=CODE,merge=1,delta=2
    23                           	psect	text12,local,class=CODE,merge=1,delta=2
    24                           	psect	text13,local,class=CODE,merge=1,delta=2,group=1
    25                           	psect	text14,local,class=CODE,merge=1,delta=2
    26                           	psect	text15,local,class=CODE,merge=1,delta=2
    27                           	psect	text16,local,class=CODE,merge=1,delta=2
    28                           	psect	text17,local,class=CODE,merge=1,delta=2
    29                           	psect	text18,local,class=CODE,merge=1,delta=2
    30                           	psect	intentry,global,class=CODE,delta=2
    31                           	psect	config,global,abs,ovrld,class=CONFIG,space=4,delta=2,noexec
    32                           	psect	text2_split_1,local,class=CODE,merge=1,delta=2
    33                           	psect	text2_split_2,local,class=CODE,merge=1,delta=2
    34                           	psect	text2_split_3,local,class=CODE,merge=1,delta=2
    35                           	dabs	1,0x7E,2
    36  0000                     
    37                           ; Version 2.20
    38                           ; Generated 12/02/2020 GMT
    39                           ; 
    40                           ; Copyright © 2020, Microchip Technology Inc. and its subsidiaries ("Microchip")
    41                           ; All rights reserved.
    42                           ; 
    43                           ; This software is developed by Microchip Technology Inc. and its subsidiaries ("Microch
      +                          ip").
    44                           ; 
    45                           ; Redistribution and use in source and binary forms, with or without modification, are
    46                           ; permitted provided that the following conditions are met:
    47                           ; 
    48                           ;     1. Redistributions of source code must retain the above copyright notice, this lis
      +                          t of
    49                           ;        conditions and the following disclaimer.
    50                           ; 
    51                           ;     2. Redistributions in binary form must reproduce the above copyright notice, this 
      +                          list
    52                           ;        of conditions and the following disclaimer in the documentation and/or other
    53                           ;        materials provided with the distribution.
    54                           ; 
    55                           ;     3. Microchip's name may not be used to endorse or promote products derived from th
      +                          is
    56                           ;        software without specific prior written permission.
    57                           ; 
    58                           ; THIS SOFTWARE IS PROVIDED BY MICROCHIP "AS IS" AND ANY EXPRESS OR IMPLIED WARRANTIES,
    59                           ; INCLUDING, BUT NOT LIMITED TO, THE IMPLIED WARRANTIES OF MERCHANTABILITY AND FITNESS F
      +                          OR
    60                           ; PURPOSE ARE DISCLAIMED.  IN NO EVENT SHALL MICROCHIP BE LIABLE FOR ANY DIRECT, INDIREC
      +                          T,
    61                           ; INCIDENTAL, SPECIAL, EXEMPLARY, OR CONSEQUENTIAL DAMAGES (INCLUDING BUT NOT LIMITED TO
    62                           ; PROCUREMENT OF SUBSTITUTE GOODS OR SERVICES; LOSS OF USE, DATA OR PROFITS; OR BUSINESS
    63                           ; INTERRUPTION) HOWSOEVER CAUSED AND ON ANY THEORY OF LIABILITY, WHETHER IN CONTRACT, ST
      +                          RICT
    64                           ; LIABILITY, OR TORT (INCLUDING NEGLIGENCE OR OTHERWISE) ARISING IN ANY WAY OUT OF THE U
      +                          SE OF
    65                           ; THIS SOFTWARE, EVEN IF ADVISED OF THE POSSIBILITY OF SUCH DAMAGE.
    66                           ; 
    67                           ; 
    68                           ; Code-generator required, PIC16F887 Definitions
    69                           ; 
    70                           ; SFR Addresses
    71  0000                     	;# 
    72  0001                     	;# 
    73  0002                     	;# 
    74  0003                     	;# 
    75  0004                     	;# 
    76  0005                     	;# 
    77  0006                     	;# 
    78  0007                     	;# 
    79  0008                     	;# 
    80  0009                     	;# 
    81  000A                     	;# 
    82  000B                     	;# 
    83  000C                     	;# 
    84  000D                     	;# 
    85  000E                     	;# 
    86  000E                     	;# 
    87  000F                     	;# 
    88  0010                     	;# 
    89  0011                     	;# 
    90  0012                     	;# 
    91  0013                     	;# 
    92  0014                     	;# 
    93  0015                     	;# 
    94  0015                     	;# 
    95  0016                     	;# 
    96  0017                     	;# 
    97  0018                     	;# 
    98  0019                     	;# 
    99  001A                     	;# 
   100  001B                     	;# 
   101  001B                     	;# 
   102  001C                     	;# 
   103  001D                     	;# 
   104  001E                     	;# 
   105  001F                     	;# 
   106  0081                     	;# 
   107  0085                     	;# 
   108  0086                     	;# 
   109  0087                     	;# 
   110  0088                     	;# 
   111  0089                     	;# 
   112  008C                     	;# 
   113  008D                     	;# 
   114  008E                     	;# 
   115  008F                     	;# 
   116  0090                     	;# 
   117  0091                     	;# 
   118  0092                     	;# 
   119  0093                     	;# 
   120  0093                     	;# 
   121  0093                     	;# 
   122  0094                     	;# 
   123  0095                     	;# 
   124  0096                     	;# 
   125  0097                     	;# 
   126  0098                     	;# 
   127  0099                     	;# 
   128  009A                     	;# 
   129  009B                     	;# 
   130  009C                     	;# 
   131  009D                     	;# 
   132  009E                     	;# 
   133  009F                     	;# 
   134  0105                     	;# 
   135  0107                     	;# 
   136  0108                     	;# 
   137  0109                     	;# 
   138  010C                     	;# 
   139  010C                     	;# 
   140  010D                     	;# 
   141  010E                     	;# 
   142  010F                     	;# 
   143  0185                     	;# 
   144  0187                     	;# 
   145  0188                     	;# 
   146  0189                     	;# 
   147  018C                     	;# 
   148  018D                     	;# 
   149  0000                     	;# 
   150  0001                     	;# 
   151  0002                     	;# 
   152  0003                     	;# 
   153  0004                     	;# 
   154  0005                     	;# 
   155  0006                     	;# 
   156  0007                     	;# 
   157  0008                     	;# 
   158  0009                     	;# 
   159  000A                     	;# 
   160  000B                     	;# 
   161  000C                     	;# 
   162  000D                     	;# 
   163  000E                     	;# 
   164  000E                     	;# 
   165  000F                     	;# 
   166  0010                     	;# 
   167  0011                     	;# 
   168  0012                     	;# 
   169  0013                     	;# 
   170  0014                     	;# 
   171  0015                     	;# 
   172  0015                     	;# 
   173  0016                     	;# 
   174  0017                     	;# 
   175  0018                     	;# 
   176  0019                     	;# 
   177  001A                     	;# 
   178  001B                     	;# 
   179  001B                     	;# 
   180  001C                     	;# 
   181  001D                     	;# 
   182  001E                     	;# 
   183  001F                     	;# 
   184  0081                     	;# 
   185  0085                     	;# 
   186  0086                     	;# 
   187  0087                     	;# 
   188  0088                     	;# 
   189  0089                     	;# 
   190  008C                     	;# 
   191  008D                     	;# 
   192  008E                     	;# 
   193  008F                     	;# 
   194  0090                     	;# 
   195  0091                     	;# 
   196  0092                     	;# 
   197  0093                     	;# 
   198  0093                     	;# 
   199  0093                     	;# 
   200  0094                     	;# 
   201  0095                     	;# 
   202  0096                     	;# 
   203  0097                     	;# 
   204  0098                     	;# 
   205  0099                     	;# 
   206  009A                     	;# 
   207  009B                     	;# 
   208  009C                     	;# 
   209  009D                     	;# 
   210  009E                     	;# 
   211  009F                     	;# 
   212  0105                     	;# 
   213  0107                     	;# 
   214  0108                     	;# 
   215  0109                     	;# 
   216  010C                     	;# 
   217  010C                     	;# 
   218  010D                     	;# 
   219  010E                     	;# 
   220  010F                     	;# 
   221  0185                     	;# 
   222  0187                     	;# 
   223  0188                     	;# 
   224  0189                     	;# 
   225  018C                     	;# 
   226  018D                     	;# 
   227  0000                     	;# 
   228  0001                     	;# 
   229  0002                     	;# 
   230  0003                     	;# 
   231  0004                     	;# 
   232  0005                     	;# 
   233  0006                     	;# 
   234  0007                     	;# 
   235  0008                     	;# 
   236  0009                     	;# 
   237  000A                     	;# 
   238  000B                     	;# 
   239  000C                     	;# 
   240  000D                     	;# 
   241  000E                     	;# 
   242  000E                     	;# 
   243  000F                     	;# 
   244  0010                     	;# 
   245  0011                     	;# 
   246  0012                     	;# 
   247  0013                     	;# 
   248  0014                     	;# 
   249  0015                     	;# 
   250  0015                     	;# 
   251  0016                     	;# 
   252  0017                     	;# 
   253  0018                     	;# 
   254  0019                     	;# 
   255  001A                     	;# 
   256  001B                     	;# 
   257  001B                     	;# 
   258  001C                     	;# 
   259  001D                     	;# 
   260  001E                     	;# 
   261  001F                     	;# 
   262  0081                     	;# 
   263  0085                     	;# 
   264  0086                     	;# 
   265  0087                     	;# 
   266  0088                     	;# 
   267  0089                     	;# 
   268  008C                     	;# 
   269  008D                     	;# 
   270  008E                     	;# 
   271  008F                     	;# 
   272  0090                     	;# 
   273  0091                     	;# 
   274  0092                     	;# 
   275  0093                     	;# 
   276  0093                     	;# 
   277  0093                     	;# 
   278  0094                     	;# 
   279  0095                     	;# 
   280  0096                     	;# 
   281  0097                     	;# 
   282  0098                     	;# 
   283  0099                     	;# 
   284  009A                     	;# 
   285  009B                     	;# 
   286  009C                     	;# 
   287  009D                     	;# 
   288  009E                     	;# 
   289  009F                     	;# 
   290  0105                     	;# 
   291  0107                     	;# 
   292  0108                     	;# 
   293  0109                     	;# 
   294  010C                     	;# 
   295  010C                     	;# 
   296  010D                     	;# 
   297  010E                     	;# 
   298  010F                     	;# 
   299  0185                     	;# 
   300  0187                     	;# 
   301  0188                     	;# 
   302  0189                     	;# 
   303  018C                     	;# 
   304  018D                     	;# 
   305  0000                     	;# 
   306  0001                     	;# 
   307  0002                     	;# 
   308  0003                     	;# 
   309  0004                     	;# 
   310  0005                     	;# 
   311  0006                     	;# 
   312  0007                     	;# 
   313  0008                     	;# 
   314  0009                     	;# 
   315  000A                     	;# 
   316  000B                     	;# 
   317  000C                     	;# 
   318  000D                     	;# 
   319  000E                     	;# 
   320  000E                     	;# 
   321  000F                     	;# 
   322  0010                     	;# 
   323  0011                     	;# 
   324  0012                     	;# 
   325  0013                     	;# 
   326  0014                     	;# 
   327  0015                     	;# 
   328  0015                     	;# 
   329  0016                     	;# 
   330  0017                     	;# 
   331  0018                     	;# 
   332  0019                     	;# 
   333  001A                     	;# 
   334  001B                     	;# 
   335  001B                     	;# 
   336  001C                     	;# 
   337  001D                     	;# 
   338  001E                     	;# 
   339  001F                     	;# 
   340  0081                     	;# 
   341  0085                     	;# 
   342  0086                     	;# 
   343  0087                     	;# 
   344  0088                     	;# 
   345  0089                     	;# 
   346  008C                     	;# 
   347  008D                     	;# 
   348  008E                     	;# 
   349  008F                     	;# 
   350  0090                     	;# 
   351  0091                     	;# 
   352  0092                     	;# 
   353  0093                     	;# 
   354  0093                     	;# 
   355  0093                     	;# 
   356  0094                     	;# 
   357  0095                     	;# 
   358  0096                     	;# 
   359  0097                     	;# 
   360  0098                     	;# 
   361  0099                     	;# 
   362  009A                     	;# 
   363  009B                     	;# 
   364  009C                     	;# 
   365  009D                     	;# 
   366  009E                     	;# 
   367  009F                     	;# 
   368  0105                     	;# 
   369  0107                     	;# 
   370  0108                     	;# 
   371  0109                     	;# 
   372  010C                     	;# 
   373  010C                     	;# 
   374  010D                     	;# 
   375  010E                     	;# 
   376  010F                     	;# 
   377  0185                     	;# 
   378  0187                     	;# 
   379  0188                     	;# 
   380  0189                     	;# 
   381  018C                     	;# 
   382  018D                     	;# 
   383  0009                     _PORTE	set	9
   384  0007                     _PORTCbits	set	7
   385  0008                     _PORTD	set	8
   386  0006                     _PORTB	set	6
   387  0009                     _PORTEbits	set	9
   388  0019                     _TXREG	set	25
   389  001A                     _RCREG	set	26
   390  0013                     _SSPBUF	set	19
   391  0014                     _SSPCON	set	20
   392  0065                     _RCIF	set	101
   393  00C4                     _CREN	set	196
   394  00C7                     _SPEN	set	199
   395  0087                     _TRISCbits	set	135
   396  0089                     _TRISE	set	137
   397  0088                     _TRISD	set	136
   398  0086                     _TRISB	set	134
   399  0099                     _SPBRG	set	153
   400  0094                     _SSPSTATbits	set	148
   401  0094                     _SSPSTAT	set	148
   402  040F                     _nRBPU	set	1039
   403  043A                     _TRISC2	set	1082
   404  0439                     _TRISC1	set	1081
   405  04C1                     _TRMT	set	1217
   406  04C5                     _TXEN	set	1221
   407  043E                     _TRISC6	set	1086
   408  043F                     _TRISC7	set	1087
   409  04C4                     _SYNC	set	1220
   410  04C2                     _BRGH	set	1218
   411  043B                     _TRISC3	set	1083
   412  043D                     _TRISC5	set	1085
   413  0189                     _ANSELH	set	393
   414  0188                     _ANSEL	set	392
   415                           
   416                           	psect	strings
   417  1153                     __pstrings:
   418  1153                     stringtab:
   419  1153                     __stringtab:
   420                           
   421                           ;	String table - string pointers are 2 bytes each
   422  1153  1BFF               	btfsc	btemp+1,7
   423  1154  295D               	ljmp	stringcode
   424  1155  1383               	bcf	3,7
   425  1156  187F               	btfsc	btemp+1,0
   426  1157  1783               	bsf	3,7
   427  1158  0800               	movf	0,w
   428  1159  0A84               	incf	4,f
   429  115A  1903               	skipnz
   430  115B  0AFF               	incf	btemp+1,f
   431  115C  0008               	return
   432  115D                     stringcode:
   433  115D  087F               	movf	btemp+1,w
   434  115E  397F               	andlw	127
   435  115F  008A               	movwf	10
   436  1160  0804               	movf	4,w
   437  1161  0A84               	incf	4,f
   438  1162  1903               	skipnz
   439  1163  0AFF               	incf	btemp+1,f
   440  1164  0082               	movwf	2
   441  1165                     __stringbase:
   442  1165                     __end_of__stringtab:
   443                           
   444                           	psect	stringtext
   445  1000                     __pstringtext:
   446  1000                     STR_60:
   447  1000  344F               	retlw	79	;'O'
   448  1001  344B               	retlw	75	;'K'
   449  1002  3420               	retlw	32	;' '
   450  1003  3400               	retlw	0
   451  1004                     STR_1:
   452  1004  3453               	retlw	83	;'S'
   453  1005  3431               	retlw	49	;'1'
   454  1006  343A               	retlw	58	;':'
   455  1007  3400               	retlw	0
   456  1008                     STR_2:
   457  1008  3453               	retlw	83	;'S'
   458  1009  3432               	retlw	50	;'2'
   459  100A  343A               	retlw	58	;':'
   460  100B  3400               	retlw	0
   461  100C                     STR_3:
   462  100C  3453               	retlw	83	;'S'
   463  100D  3433               	retlw	51	;'3'
   464  100E  343A               	retlw	58	;':'
   465  100F  3400               	retlw	0
   466  1010                     STR_61:
   467  1010  3448               	retlw	72	;'H'
   468  1011  344F               	retlw	79	;'O'
   469  1012  3454               	retlw	84	;'T'
   470  1013  3400               	retlw	0
   471  1014                     STR_59:
   472  1014  344C               	retlw	76	;'L'
   473  1015  344F               	retlw	79	;'O'
   474  1016  3457               	retlw	87	;'W'
   475  1017  3400               	retlw	0
   476  1018                     STR_4:
   477  1018  3430               	retlw	48	;'0'
   478  1019  342E               	retlw	46	;'.'
   479  101A  3400               	retlw	0
   480  101B                     STR_5:
   481  101B  3431               	retlw	49	;'1'
   482  101C  342E               	retlw	46	;'.'
   483  101D  3400               	retlw	0
   484  101E                     STR_6:
   485  101E  3432               	retlw	50	;'2'
   486  101F  342E               	retlw	46	;'.'
   487  1020  3400               	retlw	0
   488  1021                     STR_7:
   489  1021  3433               	retlw	51	;'3'
   490  1022  342E               	retlw	46	;'.'
   491  1023  3400               	retlw	0
   492  1024                     STR_8:
   493  1024  3434               	retlw	52	;'4'
   494  1025  342E               	retlw	46	;'.'
   495  1026  3400               	retlw	0
   496  1027                     STR_65:
   497  1027  3430               	retlw	48	;'0'
   498  1028  3430               	retlw	48	;'0'
   499  1029  3400               	retlw	0
   500  102A                     STR_13:
   501  102A  3431               	retlw	49	;'1'
   502  102B  3430               	retlw	48	;'0'
   503  102C  3400               	retlw	0
   504  102D                     STR_18:
   505  102D  3432               	retlw	50	;'2'
   506  102E  3430               	retlw	48	;'0'
   507  102F  3400               	retlw	0
   508  1030                     STR_23:
   509  1030  3433               	retlw	51	;'3'
   510  1031  3430               	retlw	48	;'0'
   511  1032  3400               	retlw	0
   512  1033                     STR_28:
   513  1033  3434               	retlw	52	;'4'
   514  1034  3430               	retlw	48	;'0'
   515  1035  3400               	retlw	0
   516  1036                     STR_33:
   517  1036  3435               	retlw	53	;'5'
   518  1037  3430               	retlw	48	;'0'
   519  1038  3400               	retlw	0
   520  1039                     STR_38:
   521  1039  3436               	retlw	54	;'6'
   522  103A  3430               	retlw	48	;'0'
   523  103B  3400               	retlw	0
   524  103C                     STR_43:
   525  103C  3437               	retlw	55	;'7'
   526  103D  3430               	retlw	48	;'0'
   527  103E  3400               	retlw	0
   528  103F                     STR_48:
   529  103F  3438               	retlw	56	;'8'
   530  1040  3430               	retlw	48	;'0'
   531  1041  3400               	retlw	0
   532  1042                     STR_53:
   533  1042  3439               	retlw	57	;'9'
   534  1043  3430               	retlw	48	;'0'
   535  1044  3400               	retlw	0
   536  1045                     STR_66:
   537  1045  3430               	retlw	48	;'0'
   538  1046  3431               	retlw	49	;'1'
   539  1047  3400               	retlw	0
   540  1048                     STR_76:
   541  1048  3431               	retlw	49	;'1'
   542  1049  3431               	retlw	49	;'1'
   543  104A  3400               	retlw	0
   544  104B                     STR_86:
   545  104B  3432               	retlw	50	;'2'
   546  104C  3431               	retlw	49	;'1'
   547  104D  3400               	retlw	0
   548  104E                     STR_96:
   549  104E  3433               	retlw	51	;'3'
   550  104F  3431               	retlw	49	;'1'
   551  1050  3400               	retlw	0
   552  1051                     STR_106:
   553  1051  3434               	retlw	52	;'4'
   554  1052  3431               	retlw	49	;'1'
   555  1053  3400               	retlw	0
   556  1054                     STR_116:
   557  1054  3435               	retlw	53	;'5'
   558  1055  3431               	retlw	49	;'1'
   559  1056  3400               	retlw	0
   560  1057                     STR_126:
   561  1057  3436               	retlw	54	;'6'
   562  1058  3431               	retlw	49	;'1'
   563  1059  3400               	retlw	0
   564  105A                     STR_136:
   565  105A  3437               	retlw	55	;'7'
   566  105B  3431               	retlw	49	;'1'
   567  105C  3400               	retlw	0
   568  105D                     STR_146:
   569  105D  3438               	retlw	56	;'8'
   570  105E  3431               	retlw	49	;'1'
   571  105F  3400               	retlw	0
   572  1060                     STR_156:
   573  1060  3439               	retlw	57	;'9'
   574  1061  3431               	retlw	49	;'1'
   575  1062  3400               	retlw	0
   576  1063                     STR_67:
   577  1063  3430               	retlw	48	;'0'
   578  1064  3432               	retlw	50	;'2'
   579  1065  3400               	retlw	0
   580  1066                     STR_14:
   581  1066  3431               	retlw	49	;'1'
   582  1067  3432               	retlw	50	;'2'
   583  1068  3400               	retlw	0
   584  1069                     STR_19:
   585  1069  3432               	retlw	50	;'2'
   586  106A  3432               	retlw	50	;'2'
   587  106B  3400               	retlw	0
   588  106C                     STR_24:
   589  106C  3433               	retlw	51	;'3'
   590  106D  3432               	retlw	50	;'2'
   591  106E  3400               	retlw	0
   592  106F                     STR_29:
   593  106F  3434               	retlw	52	;'4'
   594  1070  3432               	retlw	50	;'2'
   595  1071  3400               	retlw	0
   596  1072                     STR_34:
   597  1072  3435               	retlw	53	;'5'
   598  1073  3432               	retlw	50	;'2'
   599  1074  3400               	retlw	0
   600  1075                     STR_39:
   601  1075  3436               	retlw	54	;'6'
   602  1076  3432               	retlw	50	;'2'
   603  1077  3400               	retlw	0
   604  1078                     STR_44:
   605  1078  3437               	retlw	55	;'7'
   606  1079  3432               	retlw	50	;'2'
   607  107A  3400               	retlw	0
   608  107B                     STR_49:
   609  107B  3438               	retlw	56	;'8'
   610  107C  3432               	retlw	50	;'2'
   611  107D  3400               	retlw	0
   612  107E                     STR_54:
   613  107E  3439               	retlw	57	;'9'
   614  107F  3432               	retlw	50	;'2'
   615  1080  3400               	retlw	0
   616  1081                     STR_68:
   617  1081  3430               	retlw	48	;'0'
   618  1082  3433               	retlw	51	;'3'
   619  1083  3400               	retlw	0
   620  1084                     STR_78:
   621  1084  3431               	retlw	49	;'1'
   622  1085  3433               	retlw	51	;'3'
   623  1086  3400               	retlw	0
   624  1087                     STR_88:
   625  1087  3432               	retlw	50	;'2'
   626  1088  3433               	retlw	51	;'3'
   627  1089  3400               	retlw	0
   628  108A                     STR_98:
   629  108A  3433               	retlw	51	;'3'
   630  108B  3433               	retlw	51	;'3'
   631  108C  3400               	retlw	0
   632  108D                     STR_108:
   633  108D  3434               	retlw	52	;'4'
   634  108E  3433               	retlw	51	;'3'
   635  108F  3400               	retlw	0
   636  1090                     STR_118:
   637  1090  3435               	retlw	53	;'5'
   638  1091  3433               	retlw	51	;'3'
   639  1092  3400               	retlw	0
   640  1093                     STR_128:
   641  1093  3436               	retlw	54	;'6'
   642  1094  3433               	retlw	51	;'3'
   643  1095  3400               	retlw	0
   644  1096                     STR_138:
   645  1096  3437               	retlw	55	;'7'
   646  1097  3433               	retlw	51	;'3'
   647  1098  3400               	retlw	0
   648  1099                     STR_148:
   649  1099  3438               	retlw	56	;'8'
   650  109A  3433               	retlw	51	;'3'
   651  109B  3400               	retlw	0
   652  109C                     STR_158:
   653  109C  3439               	retlw	57	;'9'
   654  109D  3433               	retlw	51	;'3'
   655  109E  3400               	retlw	0
   656  109F                     STR_69:
   657  109F  3430               	retlw	48	;'0'
   658  10A0  3434               	retlw	52	;'4'
   659  10A1  3400               	retlw	0
   660  10A2                     STR_15:
   661  10A2  3431               	retlw	49	;'1'
   662  10A3  3434               	retlw	52	;'4'
   663  10A4  3400               	retlw	0
   664  10A5                     STR_20:
   665  10A5  3432               	retlw	50	;'2'
   666  10A6  3434               	retlw	52	;'4'
   667  10A7  3400               	retlw	0
   668  10A8                     STR_25:
   669  10A8  3433               	retlw	51	;'3'
   670  10A9  3434               	retlw	52	;'4'
   671  10AA  3400               	retlw	0
   672  10AB                     STR_30:
   673  10AB  3434               	retlw	52	;'4'
   674  10AC  3434               	retlw	52	;'4'
   675  10AD  3400               	retlw	0
   676  10AE                     STR_35:
   677  10AE  3435               	retlw	53	;'5'
   678  10AF  3434               	retlw	52	;'4'
   679  10B0  3400               	retlw	0
   680  10B1                     STR_40:
   681  10B1  3436               	retlw	54	;'6'
   682  10B2  3434               	retlw	52	;'4'
   683  10B3  3400               	retlw	0
   684  10B4                     STR_45:
   685  10B4  3437               	retlw	55	;'7'
   686  10B5  3434               	retlw	52	;'4'
   687  10B6  3400               	retlw	0
   688  10B7                     STR_50:
   689  10B7  3438               	retlw	56	;'8'
   690  10B8  3434               	retlw	52	;'4'
   691  10B9  3400               	retlw	0
   692  10BA                     STR_55:
   693  10BA  3439               	retlw	57	;'9'
   694  10BB  3434               	retlw	52	;'4'
   695  10BC  3400               	retlw	0
   696  10BD                     STR_70:
   697  10BD  3430               	retlw	48	;'0'
   698  10BE  3435               	retlw	53	;'5'
   699  10BF  3400               	retlw	0
   700  10C0                     STR_80:
   701  10C0  3431               	retlw	49	;'1'
   702  10C1  3435               	retlw	53	;'5'
   703  10C2  3400               	retlw	0
   704  10C3                     STR_90:
   705  10C3  3432               	retlw	50	;'2'
   706  10C4  3435               	retlw	53	;'5'
   707  10C5  3400               	retlw	0
   708  10C6                     STR_100:
   709  10C6  3433               	retlw	51	;'3'
   710  10C7  3435               	retlw	53	;'5'
   711  10C8  3400               	retlw	0
   712  10C9                     STR_110:
   713  10C9  3434               	retlw	52	;'4'
   714  10CA  3435               	retlw	53	;'5'
   715  10CB  3400               	retlw	0
   716  10CC                     STR_120:
   717  10CC  3435               	retlw	53	;'5'
   718  10CD  3435               	retlw	53	;'5'
   719  10CE  3400               	retlw	0
   720  10CF                     STR_130:
   721  10CF  3436               	retlw	54	;'6'
   722  10D0  3435               	retlw	53	;'5'
   723  10D1  3400               	retlw	0
   724  10D2                     STR_140:
   725  10D2  3437               	retlw	55	;'7'
   726  10D3  3435               	retlw	53	;'5'
   727  10D4  3400               	retlw	0
   728  10D5                     STR_150:
   729  10D5  3438               	retlw	56	;'8'
   730  10D6  3435               	retlw	53	;'5'
   731  10D7  3400               	retlw	0
   732  10D8                     STR_160:
   733  10D8  3439               	retlw	57	;'9'
   734  10D9  3435               	retlw	53	;'5'
   735  10DA  3400               	retlw	0
   736  10DB                     STR_71:
   737  10DB  3430               	retlw	48	;'0'
   738  10DC  3436               	retlw	54	;'6'
   739  10DD  3400               	retlw	0
   740  10DE                     STR_16:
   741  10DE  3431               	retlw	49	;'1'
   742  10DF  3436               	retlw	54	;'6'
   743  10E0  3400               	retlw	0
   744  10E1                     STR_21:
   745  10E1  3432               	retlw	50	;'2'
   746  10E2  3436               	retlw	54	;'6'
   747  10E3  3400               	retlw	0
   748  10E4                     STR_26:
   749  10E4  3433               	retlw	51	;'3'
   750  10E5  3436               	retlw	54	;'6'
   751  10E6  3400               	retlw	0
   752  10E7                     STR_31:
   753  10E7  3434               	retlw	52	;'4'
   754  10E8  3436               	retlw	54	;'6'
   755  10E9  3400               	retlw	0
   756  10EA                     STR_36:
   757  10EA  3435               	retlw	53	;'5'
   758  10EB  3436               	retlw	54	;'6'
   759  10EC  3400               	retlw	0
   760  10ED                     STR_41:
   761  10ED  3436               	retlw	54	;'6'
   762  10EE  3436               	retlw	54	;'6'
   763  10EF  3400               	retlw	0
   764  10F0                     STR_46:
   765  10F0  3437               	retlw	55	;'7'
   766  10F1  3436               	retlw	54	;'6'
   767  10F2  3400               	retlw	0
   768  10F3                     STR_51:
   769  10F3  3438               	retlw	56	;'8'
   770  10F4  3436               	retlw	54	;'6'
   771  10F5  3400               	retlw	0
   772  10F6                     STR_56:
   773  10F6  3439               	retlw	57	;'9'
   774  10F7  3436               	retlw	54	;'6'
   775  10F8  3400               	retlw	0
   776  10F9                     STR_72:
   777  10F9  3430               	retlw	48	;'0'
   778  10FA  3437               	retlw	55	;'7'
   779  10FB  3400               	retlw	0
   780  10FC                     STR_82:
   781  10FC  3431               	retlw	49	;'1'
   782  10FD  3437               	retlw	55	;'7'
   783  10FE  3400               	retlw	0
   784  10FF                     STR_92:
   785  10FF  3432               	retlw	50	;'2'
   786  1100  3437               	retlw	55	;'7'
   787  1101  3400               	retlw	0
   788  1102                     STR_102:
   789  1102  3433               	retlw	51	;'3'
   790  1103  3437               	retlw	55	;'7'
   791  1104  3400               	retlw	0
   792  1105                     STR_112:
   793  1105  3434               	retlw	52	;'4'
   794  1106  3437               	retlw	55	;'7'
   795  1107  3400               	retlw	0
   796  1108                     STR_122:
   797  1108  3435               	retlw	53	;'5'
   798  1109  3437               	retlw	55	;'7'
   799  110A  3400               	retlw	0
   800  110B                     STR_132:
   801  110B  3436               	retlw	54	;'6'
   802  110C  3437               	retlw	55	;'7'
   803  110D  3400               	retlw	0
   804  110E                     STR_142:
   805  110E  3437               	retlw	55	;'7'
   806  110F  3437               	retlw	55	;'7'
   807  1110  3400               	retlw	0
   808  1111                     STR_152:
   809  1111  3438               	retlw	56	;'8'
   810  1112  3437               	retlw	55	;'7'
   811  1113  3400               	retlw	0
   812  1114                     STR_162:
   813  1114  3439               	retlw	57	;'9'
   814  1115  3437               	retlw	55	;'7'
   815  1116  3400               	retlw	0
   816  1117                     STR_73:
   817  1117  3430               	retlw	48	;'0'
   818  1118  3438               	retlw	56	;'8'
   819  1119  3400               	retlw	0
   820  111A                     STR_17:
   821  111A  3431               	retlw	49	;'1'
   822  111B  3438               	retlw	56	;'8'
   823  111C  3400               	retlw	0
   824  111D                     STR_22:
   825  111D  3432               	retlw	50	;'2'
   826  111E  3438               	retlw	56	;'8'
   827  111F  3400               	retlw	0
   828  1120                     STR_27:
   829  1120  3433               	retlw	51	;'3'
   830  1121  3438               	retlw	56	;'8'
   831  1122  3400               	retlw	0
   832  1123                     STR_32:
   833  1123  3434               	retlw	52	;'4'
   834  1124  3438               	retlw	56	;'8'
   835  1125  3400               	retlw	0
   836  1126                     STR_37:
   837  1126  3435               	retlw	53	;'5'
   838  1127  3438               	retlw	56	;'8'
   839  1128  3400               	retlw	0
   840  1129                     STR_42:
   841  1129  3436               	retlw	54	;'6'
   842  112A  3438               	retlw	56	;'8'
   843  112B  3400               	retlw	0
   844  112C                     STR_47:
   845  112C  3437               	retlw	55	;'7'
   846  112D  3438               	retlw	56	;'8'
   847  112E  3400               	retlw	0
   848  112F                     STR_52:
   849  112F  3438               	retlw	56	;'8'
   850  1130  3438               	retlw	56	;'8'
   851  1131  3400               	retlw	0
   852  1132                     STR_57:
   853  1132  3439               	retlw	57	;'9'
   854  1133  3438               	retlw	56	;'8'
   855  1134  3400               	retlw	0
   856  1135                     STR_74:
   857  1135  3430               	retlw	48	;'0'
   858  1136  3439               	retlw	57	;'9'
   859  1137  3400               	retlw	0
   860  1138                     STR_84:
   861  1138  3431               	retlw	49	;'1'
   862  1139  3439               	retlw	57	;'9'
   863  113A  3400               	retlw	0
   864  113B                     STR_94:
   865  113B  3432               	retlw	50	;'2'
   866  113C  3439               	retlw	57	;'9'
   867  113D  3400               	retlw	0
   868  113E                     STR_104:
   869  113E  3433               	retlw	51	;'3'
   870  113F  3439               	retlw	57	;'9'
   871  1140  3400               	retlw	0
   872  1141                     STR_114:
   873  1141  3434               	retlw	52	;'4'
   874  1142  3439               	retlw	57	;'9'
   875  1143  3400               	retlw	0
   876  1144                     STR_124:
   877  1144  3435               	retlw	53	;'5'
   878  1145  3439               	retlw	57	;'9'
   879  1146  3400               	retlw	0
   880  1147                     STR_134:
   881  1147  3436               	retlw	54	;'6'
   882  1148  3439               	retlw	57	;'9'
   883  1149  3400               	retlw	0
   884  114A                     STR_144:
   885  114A  3437               	retlw	55	;'7'
   886  114B  3439               	retlw	57	;'9'
   887  114C  3400               	retlw	0
   888  114D                     STR_154:
   889  114D  3438               	retlw	56	;'8'
   890  114E  3439               	retlw	57	;'9'
   891  114F  3400               	retlw	0
   892  1150                     STR_58:
   893  1150  3439               	retlw	57	;'9'
   894  1151  3439               	retlw	57	;'9'
   895  1152  3400               	retlw	0
   896  1028                     
   897                           	psect	cinit
   898  000F                     start_initialization:	
   899                           ; #config settings
   900                           
   901  000F                     __initialization:
   902                           
   903                           ; Clear objects allocated to COMMON
   904  000F  01FA               	clrf	__pbssCOMMON& (0+127)
   905  0010  01FB               	clrf	(__pbssCOMMON+1)& (0+127)
   906                           
   907                           ; Clear objects allocated to BANK0
   908  0011  1283               	bcf	3,5	;RP0=0, select bank0
   909  0012  1303               	bcf	3,6	;RP1=0, select bank0
   910  0013  01BB               	clrf	__pbssBANK0& (0+127)
   911  0014  01BC               	clrf	(__pbssBANK0+1)& (0+127)
   912  0015  01BD               	clrf	(__pbssBANK0+2)& (0+127)
   913  0016  01BE               	clrf	(__pbssBANK0+3)& (0+127)
   914  0017  01BF               	clrf	(__pbssBANK0+4)& (0+127)
   915  0018                     end_of_initialization:	
   916                           ;End of C runtime variable initialization code
   917                           
   918  0018                     __end_of__initialization:
   919  0018  0183               	clrf	3
   920  0019  120A  158A  2843   	ljmp	_main	;jump to C main() function
   921                           
   922                           	psect	bssCOMMON
   923  007A                     __pbssCOMMON:
   924  007A                     _data1:
   925  007A                     	ds	1
   926  007B                     _check0:
   927  007B                     	ds	1
   928                           
   929                           	psect	bssBANK0
   930  003B                     __pbssBANK0:
   931  003B                     _data3:
   932  003B                     	ds	1
   933  003C                     _data2:
   934  003C                     	ds	1
   935  003D                     _ADCresult:
   936  003D                     	ds	1
   937  003E                     _ADC:
   938  003E                     	ds	1
   939  003F                     _check1:
   940  003F                     	ds	1
   941                           
   942                           	psect	cstackCOMMON
   943  0070                     __pcstackCOMMON:
   944  0070                     ?_setup:
   945  0070                     ?_LCD_clear:	
   946                           ; 1 bytes @ 0x0
   947                           
   948  0070                     ?_transformtemp:	
   949                           ; 1 bytes @ 0x0
   950                           
   951  0070                     ?_transformADC:	
   952                           ; 1 bytes @ 0x0
   953                           
   954  0070                     ?_transformcounter:	
   955                           ; 1 bytes @ 0x0
   956                           
   957  0070                     ?_LCD_ini:	
   958                           ; 1 bytes @ 0x0
   959                           
   960  0070                     ?_spiReceiveWait:	
   961                           ; 1 bytes @ 0x0
   962                           
   963  0070                     ?_spiWrite:	
   964                           ; 1 bytes @ 0x0
   965                           
   966  0070                     ?_spiRead:	
   967                           ; 1 bytes @ 0x0
   968                           
   969  0070                     ?_UART_Write:	
   970                           ; 1 bytes @ 0x0
   971                           
   972  0070                     ?_ISR:	
   973                           ; 1 bytes @ 0x0
   974                           
   975  0070                     ??_ISR:	
   976                           ; 1 bytes @ 0x0
   977                           
   978  0070                     ?_main:	
   979                           ; 1 bytes @ 0x0
   980                           
   981  0070                     ?_LCD_cmd:	
   982                           ; 1 bytes @ 0x0
   983                           
   984  0070                     ?_LCD_Wchar:	
   985                           ; 1 bytes @ 0x0
   986                           
   987                           
   988                           ; 1 bytes @ 0x0
   989  0070                     	ds	2
   990  0072                     ?_spiInit:
   991  0072                     ??_spiReceiveWait:	
   992                           ; 1 bytes @ 0x2
   993                           
   994  0072                     ??_spiWrite:	
   995                           ; 1 bytes @ 0x2
   996                           
   997  0072                     ??_spiRead:	
   998                           ; 1 bytes @ 0x2
   999                           
  1000  0072                     ??_UART_Write:	
  1001                           ; 1 bytes @ 0x2
  1002                           
  1003  0072                     ??_LCD_cmd:	
  1004                           ; 1 bytes @ 0x2
  1005                           
  1006  0072                     ??_LCD_Wchar:	
  1007                           ; 1 bytes @ 0x2
  1008                           
  1009  0072                     ?___aldiv:	
  1010                           ; 1 bytes @ 0x2
  1011                           
  1012  0072                     spiInit@sDataSample:	
  1013                           ; 4 bytes @ 0x2
  1014                           
  1015  0072                     spiWrite@dat:	
  1016                           ; 1 bytes @ 0x2
  1017                           
  1018  0072                     UART_Write@data:	
  1019                           ; 1 bytes @ 0x2
  1020                           
  1021  0072                     ___aldiv@divisor:	
  1022                           ; 1 bytes @ 0x2
  1023                           
  1024                           
  1025                           ; 4 bytes @ 0x2
  1026  0072                     	ds	1
  1027  0073                     spiInit@sClockIdle:
  1028  0073                     LCD_Wchar@c:	
  1029                           ; 1 bytes @ 0x3
  1030                           
  1031                           
  1032                           ; 1 bytes @ 0x3
  1033  0073                     	ds	1
  1034  0074                     ?_LCD_Wstring:
  1035  0074                     spiInit@sTransmitEdge:	
  1036                           ; 1 bytes @ 0x4
  1037                           
  1038  0074                     LCD_cmd@cmd:	
  1039                           ; 1 bytes @ 0x4
  1040                           
  1041  0074                     LCD_Wstring@v:	
  1042                           ; 1 bytes @ 0x4
  1043                           
  1044                           
  1045                           ; 2 bytes @ 0x4
  1046  0074                     	ds	1
  1047  0075                     ??_LCD_clear:
  1048  0075                     ?_LCD_cursor:	
  1049                           ; 1 bytes @ 0x5
  1050                           
  1051  0075                     ??_LCD_ini:	
  1052                           ; 1 bytes @ 0x5
  1053                           
  1054  0075                     ??_spiInit:	
  1055                           ; 1 bytes @ 0x5
  1056                           
  1057  0075                     spiInit@sType:	
  1058                           ; 1 bytes @ 0x5
  1059                           
  1060  0075                     LCD_cursor@y:	
  1061                           ; 1 bytes @ 0x5
  1062                           
  1063                           
  1064                           ; 1 bytes @ 0x5
  1065  0075                     	ds	1
  1066  0076                     ??_LCD_cursor:
  1067  0076                     ??_LCD_Wstring:	
  1068                           ; 1 bytes @ 0x6
  1069                           
  1070  0076                     ___aldiv@dividend:	
  1071                           ; 1 bytes @ 0x6
  1072                           
  1073                           
  1074                           ; 4 bytes @ 0x6
  1075  0076                     	ds	1
  1076  0077                     LCD_cursor@x:
  1077                           
  1078                           ; 1 bytes @ 0x7
  1079  0077                     	ds	1
  1080  0078                     LCD_cursor@a:
  1081                           
  1082                           ; 1 bytes @ 0x8
  1083  0078                     	ds	1
  1084  0079                     ??_transformtemp:
  1085  0079                     ??_transformcounter:	
  1086                           ; 1 bytes @ 0x9
  1087                           
  1088  0079                     transformADC@k:	
  1089                           ; 1 bytes @ 0x9
  1090                           
  1091                           
  1092                           ; 1 bytes @ 0x9
  1093  0079                     	ds	1
  1094  007A                     ??_setup:
  1095                           
  1096                           	psect	cstackBANK0
  1097  0020                     __pcstackBANK0:	
  1098                           ; 1 bytes @ 0xA
  1099                           
  1100  0020                     ??___aldiv:
  1101  0020                     LCD_Wstring@i:	
  1102                           ; 1 bytes @ 0x0
  1103                           
  1104                           
  1105                           ; 2 bytes @ 0x0
  1106  0020                     	ds	1
  1107  0021                     ___aldiv@counter:
  1108                           
  1109                           ; 1 bytes @ 0x1
  1110  0021                     	ds	1
  1111  0022                     ??_transformADC:
  1112  0022                     transformtemp@j:	
  1113                           ; 1 bytes @ 0x2
  1114                           
  1115  0022                     transformcounter@p:	
  1116                           ; 1 bytes @ 0x2
  1117                           
  1118  0022                     ___aldiv@sign:	
  1119                           ; 1 bytes @ 0x2
  1120                           
  1121                           
  1122                           ; 1 bytes @ 0x2
  1123  0022                     	ds	1
  1124  0023                     ___aldiv@quotient:
  1125                           
  1126                           ; 4 bytes @ 0x3
  1127  0023                     	ds	4
  1128  0027                     ?_UART_Init:
  1129  0027                     UART_Init@baudrate:	
  1130                           ; 1 bytes @ 0x7
  1131                           
  1132                           
  1133                           ; 4 bytes @ 0x7
  1134  0027                     	ds	4
  1135  002B                     ??_UART_Init:
  1136                           
  1137                           ; 1 bytes @ 0xB
  1138  002B                     	ds	12
  1139  0037                     UART_Init@x:
  1140                           
  1141                           ; 2 bytes @ 0x17
  1142  0037                     	ds	2
  1143  0039                     ??_main:
  1144                           
  1145                           ; 1 bytes @ 0x19
  1146  0039                     	ds	2
  1147                           
  1148                           	psect	maintext
  1149  0843                     __pmaintext:	
  1150 ;;
  1151 ;;Main: autosize = 0, tempsize = 2, incstack = 0, save=0
  1152 ;;
  1153 ;; *************** function _main *****************
  1154 ;; Defined at:
  1155 ;;		line 77 in file "MASTERsrc.c"
  1156 ;; Parameters:    Size  Location     Type
  1157 ;;		None
  1158 ;; Auto vars:     Size  Location     Type
  1159 ;;		None
  1160 ;; Return value:  Size  Location     Type
  1161 ;;                  1    wreg      void 
  1162 ;; Registers used:
  1163 ;;		wreg, fsr0l, fsr0h, status,2, status,0, btemp+1, pclath, cstack
  1164 ;; Tracked objects:
  1165 ;;		On entry : B00/0
  1166 ;;		On exit  : 0/0
  1167 ;;		Unchanged: 0/0
  1168 ;; Data sizes:     COMMON   BANK0   BANK1   BANK3   BANK2
  1169 ;;      Params:         0       0       0       0       0
  1170 ;;      Locals:         0       0       0       0       0
  1171 ;;      Temps:          0       2       0       0       0
  1172 ;;      Totals:         0       2       0       0       0
  1173 ;;Total ram usage:        2 bytes
  1174 ;; Hardware stack levels required when called:    4
  1175 ;; This function calls:
  1176 ;;		_LCD_Wstring
  1177 ;;		_LCD_clear
  1178 ;;		_LCD_cursor
  1179 ;;		_UART_Write
  1180 ;;		_setup
  1181 ;;		_spiRead
  1182 ;;		_spiWrite
  1183 ;;		_transformADC
  1184 ;;		_transformcounter
  1185 ;;		_transformtemp
  1186 ;; This function is called by:
  1187 ;;		Startup code after reset
  1188 ;; This function uses a non-reentrant model
  1189 ;;
  1190                           
  1191                           
  1192                           ;psect for function _main
  1193  0843                     _main:
  1194  0843                     l4815:	
  1195                           ;incstack = 0
  1196                           ; Regs used in _main: [wreg-fsr0h+status,2+status,0+btemp+1+pclath+cstack]
  1197                           
  1198                           
  1199                           ;MASTERsrc.c: 79:     setup();
  1200  0843  120A  158A  2007  120A  158A  	fcall	_setup
  1201                           
  1202                           ;MASTERsrc.c: 80:     LCD_clear();
  1203  0848  160A  118A  224A  120A  158A  	fcall	_LCD_clear
  1204                           
  1205                           ;MASTERsrc.c: 81:     LCD_cursor(1,1);
  1206  084D  01F5               	clrf	LCD_cursor@y
  1207  084E  0AF5               	incf	LCD_cursor@y,f
  1208  084F  3001               	movlw	1
  1209  0850  160A  118A  2290  120A  158A  	fcall	_LCD_cursor
  1210  0855                     l4817:
  1211                           
  1212                           ;MASTERsrc.c: 82:     LCD_Wstring("S1:");
  1213  0855  3004               	movlw	low (STR_1| (0+32768))
  1214  0856  00F4               	movwf	LCD_Wstring@v
  1215  0857  3090               	movlw	high (STR_1| (0+32768))
  1216  0858  00F5               	movwf	LCD_Wstring@v+1
  1217  0859  160A  118A  22B4  120A  158A  	fcall	_LCD_Wstring
  1218  085E                     l4819:
  1219                           
  1220                           ;MASTERsrc.c: 83:     _delay((unsigned long)((1)*(8000000/4000.0)));
  1221  085E  3003               	movlw	3
  1222  085F  1283               	bcf	3,5	;RP0=0, select bank0
  1223  0860  1303               	bcf	3,6	;RP1=0, select bank0
  1224  0861  00BA               	movwf	??_main+1
  1225  0862  3097               	movlw	151
  1226  0863  00B9               	movwf	??_main
  1227  0864                     u5827:
  1228  0864  0BB9               	decfsz	??_main,f
  1229  0865  2864               	goto	u5827
  1230  0866  0BBA               	decfsz	??_main+1,f
  1231  0867  2864               	goto	u5827
  1232  0868                     l4821:
  1233                           
  1234                           ;MASTERsrc.c: 84:     LCD_cursor(6,1);
  1235  0868  01F5               	clrf	LCD_cursor@y
  1236  0869  0AF5               	incf	LCD_cursor@y,f
  1237  086A  3006               	movlw	6
  1238  086B  160A  118A  2290  120A  158A  	fcall	_LCD_cursor
  1239  0870                     l4823:
  1240                           
  1241                           ;MASTERsrc.c: 85:     LCD_Wstring("S2:");
  1242  0870  3008               	movlw	low (STR_2| (0+32768))
  1243  0871  00F4               	movwf	LCD_Wstring@v
  1244  0872  3090               	movlw	high (STR_2| (0+32768))
  1245  0873  00F5               	movwf	LCD_Wstring@v+1
  1246  0874  160A  118A  22B4  120A  158A  	fcall	_LCD_Wstring
  1247                           
  1248                           ;MASTERsrc.c: 86:     _delay((unsigned long)((1)*(8000000/4000.0)));
  1249  0879  3003               	movlw	3
  1250  087A  1283               	bcf	3,5	;RP0=0, select bank0
  1251  087B  1303               	bcf	3,6	;RP1=0, select bank0
  1252  087C  00BA               	movwf	??_main+1
  1253  087D  3097               	movlw	151
  1254  087E  00B9               	movwf	??_main
  1255  087F                     u5837:
  1256  087F  0BB9               	decfsz	??_main,f
  1257  0880  287F               	goto	u5837
  1258  0881  0BBA               	decfsz	??_main+1,f
  1259  0882  287F               	goto	u5837
  1260  0883                     l4825:
  1261                           
  1262                           ;MASTERsrc.c: 87:     LCD_cursor(12,1);
  1263  0883  01F5               	clrf	LCD_cursor@y
  1264  0884  0AF5               	incf	LCD_cursor@y,f
  1265  0885  300C               	movlw	12
  1266  0886  160A  118A  2290  120A  158A  	fcall	_LCD_cursor
  1267  088B                     l4827:
  1268                           
  1269                           ;MASTERsrc.c: 88:     LCD_Wstring("S3:");
  1270  088B  300C               	movlw	low (STR_3| (0+32768))
  1271  088C  00F4               	movwf	LCD_Wstring@v
  1272  088D  3090               	movlw	high (STR_3| (0+32768))
  1273  088E  00F5               	movwf	LCD_Wstring@v+1
  1274  088F  160A  118A  22B4  120A  158A  	fcall	_LCD_Wstring
  1275  0894                     l4829:
  1276                           
  1277                           ;MASTERsrc.c: 92:         if (check0 == 1){
  1278  0894  037B               	decf	_check0,w
  1279  0895  1D03               	btfss	3,2
  1280  0896  2898               	goto	u5791
  1281  0897  2899               	goto	u5790
  1282  0898                     u5791:
  1283  0898  28E9               	goto	l4851
  1284  0899                     u5790:
  1285  0899                     l4831:
  1286                           
  1287                           ;MASTERsrc.c: 93:             PORTEbits.RE0 = 0;
  1288  0899  1283               	bcf	3,5	;RP0=0, select bank0
  1289  089A  1303               	bcf	3,6	;RP1=0, select bank0
  1290  089B  1009               	bcf	9,0	;volatile
  1291  089C                     l4833:
  1292                           
  1293                           ;MASTERsrc.c: 94:             _delay((unsigned long)((1)*(8000000/4000.0)));
  1294  089C  3003               	movlw	3
  1295  089D  1283               	bcf	3,5	;RP0=0, select bank0
  1296  089E  1303               	bcf	3,6	;RP1=0, select bank0
  1297  089F  00BA               	movwf	??_main+1
  1298  08A0  3097               	movlw	151
  1299  08A1  00B9               	movwf	??_main
  1300  08A2                     u5847:
  1301  08A2  0BB9               	decfsz	??_main,f
  1302  08A3  28A2               	goto	u5847
  1303  08A4  0BBA               	decfsz	??_main+1,f
  1304  08A5  28A2               	goto	u5847
  1305  08A6                     l4835:
  1306                           
  1307                           ;MASTERsrc.c: 95:             spiWrite(1);
  1308  08A6  3001               	movlw	1
  1309  08A7  160A  118A  223D  120A  158A  	fcall	_spiWrite
  1310  08AC                     l4837:
  1311                           
  1312                           ;MASTERsrc.c: 96:             _delay((unsigned long)((2)*(8000000/4000.0)));
  1313  08AC  3006               	movlw	6
  1314  08AD  1283               	bcf	3,5	;RP0=0, select bank0
  1315  08AE  1303               	bcf	3,6	;RP1=0, select bank0
  1316  08AF  00BA               	movwf	??_main+1
  1317  08B0  302F               	movlw	47
  1318  08B1  00B9               	movwf	??_main
  1319  08B2                     u5857:
  1320  08B2  0BB9               	decfsz	??_main,f
  1321  08B3  28B2               	goto	u5857
  1322  08B4  0BBA               	decfsz	??_main+1,f
  1323  08B5  28B2               	goto	u5857
  1324  08B6  28B7               	nop2
  1325                           
  1326                           ;MASTERsrc.c: 97:             data1 = spiRead();
  1327  08B7  160A  118A  2251  120A  158A  	fcall	_spiRead
  1328  08BC  1283               	bcf	3,5	;RP0=0, select bank0
  1329  08BD  1303               	bcf	3,6	;RP1=0, select bank0
  1330  08BE  00B9               	movwf	??_main
  1331  08BF  0839               	movf	??_main,w
  1332  08C0  00FA               	movwf	_data1
  1333  08C1                     l4839:
  1334                           
  1335                           ;MASTERsrc.c: 98:             _delay((unsigned long)((2)*(8000000/4000.0)));
  1336  08C1  3006               	movlw	6
  1337  08C2  1283               	bcf	3,5	;RP0=0, select bank0
  1338  08C3  1303               	bcf	3,6	;RP1=0, select bank0
  1339  08C4  00BA               	movwf	??_main+1
  1340  08C5  302F               	movlw	47
  1341  08C6  00B9               	movwf	??_main
  1342  08C7                     u5867:
  1343  08C7  0BB9               	decfsz	??_main,f
  1344  08C8  28C7               	goto	u5867
  1345  08C9  0BBA               	decfsz	??_main+1,f
  1346  08CA  28C7               	goto	u5867
  1347  08CB  28CC               	nop2
  1348  08CC                     l4841:
  1349                           
  1350                           ;MASTERsrc.c: 99:             PORTEbits.RE0 = 1;
  1351  08CC  1283               	bcf	3,5	;RP0=0, select bank0
  1352  08CD  1303               	bcf	3,6	;RP1=0, select bank0
  1353  08CE  1409               	bsf	9,0	;volatile
  1354  08CF                     l4843:
  1355                           
  1356                           ;MASTERsrc.c: 101:             check0 = 2;
  1357  08CF  3002               	movlw	2
  1358  08D0  00B9               	movwf	??_main
  1359  08D1  0839               	movf	??_main,w
  1360  08D2  00FB               	movwf	_check0
  1361  08D3                     l4845:
  1362                           
  1363                           ;MASTERsrc.c: 103:             transformtemp(data1);
  1364  08D3  087A               	movf	_data1,w
  1365  08D4  120A  118A  27A1  120A  158A  	fcall	_transformtemp
  1366  08D9                     l4847:
  1367                           
  1368                           ;MASTERsrc.c: 104:             UART_Write(data1);
  1369  08D9  087A               	movf	_data1,w
  1370  08DA  160A  118A  225A  120A  158A  	fcall	_UART_Write
  1371  08DF                     l4849:
  1372                           
  1373                           ;MASTERsrc.c: 105:             _delay((unsigned long)((1)*(8000000/4000.0)));
  1374  08DF  3003               	movlw	3
  1375  08E0  1283               	bcf	3,5	;RP0=0, select bank0
  1376  08E1  1303               	bcf	3,6	;RP1=0, select bank0
  1377  08E2  00BA               	movwf	??_main+1
  1378  08E3  3097               	movlw	151
  1379  08E4  00B9               	movwf	??_main
  1380  08E5                     u5877:
  1381  08E5  0BB9               	decfsz	??_main,f
  1382  08E6  28E5               	goto	u5877
  1383  08E7  0BBA               	decfsz	??_main+1,f
  1384  08E8  28E5               	goto	u5877
  1385  08E9                     l4851:
  1386                           
  1387                           ;MASTERsrc.c: 110:         if (check0 == 2){
  1388  08E9  3002               	movlw	2
  1389  08EA  067B               	xorwf	_check0,w
  1390  08EB  1D03               	btfss	3,2
  1391  08EC  28EE               	goto	u5801
  1392  08ED  28EF               	goto	u5800
  1393  08EE                     u5801:
  1394  08EE  2941               	goto	l4873
  1395  08EF                     u5800:
  1396  08EF                     l4853:
  1397                           
  1398                           ;MASTERsrc.c: 111:             PORTEbits.RE1 = 0;
  1399  08EF  1283               	bcf	3,5	;RP0=0, select bank0
  1400  08F0  1303               	bcf	3,6	;RP1=0, select bank0
  1401  08F1  1089               	bcf	9,1	;volatile
  1402  08F2                     l4855:
  1403                           
  1404                           ;MASTERsrc.c: 112:             _delay((unsigned long)((1)*(8000000/4000.0)));
  1405  08F2  3003               	movlw	3
  1406  08F3  1283               	bcf	3,5	;RP0=0, select bank0
  1407  08F4  1303               	bcf	3,6	;RP1=0, select bank0
  1408  08F5  00BA               	movwf	??_main+1
  1409  08F6  3097               	movlw	151
  1410  08F7  00B9               	movwf	??_main
  1411  08F8                     u5887:
  1412  08F8  0BB9               	decfsz	??_main,f
  1413  08F9  28F8               	goto	u5887
  1414  08FA  0BBA               	decfsz	??_main+1,f
  1415  08FB  28F8               	goto	u5887
  1416  08FC                     l4857:
  1417                           
  1418                           ;MASTERsrc.c: 113:             spiWrite(1);
  1419  08FC  3001               	movlw	1
  1420  08FD  160A  118A  223D  120A  158A  	fcall	_spiWrite
  1421  0902                     l4859:
  1422                           
  1423                           ;MASTERsrc.c: 114:             _delay((unsigned long)((2)*(8000000/4000.0)));
  1424  0902  3006               	movlw	6
  1425  0903  1283               	bcf	3,5	;RP0=0, select bank0
  1426  0904  1303               	bcf	3,6	;RP1=0, select bank0
  1427  0905  00BA               	movwf	??_main+1
  1428  0906  302F               	movlw	47
  1429  0907  00B9               	movwf	??_main
  1430  0908                     u5897:
  1431  0908  0BB9               	decfsz	??_main,f
  1432  0909  2908               	goto	u5897
  1433  090A  0BBA               	decfsz	??_main+1,f
  1434  090B  2908               	goto	u5897
  1435  090C  290D               	nop2
  1436                           
  1437                           ;MASTERsrc.c: 115:             data2 = spiRead();
  1438  090D  160A  118A  2251  120A  158A  	fcall	_spiRead
  1439  0912  1283               	bcf	3,5	;RP0=0, select bank0
  1440  0913  1303               	bcf	3,6	;RP1=0, select bank0
  1441  0914  00B9               	movwf	??_main
  1442  0915  0839               	movf	??_main,w
  1443  0916  00BC               	movwf	_data2
  1444  0917                     l4861:
  1445                           
  1446                           ;MASTERsrc.c: 116:             _delay((unsigned long)((2)*(8000000/4000.0)));
  1447  0917  3006               	movlw	6
  1448  0918  1283               	bcf	3,5	;RP0=0, select bank0
  1449  0919  1303               	bcf	3,6	;RP1=0, select bank0
  1450  091A  00BA               	movwf	??_main+1
  1451  091B  302F               	movlw	47
  1452  091C  00B9               	movwf	??_main
  1453  091D                     u5907:
  1454  091D  0BB9               	decfsz	??_main,f
  1455  091E  291D               	goto	u5907
  1456  091F  0BBA               	decfsz	??_main+1,f
  1457  0920  291D               	goto	u5907
  1458  0921  2922               	nop2
  1459  0922                     l4863:
  1460                           
  1461                           ;MASTERsrc.c: 117:             PORTEbits.RE1 = 1;
  1462  0922  1283               	bcf	3,5	;RP0=0, select bank0
  1463  0923  1303               	bcf	3,6	;RP1=0, select bank0
  1464  0924  1489               	bsf	9,1	;volatile
  1465  0925                     l4865:
  1466                           
  1467                           ;MASTERsrc.c: 119:             check0 = 3;
  1468  0925  3003               	movlw	3
  1469  0926  00B9               	movwf	??_main
  1470  0927  0839               	movf	??_main,w
  1471  0928  00FB               	movwf	_check0
  1472  0929                     l4867:
  1473                           
  1474                           ;MASTERsrc.c: 121:             transformADC(data2);
  1475  0929  083C               	movf	_data2,w
  1476  092A  120A  158A  219B  120A  158A  	fcall	_transformADC
  1477  092F                     l4869:
  1478                           
  1479                           ;MASTERsrc.c: 122:             UART_Write(data2);
  1480  092F  1283               	bcf	3,5	;RP0=0, select bank0
  1481  0930  1303               	bcf	3,6	;RP1=0, select bank0
  1482  0931  083C               	movf	_data2,w
  1483  0932  160A  118A  225A  120A  158A  	fcall	_UART_Write
  1484  0937                     l4871:
  1485                           
  1486                           ;MASTERsrc.c: 123:             _delay((unsigned long)((1)*(8000000/4000.0)));
  1487  0937  3003               	movlw	3
  1488  0938  1283               	bcf	3,5	;RP0=0, select bank0
  1489  0939  1303               	bcf	3,6	;RP1=0, select bank0
  1490  093A  00BA               	movwf	??_main+1
  1491  093B  3097               	movlw	151
  1492  093C  00B9               	movwf	??_main
  1493  093D                     u5917:
  1494  093D  0BB9               	decfsz	??_main,f
  1495  093E  293D               	goto	u5917
  1496  093F  0BBA               	decfsz	??_main+1,f
  1497  0940  293D               	goto	u5917
  1498  0941                     l4873:
  1499                           
  1500                           ;MASTERsrc.c: 126:         if (check0 == 3){
  1501  0941  3003               	movlw	3
  1502  0942  067B               	xorwf	_check0,w
  1503  0943  1D03               	btfss	3,2
  1504  0944  2946               	goto	u5811
  1505  0945  2947               	goto	u5810
  1506  0946                     u5811:
  1507  0946  2894               	goto	l4829
  1508  0947                     u5810:
  1509  0947                     l4875:
  1510                           
  1511                           ;MASTERsrc.c: 127:             PORTEbits.RE2 = 0;
  1512  0947  1283               	bcf	3,5	;RP0=0, select bank0
  1513  0948  1303               	bcf	3,6	;RP1=0, select bank0
  1514  0949  1109               	bcf	9,2	;volatile
  1515  094A                     l4877:
  1516                           
  1517                           ;MASTERsrc.c: 128:             _delay((unsigned long)((1)*(8000000/4000.0)));
  1518  094A  3003               	movlw	3
  1519  094B  1283               	bcf	3,5	;RP0=0, select bank0
  1520  094C  1303               	bcf	3,6	;RP1=0, select bank0
  1521  094D  00BA               	movwf	??_main+1
  1522  094E  3097               	movlw	151
  1523  094F  00B9               	movwf	??_main
  1524  0950                     u5927:
  1525  0950  0BB9               	decfsz	??_main,f
  1526  0951  2950               	goto	u5927
  1527  0952  0BBA               	decfsz	??_main+1,f
  1528  0953  2950               	goto	u5927
  1529  0954                     l4879:
  1530                           
  1531                           ;MASTERsrc.c: 129:             spiWrite(1);
  1532  0954  3001               	movlw	1
  1533  0955  160A  118A  223D  120A  158A  	fcall	_spiWrite
  1534  095A                     l4881:
  1535                           
  1536                           ;MASTERsrc.c: 130:             _delay((unsigned long)((2)*(8000000/4000.0)));
  1537  095A  3006               	movlw	6
  1538  095B  1283               	bcf	3,5	;RP0=0, select bank0
  1539  095C  1303               	bcf	3,6	;RP1=0, select bank0
  1540  095D  00BA               	movwf	??_main+1
  1541  095E  302F               	movlw	47
  1542  095F  00B9               	movwf	??_main
  1543  0960                     u5937:
  1544  0960  0BB9               	decfsz	??_main,f
  1545  0961  2960               	goto	u5937
  1546  0962  0BBA               	decfsz	??_main+1,f
  1547  0963  2960               	goto	u5937
  1548  0964  2965               	nop2
  1549                           
  1550                           ;MASTERsrc.c: 131:             data3 = spiRead();
  1551  0965  160A  118A  2251  120A  158A  	fcall	_spiRead
  1552  096A  1283               	bcf	3,5	;RP0=0, select bank0
  1553  096B  1303               	bcf	3,6	;RP1=0, select bank0
  1554  096C  00B9               	movwf	??_main
  1555  096D  0839               	movf	??_main,w
  1556  096E  00BB               	movwf	_data3
  1557  096F                     l4883:
  1558                           
  1559                           ;MASTERsrc.c: 132:             _delay((unsigned long)((2)*(8000000/4000.0)));
  1560  096F  3006               	movlw	6
  1561  0970  1283               	bcf	3,5	;RP0=0, select bank0
  1562  0971  1303               	bcf	3,6	;RP1=0, select bank0
  1563  0972  00BA               	movwf	??_main+1
  1564  0973  302F               	movlw	47
  1565  0974  00B9               	movwf	??_main
  1566  0975                     u5947:
  1567  0975  0BB9               	decfsz	??_main,f
  1568  0976  2975               	goto	u5947
  1569  0977  0BBA               	decfsz	??_main+1,f
  1570  0978  2975               	goto	u5947
  1571  0979  297A               	nop2
  1572  097A                     l4885:
  1573                           
  1574                           ;MASTERsrc.c: 133:             PORTEbits.RE2 = 1;
  1575  097A  1283               	bcf	3,5	;RP0=0, select bank0
  1576  097B  1303               	bcf	3,6	;RP1=0, select bank0
  1577  097C  1509               	bsf	9,2	;volatile
  1578  097D                     l4887:
  1579                           
  1580                           ;MASTERsrc.c: 135:             check0 = 1;
  1581  097D  01FB               	clrf	_check0
  1582  097E  0AFB               	incf	_check0,f
  1583  097F                     l4889:
  1584                           
  1585                           ;MASTERsrc.c: 136:             transformcounter(data3);
  1586  097F  083B               	movf	_data3,w
  1587  0980  160A  118A  24EB  120A  158A  	fcall	_transformcounter
  1588  0985                     l4891:
  1589                           
  1590                           ;MASTERsrc.c: 137:             UART_Write(data3);
  1591  0985  1283               	bcf	3,5	;RP0=0, select bank0
  1592  0986  1303               	bcf	3,6	;RP1=0, select bank0
  1593  0987  083B               	movf	_data3,w
  1594  0988  160A  118A  225A  120A  158A  	fcall	_UART_Write
  1595  098D                     l4893:
  1596                           
  1597                           ;MASTERsrc.c: 138:             _delay((unsigned long)((1)*(8000000/4000.0)));
  1598  098D  3003               	movlw	3
  1599  098E  1283               	bcf	3,5	;RP0=0, select bank0
  1600  098F  1303               	bcf	3,6	;RP1=0, select bank0
  1601  0990  00BA               	movwf	??_main+1
  1602  0991  3097               	movlw	151
  1603  0992  00B9               	movwf	??_main
  1604  0993                     u5957:
  1605  0993  0BB9               	decfsz	??_main,f
  1606  0994  2993               	goto	u5957
  1607  0995  0BBA               	decfsz	??_main+1,f
  1608  0996  2993               	goto	u5957
  1609  0997  2894               	goto	l4829
  1610  0998  120A  118A  280C   	ljmp	start
  1611  099B                     __end_of_main:
  1612                           
  1613                           	psect	text1
  1614  07A1                     __ptext1:	
  1615 ;; *************** function _transformtemp *****************
  1616 ;; Defined at:
  1617 ;;		line 279 in file "MASTERsrc.c"
  1618 ;; Parameters:    Size  Location     Type
  1619 ;;  j               1    wreg     unsigned char 
  1620 ;; Auto vars:     Size  Location     Type
  1621 ;;  j               1    2[BANK0 ] unsigned char 
  1622 ;; Return value:  Size  Location     Type
  1623 ;;                  1    wreg      void 
  1624 ;; Registers used:
  1625 ;;		wreg, fsr0l, fsr0h, status,2, status,0, btemp+1, pclath, cstack
  1626 ;; Tracked objects:
  1627 ;;		On entry : 0/0
  1628 ;;		On exit  : 0/0
  1629 ;;		Unchanged: 0/0
  1630 ;; Data sizes:     COMMON   BANK0   BANK1   BANK3   BANK2
  1631 ;;      Params:         0       0       0       0       0
  1632 ;;      Locals:         0       1       0       0       0
  1633 ;;      Temps:          1       0       0       0       0
  1634 ;;      Totals:         1       1       0       0       0
  1635 ;;Total ram usage:        2 bytes
  1636 ;; Hardware stack levels used:    1
  1637 ;; Hardware stack levels required when called:    3
  1638 ;; This function calls:
  1639 ;;		_LCD_Wstring
  1640 ;;		_LCD_cursor
  1641 ;; This function is called by:
  1642 ;;		_main
  1643 ;; This function uses a non-reentrant model
  1644 ;;
  1645                           
  1646                           
  1647                           ;psect for function _transformtemp
  1648  07A1                     _transformtemp:
  1649                           
  1650                           ;incstack = 0
  1651                           ; Regs used in _transformtemp: [wreg-fsr0h+status,2+status,0+btemp+1+pclath+cstack]
  1652                           ;transformtemp@j stored from wreg
  1653  07A1  1283               	bcf	3,5	;RP0=0, select bank0
  1654  07A2  1303               	bcf	3,6	;RP1=0, select bank0
  1655  07A3  00A2               	movwf	transformtemp@j
  1656  07A4                     l3819:
  1657                           
  1658                           ;MASTERsrc.c: 280:     if (j == 1){
  1659  07A4  0322               	decf	transformtemp@j,w
  1660  07A5  1D03               	btfss	3,2
  1661  07A6  2FA8               	goto	u4141
  1662  07A7  2FA9               	goto	u4140
  1663  07A8                     u4141:
  1664  07A8  2FBD               	goto	l3825
  1665  07A9                     u4140:
  1666  07A9                     l3821:
  1667                           
  1668                           ;MASTERsrc.c: 281:         LCD_cursor(7,2);
  1669  07A9  3002               	movlw	2
  1670  07AA  00F9               	movwf	??_transformtemp
  1671  07AB  0879               	movf	??_transformtemp,w
  1672  07AC  00F5               	movwf	LCD_cursor@y
  1673  07AD  3007               	movlw	7
  1674  07AE  160A  118A  2290  120A  118A  	fcall	_LCD_cursor
  1675  07B3                     l3823:
  1676                           
  1677                           ;MASTERsrc.c: 282:         LCD_Wstring("LOW");
  1678  07B3  3014               	movlw	low (STR_59| (0+32768))
  1679  07B4  00F4               	movwf	LCD_Wstring@v
  1680  07B5  3090               	movlw	high (STR_59| (0+32768))
  1681  07B6  00F5               	movwf	LCD_Wstring@v+1
  1682  07B7  160A  118A  22B4  120A  118A  	fcall	_LCD_Wstring
  1683                           
  1684                           ;MASTERsrc.c: 284:     }
  1685  07BC  2FF0               	goto	l295
  1686  07BD                     l3825:
  1687  07BD  3002               	movlw	2
  1688  07BE  0622               	xorwf	transformtemp@j,w
  1689  07BF  1D03               	btfss	3,2
  1690  07C0  2FC2               	goto	u4151
  1691  07C1  2FC3               	goto	u4150
  1692  07C2                     u4151:
  1693  07C2  2FD7               	goto	l3831
  1694  07C3                     u4150:
  1695  07C3                     l3827:
  1696                           
  1697                           ;MASTERsrc.c: 287:         LCD_cursor(7,2);
  1698  07C3  3002               	movlw	2
  1699  07C4  00F9               	movwf	??_transformtemp
  1700  07C5  0879               	movf	??_transformtemp,w
  1701  07C6  00F5               	movwf	LCD_cursor@y
  1702  07C7  3007               	movlw	7
  1703  07C8  160A  118A  2290  120A  118A  	fcall	_LCD_cursor
  1704  07CD                     l3829:
  1705                           
  1706                           ;MASTERsrc.c: 288:         LCD_Wstring("OK ");
  1707  07CD  3000               	movlw	low (STR_60| (0+32768))
  1708  07CE  00F4               	movwf	LCD_Wstring@v
  1709  07CF  3090               	movlw	high (STR_60| (0+32768))
  1710  07D0  00F5               	movwf	LCD_Wstring@v+1
  1711  07D1  160A  118A  22B4  120A  118A  	fcall	_LCD_Wstring
  1712                           
  1713                           ;MASTERsrc.c: 290:     }
  1714  07D6  2FF0               	goto	l295
  1715  07D7                     l3831:
  1716  07D7  3003               	movlw	3
  1717  07D8  0622               	xorwf	transformtemp@j,w
  1718  07D9  1D03               	btfss	3,2
  1719  07DA  2FDC               	goto	u4161
  1720  07DB  2FDD               	goto	u4160
  1721  07DC                     u4161:
  1722  07DC  2FF0               	goto	l295
  1723  07DD                     u4160:
  1724  07DD                     l3833:
  1725                           
  1726                           ;MASTERsrc.c: 293:         LCD_cursor(7,2);
  1727  07DD  3002               	movlw	2
  1728  07DE  00F9               	movwf	??_transformtemp
  1729  07DF  0879               	movf	??_transformtemp,w
  1730  07E0  00F5               	movwf	LCD_cursor@y
  1731  07E1  3007               	movlw	7
  1732  07E2  160A  118A  2290  120A  118A  	fcall	_LCD_cursor
  1733  07E7                     l3835:
  1734                           
  1735                           ;MASTERsrc.c: 294:         LCD_Wstring("HOT");
  1736  07E7  3010               	movlw	low (STR_61| (0+32768))
  1737  07E8  00F4               	movwf	LCD_Wstring@v
  1738  07E9  3090               	movlw	high (STR_61| (0+32768))
  1739  07EA  00F5               	movwf	LCD_Wstring@v+1
  1740  07EB  160A  118A  22B4  120A  118A  	fcall	_LCD_Wstring
  1741  07F0                     l295:
  1742  07F0  0008               	return
  1743  07F1                     __end_of_transformtemp:
  1744                           
  1745                           	psect	text2
  1746  14EB                     __ptext2:	
  1747 ;; *************** function _transformcounter *****************
  1748 ;; Defined at:
  1749 ;;		line 301 in file "MASTERsrc.c"
  1750 ;; Parameters:    Size  Location     Type
  1751 ;;  p               1    wreg     unsigned char 
  1752 ;; Auto vars:     Size  Location     Type
  1753 ;;  p               1    2[BANK0 ] unsigned char 
  1754 ;; Return value:  Size  Location     Type
  1755 ;;                  1    wreg      void 
  1756 ;; Registers used:
  1757 ;;		wreg, fsr0l, fsr0h, status,2, status,0, btemp+1, pclath, cstack
  1758 ;; Tracked objects:
  1759 ;;		On entry : 0/0
  1760 ;;		On exit  : 0/0
  1761 ;;		Unchanged: 0/0
  1762 ;; Data sizes:     COMMON   BANK0   BANK1   BANK3   BANK2
  1763 ;;      Params:         0       0       0       0       0
  1764 ;;      Locals:         0       1       0       0       0
  1765 ;;      Temps:          1       0       0       0       0
  1766 ;;      Totals:         1       1       0       0       0
  1767 ;;Total ram usage:        2 bytes
  1768 ;; Hardware stack levels used:    1
  1769 ;; Hardware stack levels required when called:    3
  1770 ;; This function calls:
  1771 ;;		_LCD_Wstring
  1772 ;;		_LCD_cursor
  1773 ;; This function is called by:
  1774 ;;		_main
  1775 ;; This function uses a non-reentrant model
  1776 ;;
  1777                           
  1778                           
  1779                           ;psect for function _transformcounter
  1780  14EB                     _transformcounter:
  1781                           
  1782                           ;incstack = 0
  1783                           ; Regs used in _transformcounter: [wreg-fsr0h+status,2+status,0+btemp+1+pclath+cstack]
  1784                           ;transformcounter@p stored from wreg
  1785  14EB  1283               	bcf	3,5	;RP0=0, select bank0
  1786  14EC  1303               	bcf	3,6	;RP1=0, select bank0
  1787  14ED  00A2               	movwf	transformcounter@p
  1788  14EE                     l4191:
  1789                           
  1790                           ;MASTERsrc.c: 302:     if (p<100){
  1791  14EE  3064               	movlw	100
  1792  14EF  0222               	subwf	transformcounter@p,w
  1793  14F0  1803               	skipnc
  1794  14F1  2CF3               	goto	u4751
  1795  14F2  2CF4               	goto	u4750
  1796  14F3                     u4751:
  1797  14F3  2D08               	goto	l4197
  1798  14F4                     u4750:
  1799  14F4                     l4193:
  1800                           
  1801                           ;MASTERsrc.c: 303:         LCD_cursor(14,2);
  1802  14F4  3002               	movlw	2
  1803  14F5  00F9               	movwf	??_transformcounter
  1804  14F6  0879               	movf	??_transformcounter,w
  1805  14F7  00F5               	movwf	LCD_cursor@y
  1806  14F8  300E               	movlw	14
  1807  14F9  160A  118A  2290  160A  118A  	fcall	_LCD_cursor
  1808  14FE                     l4195:
  1809                           
  1810                           ;MASTERsrc.c: 304:         LCD_Wstring("0");
  1811  14FE  3028               	movlw	low ((STR_65+1)| (0+32768))
  1812  14FF  00F4               	movwf	LCD_Wstring@v
  1813  1500  3090               	movlw	high ((STR_65+1)| (0+32768))
  1814  1501  00F5               	movwf	LCD_Wstring@v+1
  1815  1502  160A  118A  22B4  160A  118A  	fcall	_LCD_Wstring
  1816                           
  1817                           ;MASTERsrc.c: 306:     }
  1818  1507  2D4F               	goto	l4215
  1819  1508                     l4197:
  1820  1508  3064               	movlw	100
  1821  1509  0222               	subwf	transformcounter@p,w
  1822  150A  1C03               	skipc
  1823  150B  2D0D               	goto	u4761
  1824  150C  2D0E               	goto	u4760
  1825  150D                     u4761:
  1826  150D  2D2F               	goto	l4207
  1827  150E                     u4760:
  1828  150E                     l4199:
  1829  150E  30C8               	movlw	200
  1830  150F  0222               	subwf	transformcounter@p,w
  1831  1510  1803               	skipnc
  1832  1511  2D13               	goto	u4771
  1833  1512  2D14               	goto	u4770
  1834  1513                     u4771:
  1835  1513  2D2F               	goto	l4207
  1836  1514                     u4770:
  1837  1514                     l4201:
  1838                           
  1839                           ;MASTERsrc.c: 309:         LCD_cursor(14,2);
  1840  1514  3002               	movlw	2
  1841  1515  00F9               	movwf	??_transformcounter
  1842  1516  0879               	movf	??_transformcounter,w
  1843  1517  00F5               	movwf	LCD_cursor@y
  1844  1518  300E               	movlw	14
  1845  1519  160A  118A  2290  160A  118A  	fcall	_LCD_cursor
  1846  151E                     l4203:
  1847                           
  1848                           ;MASTERsrc.c: 310:         LCD_Wstring("1");
  1849  151E  3046               	movlw	low ((STR_66+1)| (0+32768))
  1850  151F  00F4               	movwf	LCD_Wstring@v
  1851  1520  3090               	movlw	high ((STR_66+1)| (0+32768))
  1852  1521  00F5               	movwf	LCD_Wstring@v+1
  1853  1522  160A  118A  22B4  160A  118A  	fcall	_LCD_Wstring
  1854  1527                     l4205:
  1855                           
  1856                           ;MASTERsrc.c: 311:         p = p-100;
  1857  1527  1283               	bcf	3,5	;RP0=0, select bank0
  1858  1528  1303               	bcf	3,6	;RP1=0, select bank0
  1859  1529  0822               	movf	transformcounter@p,w
  1860  152A  3E9C               	addlw	156
  1861  152B  00F9               	movwf	??_transformcounter
  1862  152C  0879               	movf	??_transformcounter,w
  1863  152D  00A2               	movwf	transformcounter@p
  1864                           
  1865                           ;MASTERsrc.c: 312:     }
  1866  152E  2D4F               	goto	l4215
  1867  152F                     l4207:
  1868  152F  30C8               	movlw	200
  1869  1530  0222               	subwf	transformcounter@p,w
  1870  1531  1C03               	skipc
  1871  1532  2D34               	goto	u4781
  1872  1533  2D35               	goto	u4780
  1873  1534                     u4781:
  1874  1534  2D4F               	goto	l4215
  1875  1535                     u4780:
  1876  1535                     l4209:
  1877                           
  1878                           ;MASTERsrc.c: 315:         LCD_cursor(14,2);
  1879  1535  3002               	movlw	2
  1880  1536  00F9               	movwf	??_transformcounter
  1881  1537  0879               	movf	??_transformcounter,w
  1882  1538  00F5               	movwf	LCD_cursor@y
  1883  1539  300E               	movlw	14
  1884  153A  160A  118A  2290  160A  118A  	fcall	_LCD_cursor
  1885  153F                     l4211:
  1886                           
  1887                           ;MASTERsrc.c: 316:         LCD_Wstring("2");
  1888  153F  3064               	movlw	low ((STR_67+1)| (0+32768))
  1889  1540  00F4               	movwf	LCD_Wstring@v
  1890  1541  3090               	movlw	high ((STR_67+1)| (0+32768))
  1891  1542  00F5               	movwf	LCD_Wstring@v+1
  1892  1543  160A  118A  22B4  160A  118A  	fcall	_LCD_Wstring
  1893  1548                     l4213:
  1894                           
  1895                           ;MASTERsrc.c: 317:         p = p-200;
  1896  1548  1283               	bcf	3,5	;RP0=0, select bank0
  1897  1549  1303               	bcf	3,6	;RP1=0, select bank0
  1898  154A  0822               	movf	transformcounter@p,w
  1899  154B  3E38               	addlw	56
  1900  154C  00F9               	movwf	??_transformcounter
  1901  154D  0879               	movf	??_transformcounter,w
  1902  154E  00A2               	movwf	transformcounter@p
  1903  154F                     l4215:
  1904                           
  1905                           ;MASTERsrc.c: 320:     if(p == 0 ){LCD_cursor(15,2);LCD_Wstring("00");}
  1906  154F  1283               	bcf	3,5	;RP0=0, select bank0
  1907  1550  1303               	bcf	3,6	;RP1=0, select bank0
  1908  1551  0822               	movf	transformcounter@p,w
  1909  1552  1D03               	btfss	3,2
  1910  1553  2D55               	goto	u4791
  1911  1554  2D56               	goto	u4790
  1912  1555                     u4791:
  1913  1555  2D69               	goto	l4221
  1914  1556                     u4790:
  1915  1556                     l4217:
  1916  1556  3002               	movlw	2
  1917  1557  00F9               	movwf	??_transformcounter
  1918  1558  0879               	movf	??_transformcounter,w
  1919  1559  00F5               	movwf	LCD_cursor@y
  1920  155A  300F               	movlw	15
  1921  155B  160A  118A  2290  160A  118A  	fcall	_LCD_cursor
  1922  1560                     l4219:
  1923  1560  3027               	movlw	low (STR_65| (0+32768))
  1924  1561  00F4               	movwf	LCD_Wstring@v
  1925  1562  3090               	movlw	high (STR_65| (0+32768))
  1926  1563  00F5               	movwf	LCD_Wstring@v+1
  1927  1564  160A  118A  22B4  160A  118A  	fcall	_LCD_Wstring
  1928  1569                     l4221:
  1929                           
  1930                           ;MASTERsrc.c: 321:     if(p == 1 ){LCD_cursor(15,2);LCD_Wstring("01");}
  1931  1569  1283               	bcf	3,5	;RP0=0, select bank0
  1932  156A  1303               	bcf	3,6	;RP1=0, select bank0
  1933  156B  0322               	decf	transformcounter@p,w
  1934  156C  1D03               	btfss	3,2
  1935  156D  2D6F               	goto	u4801
  1936  156E  2D70               	goto	u4800
  1937  156F                     u4801:
  1938  156F  2D86               	goto	l4227
  1939  1570                     u4800:
  1940  1570                     l4223:
  1941  1570  3002               	movlw	2
  1942  1571  00F9               	movwf	??_transformcounter
  1943  1572  0879               	movf	??_transformcounter,w
  1944  1573  00F5               	movwf	LCD_cursor@y
  1945  1574  300F               	movlw	15
  1946  1575  160A  118A  2290  160A  118A  	fcall	_LCD_cursor
  1947  157A                     l4225:
  1948  157A  3045               	movlw	low (STR_66| (0+32768))
  1949  157B  00F4               	movwf	LCD_Wstring@v
  1950  157C  3090               	movlw	high (STR_66| (0+32768))
  1951  157D  00F5               	movwf	LCD_Wstring@v+1
  1952  157E  160A  118A  22B4  160A  118A  	fcall	_LCD_Wstring
  1953  1583                     L1:
  1954  1583  120A  118A  2FA0   	goto	l501
  1955  1586                     l4227:
  1956  1586  3002               	movlw	2
  1957  1587  0622               	xorwf	transformcounter@p,w
  1958  1588  1D03               	btfss	3,2
  1959  1589  2D8B               	goto	u4811
  1960  158A  2D8C               	goto	u4810
  1961  158B                     u4811:
  1962  158B  2DA0               	goto	l4233
  1963  158C                     u4810:
  1964  158C                     l4229:
  1965  158C  3002               	movlw	2
  1966  158D  00F9               	movwf	??_transformcounter
  1967  158E  0879               	movf	??_transformcounter,w
  1968  158F  00F5               	movwf	LCD_cursor@y
  1969  1590  300F               	movlw	15
  1970  1591  160A  118A  2290  160A  118A  	fcall	_LCD_cursor
  1971  1596                     l4231:
  1972  1596  3063               	movlw	low (STR_67| (0+32768))
  1973  1597  00F4               	movwf	LCD_Wstring@v
  1974  1598  3090               	movlw	high (STR_67| (0+32768))
  1975  1599  00F5               	movwf	LCD_Wstring@v+1
  1976  159A  160A  118A  22B4  160A  118A  	fcall	_LCD_Wstring
  1977  159F  2D83               	goto	L1
  1978  15A0                     l4233:
  1979  15A0  3003               	movlw	3
  1980  15A1  0622               	xorwf	transformcounter@p,w
  1981  15A2  1D03               	btfss	3,2
  1982  15A3  2DA5               	goto	u4821
  1983  15A4  2DA6               	goto	u4820
  1984  15A5                     u4821:
  1985  15A5  2DBA               	goto	l4239
  1986  15A6                     u4820:
  1987  15A6                     l4235:
  1988  15A6  3002               	movlw	2
  1989  15A7  00F9               	movwf	??_transformcounter
  1990  15A8  0879               	movf	??_transformcounter,w
  1991  15A9  00F5               	movwf	LCD_cursor@y
  1992  15AA  300F               	movlw	15
  1993  15AB  160A  118A  2290  160A  118A  	fcall	_LCD_cursor
  1994  15B0                     l4237:
  1995  15B0  3081               	movlw	low (STR_68| (0+32768))
  1996  15B1  00F4               	movwf	LCD_Wstring@v
  1997  15B2  3090               	movlw	high (STR_68| (0+32768))
  1998  15B3  00F5               	movwf	LCD_Wstring@v+1
  1999  15B4  160A  118A  22B4  160A  118A  	fcall	_LCD_Wstring
  2000  15B9  2D83               	goto	L1
  2001  15BA                     l4239:
  2002  15BA  3004               	movlw	4
  2003  15BB  0622               	xorwf	transformcounter@p,w
  2004  15BC  1D03               	btfss	3,2
  2005  15BD  2DBF               	goto	u4831
  2006  15BE  2DC0               	goto	u4830
  2007  15BF                     u4831:
  2008  15BF  2DD4               	goto	l4245
  2009  15C0                     u4830:
  2010  15C0                     l4241:
  2011  15C0  3002               	movlw	2
  2012  15C1  00F9               	movwf	??_transformcounter
  2013  15C2  0879               	movf	??_transformcounter,w
  2014  15C3  00F5               	movwf	LCD_cursor@y
  2015  15C4  300F               	movlw	15
  2016  15C5  160A  118A  2290  160A  118A  	fcall	_LCD_cursor
  2017  15CA                     l4243:
  2018  15CA  309F               	movlw	low (STR_69| (0+32768))
  2019  15CB  00F4               	movwf	LCD_Wstring@v
  2020  15CC  3090               	movlw	high (STR_69| (0+32768))
  2021  15CD  00F5               	movwf	LCD_Wstring@v+1
  2022  15CE  160A  118A  22B4  160A  118A  	fcall	_LCD_Wstring
  2023  15D3  2D83               	goto	L1
  2024  15D4                     l4245:
  2025  15D4  3005               	movlw	5
  2026  15D5  0622               	xorwf	transformcounter@p,w
  2027  15D6  1D03               	btfss	3,2
  2028  15D7  2DD9               	goto	u4841
  2029  15D8  2DDC               	goto	u4840
  2030  15D9                     u4841:
  2031  15D9  160A  118A  2EF8   	goto	l4251
  2032  15DC                     u4840:
  2033  15DC                     l4247:
  2034  15DC  3002               	movlw	2
  2035  15DD  00F9               	movwf	??_transformcounter
  2036  15DE  0879               	movf	??_transformcounter,w
  2037  15DF  00F5               	movwf	LCD_cursor@y
  2038  15E0  300F               	movlw	15
  2039  15E1  160A  118A  2290  160A  118A  	fcall	_LCD_cursor
  2040  15E6                     l4249:
  2041  15E6  30BD               	movlw	low (STR_70| (0+32768))
  2042  15E7  00F4               	movwf	LCD_Wstring@v
  2043  15E8  3090               	movlw	high (STR_70| (0+32768))
  2044  15E9  00F5               	movwf	LCD_Wstring@v+1
  2045  15EA  160A  118A  22B4  160A  118A  	fcall	_LCD_Wstring
  2046  15EF  2D83               	goto	L1
  2047                           
  2048                           	psect	text3
  2049  099B                     __ptext3:	
  2050 ;; *************** function _transformADC *****************
  2051 ;; Defined at:
  2052 ;;		line 185 in file "MASTERsrc.c"
  2053 ;; Parameters:    Size  Location     Type
  2054 ;;  k               1    wreg     unsigned char 
  2055 ;; Auto vars:     Size  Location     Type
  2056 ;;  k               1    9[COMMON] unsigned char 
  2057 ;; Return value:  Size  Location     Type
  2058 ;;                  1    wreg      void 
  2059 ;; Registers used:
  2060 ;;		wreg, fsr0l, fsr0h, status,2, status,0, btemp+1, pclath, cstack
  2061 ;; Tracked objects:
  2062 ;;		On entry : 0/0
  2063 ;;		On exit  : 0/0
  2064 ;;		Unchanged: 0/0
  2065 ;; Data sizes:     COMMON   BANK0   BANK1   BANK3   BANK2
  2066 ;;      Params:         0       0       0       0       0
  2067 ;;      Locals:         1       0       0       0       0
  2068 ;;      Temps:          0       2       0       0       0
  2069 ;;      Totals:         1       2       0       0       0
  2070 ;;Total ram usage:        3 bytes
  2071 ;; Hardware stack levels used:    1
  2072 ;; Hardware stack levels required when called:    3
  2073 ;; This function calls:
  2074 ;;		_LCD_Wstring
  2075 ;;		_LCD_cursor
  2076 ;; This function is called by:
  2077 ;;		_main
  2078 ;; This function uses a non-reentrant model
  2079 ;;
  2080                           
  2081                           
  2082                           ;psect for function _transformADC
  2083  099B                     _transformADC:
  2084                           
  2085                           ;incstack = 0
  2086                           ; Regs used in _transformADC: [wreg-fsr0h+status,2+status,0+btemp+1+pclath+cstack]
  2087                           ;transformADC@k stored from wreg
  2088  099B  00F9               	movwf	transformADC@k
  2089  099C                     l3837:
  2090                           
  2091                           ;MASTERsrc.c: 187:     if (k<51){
  2092  099C  3033               	movlw	51
  2093  099D  0279               	subwf	transformADC@k,w
  2094  099E  1803               	skipnc
  2095  099F  29A1               	goto	u4171
  2096  09A0  29A2               	goto	u4170
  2097  09A1                     u4171:
  2098  09A1  29C2               	goto	l3845
  2099  09A2                     u4170:
  2100  09A2                     l3839:
  2101                           
  2102                           ;MASTERsrc.c: 188:         LCD_cursor(1,2);
  2103  09A2  3002               	movlw	2
  2104  09A3  1283               	bcf	3,5	;RP0=0, select bank0
  2105  09A4  1303               	bcf	3,6	;RP1=0, select bank0
  2106  09A5  00A2               	movwf	??_transformADC
  2107  09A6  0822               	movf	??_transformADC,w
  2108  09A7  00F5               	movwf	LCD_cursor@y
  2109  09A8  3001               	movlw	1
  2110  09A9  160A  118A  2290  120A  158A  	fcall	_LCD_cursor
  2111  09AE                     l3841:
  2112                           
  2113                           ;MASTERsrc.c: 189:         LCD_Wstring("0.");
  2114  09AE  3018               	movlw	low (STR_4| (0+32768))
  2115  09AF  00F4               	movwf	LCD_Wstring@v
  2116  09B0  3090               	movlw	high (STR_4| (0+32768))
  2117  09B1  00F5               	movwf	LCD_Wstring@v+1
  2118  09B2  160A  118A  22B4  120A  158A  	fcall	_LCD_Wstring
  2119  09B7                     l3843:
  2120                           
  2121                           ;MASTERsrc.c: 190:         _delay((unsigned long)((1)*(8000000/4000.0)));
  2122  09B7  3003               	movlw	3
  2123  09B8  1283               	bcf	3,5	;RP0=0, select bank0
  2124  09B9  1303               	bcf	3,6	;RP1=0, select bank0
  2125  09BA  00A3               	movwf	??_transformADC+1
  2126  09BB  3097               	movlw	151
  2127  09BC  00A2               	movwf	??_transformADC
  2128  09BD                     u5967:
  2129  09BD  0BA2               	decfsz	??_transformADC,f
  2130  09BE  29BD               	goto	u5967
  2131  09BF  0BA3               	decfsz	??_transformADC+1,f
  2132  09C0  29BD               	goto	u5967
  2133                           
  2134                           ;MASTERsrc.c: 191:     }
  2135  09C1  2A88               	goto	l3891
  2136  09C2                     l3845:
  2137  09C2  3033               	movlw	51
  2138  09C3  0279               	subwf	transformADC@k,w
  2139  09C4  1C03               	skipc
  2140  09C5  29C7               	goto	u4181
  2141  09C6  29C8               	goto	u4180
  2142  09C7                     u4181:
  2143  09C7  29F5               	goto	l3857
  2144  09C8                     u4180:
  2145  09C8                     l3847:
  2146  09C8  3067               	movlw	103
  2147  09C9  0279               	subwf	transformADC@k,w
  2148  09CA  1803               	skipnc
  2149  09CB  29CD               	goto	u4191
  2150  09CC  29CE               	goto	u4190
  2151  09CD                     u4191:
  2152  09CD  29F5               	goto	l3857
  2153  09CE                     u4190:
  2154  09CE                     l3849:
  2155                           
  2156                           ;MASTERsrc.c: 194:         LCD_cursor(1,2);
  2157  09CE  3002               	movlw	2
  2158  09CF  1283               	bcf	3,5	;RP0=0, select bank0
  2159  09D0  1303               	bcf	3,6	;RP1=0, select bank0
  2160  09D1  00A2               	movwf	??_transformADC
  2161  09D2  0822               	movf	??_transformADC,w
  2162  09D3  00F5               	movwf	LCD_cursor@y
  2163  09D4  3001               	movlw	1
  2164  09D5  160A  118A  2290  120A  158A  	fcall	_LCD_cursor
  2165  09DA                     l3851:
  2166                           
  2167                           ;MASTERsrc.c: 195:         LCD_Wstring("1.");
  2168  09DA  301B               	movlw	low (STR_5| (0+32768))
  2169  09DB  00F4               	movwf	LCD_Wstring@v
  2170  09DC  3090               	movlw	high (STR_5| (0+32768))
  2171  09DD  00F5               	movwf	LCD_Wstring@v+1
  2172  09DE  160A  118A  22B4  120A  158A  	fcall	_LCD_Wstring
  2173  09E3                     l3853:
  2174                           
  2175                           ;MASTERsrc.c: 196:         _delay((unsigned long)((1)*(8000000/4000.0)));
  2176  09E3  3003               	movlw	3
  2177  09E4  1283               	bcf	3,5	;RP0=0, select bank0
  2178  09E5  1303               	bcf	3,6	;RP1=0, select bank0
  2179  09E6  00A3               	movwf	??_transformADC+1
  2180  09E7  3097               	movlw	151
  2181  09E8  00A2               	movwf	??_transformADC
  2182  09E9                     u5977:
  2183  09E9  0BA2               	decfsz	??_transformADC,f
  2184  09EA  29E9               	goto	u5977
  2185  09EB  0BA3               	decfsz	??_transformADC+1,f
  2186  09EC  29E9               	goto	u5977
  2187  09ED                     l3855:
  2188                           
  2189                           ;MASTERsrc.c: 197:         k = k - 51;
  2190  09ED  0879               	movf	transformADC@k,w
  2191  09EE  3ECD               	addlw	205
  2192  09EF  1283               	bcf	3,5	;RP0=0, select bank0
  2193  09F0  1303               	bcf	3,6	;RP1=0, select bank0
  2194  09F1  00A2               	movwf	??_transformADC
  2195  09F2  0822               	movf	??_transformADC,w
  2196  09F3  00F9               	movwf	transformADC@k
  2197                           
  2198                           ;MASTERsrc.c: 198:     }
  2199  09F4  2A88               	goto	l3891
  2200  09F5                     l3857:
  2201  09F5  3067               	movlw	103
  2202  09F6  0279               	subwf	transformADC@k,w
  2203  09F7  1C03               	skipc
  2204  09F8  29FA               	goto	u4201
  2205  09F9  29FB               	goto	u4200
  2206  09FA                     u4201:
  2207  09FA  2A28               	goto	l3869
  2208  09FB                     u4200:
  2209  09FB                     l3859:
  2210  09FB  309A               	movlw	154
  2211  09FC  0279               	subwf	transformADC@k,w
  2212  09FD  1803               	skipnc
  2213  09FE  2A00               	goto	u4211
  2214  09FF  2A01               	goto	u4210
  2215  0A00                     u4211:
  2216  0A00  2A28               	goto	l3869
  2217  0A01                     u4210:
  2218  0A01                     l3861:
  2219                           
  2220                           ;MASTERsrc.c: 201:         LCD_cursor(1,2);
  2221  0A01  3002               	movlw	2
  2222  0A02  1283               	bcf	3,5	;RP0=0, select bank0
  2223  0A03  1303               	bcf	3,6	;RP1=0, select bank0
  2224  0A04  00A2               	movwf	??_transformADC
  2225  0A05  0822               	movf	??_transformADC,w
  2226  0A06  00F5               	movwf	LCD_cursor@y
  2227  0A07  3001               	movlw	1
  2228  0A08  160A  118A  2290  120A  158A  	fcall	_LCD_cursor
  2229  0A0D                     l3863:
  2230                           
  2231                           ;MASTERsrc.c: 202:         LCD_Wstring("2.");
  2232  0A0D  301E               	movlw	low (STR_6| (0+32768))
  2233  0A0E  00F4               	movwf	LCD_Wstring@v
  2234  0A0F  3090               	movlw	high (STR_6| (0+32768))
  2235  0A10  00F5               	movwf	LCD_Wstring@v+1
  2236  0A11  160A  118A  22B4  120A  158A  	fcall	_LCD_Wstring
  2237  0A16                     l3865:
  2238                           
  2239                           ;MASTERsrc.c: 203:         _delay((unsigned long)((1)*(8000000/4000.0)));
  2240  0A16  3003               	movlw	3
  2241  0A17  1283               	bcf	3,5	;RP0=0, select bank0
  2242  0A18  1303               	bcf	3,6	;RP1=0, select bank0
  2243  0A19  00A3               	movwf	??_transformADC+1
  2244  0A1A  3097               	movlw	151
  2245  0A1B  00A2               	movwf	??_transformADC
  2246  0A1C                     u5987:
  2247  0A1C  0BA2               	decfsz	??_transformADC,f
  2248  0A1D  2A1C               	goto	u5987
  2249  0A1E  0BA3               	decfsz	??_transformADC+1,f
  2250  0A1F  2A1C               	goto	u5987
  2251  0A20                     l3867:
  2252                           
  2253                           ;MASTERsrc.c: 204:         k = k - 102;
  2254  0A20  0879               	movf	transformADC@k,w
  2255  0A21  3E9A               	addlw	154
  2256  0A22  1283               	bcf	3,5	;RP0=0, select bank0
  2257  0A23  1303               	bcf	3,6	;RP1=0, select bank0
  2258  0A24  00A2               	movwf	??_transformADC
  2259  0A25  0822               	movf	??_transformADC,w
  2260  0A26  00F9               	movwf	transformADC@k
  2261                           
  2262                           ;MASTERsrc.c: 206:     }
  2263  0A27  2A88               	goto	l3891
  2264  0A28                     l3869:
  2265  0A28  309A               	movlw	154
  2266  0A29  0279               	subwf	transformADC@k,w
  2267  0A2A  1C03               	skipc
  2268  0A2B  2A2D               	goto	u4221
  2269  0A2C  2A2E               	goto	u4220
  2270  0A2D                     u4221:
  2271  0A2D  2A5B               	goto	l3881
  2272  0A2E                     u4220:
  2273  0A2E                     l3871:
  2274  0A2E  30CD               	movlw	205
  2275  0A2F  0279               	subwf	transformADC@k,w
  2276  0A30  1803               	skipnc
  2277  0A31  2A33               	goto	u4231
  2278  0A32  2A34               	goto	u4230
  2279  0A33                     u4231:
  2280  0A33  2A5B               	goto	l3881
  2281  0A34                     u4230:
  2282  0A34                     l3873:
  2283                           
  2284                           ;MASTERsrc.c: 209:         LCD_cursor(1,2);
  2285  0A34  3002               	movlw	2
  2286  0A35  1283               	bcf	3,5	;RP0=0, select bank0
  2287  0A36  1303               	bcf	3,6	;RP1=0, select bank0
  2288  0A37  00A2               	movwf	??_transformADC
  2289  0A38  0822               	movf	??_transformADC,w
  2290  0A39  00F5               	movwf	LCD_cursor@y
  2291  0A3A  3001               	movlw	1
  2292  0A3B  160A  118A  2290  120A  158A  	fcall	_LCD_cursor
  2293  0A40                     l3875:
  2294                           
  2295                           ;MASTERsrc.c: 210:         LCD_Wstring("3.");
  2296  0A40  3021               	movlw	low (STR_7| (0+32768))
  2297  0A41  00F4               	movwf	LCD_Wstring@v
  2298  0A42  3090               	movlw	high (STR_7| (0+32768))
  2299  0A43  00F5               	movwf	LCD_Wstring@v+1
  2300  0A44  160A  118A  22B4  120A  158A  	fcall	_LCD_Wstring
  2301  0A49                     l3877:
  2302                           
  2303                           ;MASTERsrc.c: 211:         _delay((unsigned long)((1)*(8000000/4000.0)));
  2304  0A49  3003               	movlw	3
  2305  0A4A  1283               	bcf	3,5	;RP0=0, select bank0
  2306  0A4B  1303               	bcf	3,6	;RP1=0, select bank0
  2307  0A4C  00A3               	movwf	??_transformADC+1
  2308  0A4D  3097               	movlw	151
  2309  0A4E  00A2               	movwf	??_transformADC
  2310  0A4F                     u5997:
  2311  0A4F  0BA2               	decfsz	??_transformADC,f
  2312  0A50  2A4F               	goto	u5997
  2313  0A51  0BA3               	decfsz	??_transformADC+1,f
  2314  0A52  2A4F               	goto	u5997
  2315  0A53                     l3879:
  2316                           
  2317                           ;MASTERsrc.c: 212:         k = k - 153;
  2318  0A53  0879               	movf	transformADC@k,w
  2319  0A54  3E67               	addlw	103
  2320  0A55  1283               	bcf	3,5	;RP0=0, select bank0
  2321  0A56  1303               	bcf	3,6	;RP1=0, select bank0
  2322  0A57  00A2               	movwf	??_transformADC
  2323  0A58  0822               	movf	??_transformADC,w
  2324  0A59  00F9               	movwf	transformADC@k
  2325                           
  2326                           ;MASTERsrc.c: 214:     }
  2327  0A5A  2A88               	goto	l3891
  2328  0A5B                     l3881:
  2329  0A5B  30CD               	movlw	205
  2330  0A5C  0279               	subwf	transformADC@k,w
  2331  0A5D  1C03               	skipc
  2332  0A5E  2A60               	goto	u4241
  2333  0A5F  2A61               	goto	u4240
  2334  0A60                     u4241:
  2335  0A60  2A88               	goto	l182
  2336  0A61                     u4240:
  2337  0A61                     l3883:
  2338                           
  2339                           ;MASTERsrc.c: 217:         LCD_cursor(1,2);
  2340  0A61  3002               	movlw	2
  2341  0A62  1283               	bcf	3,5	;RP0=0, select bank0
  2342  0A63  1303               	bcf	3,6	;RP1=0, select bank0
  2343  0A64  00A2               	movwf	??_transformADC
  2344  0A65  0822               	movf	??_transformADC,w
  2345  0A66  00F5               	movwf	LCD_cursor@y
  2346  0A67  3001               	movlw	1
  2347  0A68  160A  118A  2290  120A  158A  	fcall	_LCD_cursor
  2348  0A6D                     l3885:
  2349                           
  2350                           ;MASTERsrc.c: 218:         LCD_Wstring("4.");
  2351  0A6D  3024               	movlw	low (STR_8| (0+32768))
  2352  0A6E  00F4               	movwf	LCD_Wstring@v
  2353  0A6F  3090               	movlw	high (STR_8| (0+32768))
  2354  0A70  00F5               	movwf	LCD_Wstring@v+1
  2355  0A71  160A  118A  22B4  120A  158A  	fcall	_LCD_Wstring
  2356  0A76                     l3887:
  2357                           
  2358                           ;MASTERsrc.c: 219:         _delay((unsigned long)((1)*(8000000/4000.0)));
  2359  0A76  3003               	movlw	3
  2360  0A77  1283               	bcf	3,5	;RP0=0, select bank0
  2361  0A78  1303               	bcf	3,6	;RP1=0, select bank0
  2362  0A79  00A3               	movwf	??_transformADC+1
  2363  0A7A  3097               	movlw	151
  2364  0A7B  00A2               	movwf	??_transformADC
  2365  0A7C                     u6007:
  2366  0A7C  0BA2               	decfsz	??_transformADC,f
  2367  0A7D  2A7C               	goto	u6007
  2368  0A7E  0BA3               	decfsz	??_transformADC+1,f
  2369  0A7F  2A7C               	goto	u6007
  2370  0A80                     l3889:
  2371                           
  2372                           ;MASTERsrc.c: 220:         k = k - 204;
  2373  0A80  0879               	movf	transformADC@k,w
  2374  0A81  3E34               	addlw	52
  2375  0A82  1283               	bcf	3,5	;RP0=0, select bank0
  2376  0A83  1303               	bcf	3,6	;RP1=0, select bank0
  2377  0A84  00A2               	movwf	??_transformADC
  2378  0A85  0822               	movf	??_transformADC,w
  2379  0A86  00F9               	movwf	transformADC@k
  2380  0A87  2A88               	goto	l3891
  2381  0A88                     l182:
  2382  0A88                     l3891:
  2383                           
  2384                           ;MASTERsrc.c: 225:     if(k == 1 ){LCD_cursor(3,2); LCD_Wstring("2");}
  2385  0A88  0379               	decf	transformADC@k,w
  2386  0A89  1D03               	btfss	3,2
  2387  0A8A  2A8C               	goto	u4251
  2388  0A8B  2A8D               	goto	u4250
  2389  0A8C                     u4251:
  2390  0A8C  2AA3               	goto	l3897
  2391  0A8D                     u4250:
  2392  0A8D                     l3893:
  2393  0A8D  3002               	movlw	2
  2394  0A8E  1283               	bcf	3,5	;RP0=0, select bank0
  2395  0A8F  1303               	bcf	3,6	;RP1=0, select bank0
  2396  0A90  00A2               	movwf	??_transformADC
  2397  0A91  0822               	movf	??_transformADC,w
  2398  0A92  00F5               	movwf	LCD_cursor@y
  2399  0A93  3003               	movlw	3
  2400  0A94  160A  118A  2290  120A  158A  	fcall	_LCD_cursor
  2401  0A99                     l3895:
  2402  0A99  3064               	movlw	low ((STR_67+1)| (0+32768))
  2403  0A9A  00F4               	movwf	LCD_Wstring@v
  2404  0A9B  3090               	movlw	high ((STR_67+1)| (0+32768))
  2405  0A9C  00F5               	movwf	LCD_Wstring@v+1
  2406  0A9D  160A  118A  22B4  120A  158A  	fcall	_LCD_Wstring
  2407  0AA2  2FFF               	goto	l287
  2408  0AA3                     l3897:
  2409  0AA3  3002               	movlw	2
  2410  0AA4  0679               	xorwf	transformADC@k,w
  2411  0AA5  1D03               	btfss	3,2
  2412  0AA6  2AA8               	goto	u4261
  2413  0AA7  2AA9               	goto	u4260
  2414  0AA8                     u4261:
  2415  0AA8  2ABF               	goto	l3903
  2416  0AA9                     u4260:
  2417  0AA9                     l3899:
  2418  0AA9  3002               	movlw	2
  2419  0AAA  1283               	bcf	3,5	;RP0=0, select bank0
  2420  0AAB  1303               	bcf	3,6	;RP1=0, select bank0
  2421  0AAC  00A2               	movwf	??_transformADC
  2422  0AAD  0822               	movf	??_transformADC,w
  2423  0AAE  00F5               	movwf	LCD_cursor@y
  2424  0AAF  3003               	movlw	3
  2425  0AB0  160A  118A  2290  120A  158A  	fcall	_LCD_cursor
  2426  0AB5                     l3901:
  2427  0AB5  30A0               	movlw	low ((STR_69+1)| (0+32768))
  2428  0AB6  00F4               	movwf	LCD_Wstring@v
  2429  0AB7  3090               	movlw	high ((STR_69+1)| (0+32768))
  2430  0AB8  00F5               	movwf	LCD_Wstring@v+1
  2431  0AB9  160A  118A  22B4  120A  158A  	fcall	_LCD_Wstring
  2432  0ABE  2FFF               	goto	l287
  2433  0ABF                     l3903:
  2434  0ABF  3003               	movlw	3
  2435  0AC0  0679               	xorwf	transformADC@k,w
  2436  0AC1  1D03               	btfss	3,2
  2437  0AC2  2AC4               	goto	u4271
  2438  0AC3  2AC5               	goto	u4270
  2439  0AC4                     u4271:
  2440  0AC4  2ADB               	goto	l3909
  2441  0AC5                     u4270:
  2442  0AC5                     l3905:
  2443  0AC5  3002               	movlw	2
  2444  0AC6  1283               	bcf	3,5	;RP0=0, select bank0
  2445  0AC7  1303               	bcf	3,6	;RP1=0, select bank0
  2446  0AC8  00A2               	movwf	??_transformADC
  2447  0AC9  0822               	movf	??_transformADC,w
  2448  0ACA  00F5               	movwf	LCD_cursor@y
  2449  0ACB  3003               	movlw	3
  2450  0ACC  160A  118A  2290  120A  158A  	fcall	_LCD_cursor
  2451  0AD1                     l3907:
  2452  0AD1  30DC               	movlw	low ((STR_71+1)| (0+32768))
  2453  0AD2  00F4               	movwf	LCD_Wstring@v
  2454  0AD3  3090               	movlw	high ((STR_71+1)| (0+32768))
  2455  0AD4  00F5               	movwf	LCD_Wstring@v+1
  2456  0AD5  160A  118A  22B4  120A  158A  	fcall	_LCD_Wstring
  2457  0ADA  2FFF               	goto	l287
  2458  0ADB                     l3909:
  2459  0ADB  3004               	movlw	4
  2460  0ADC  0679               	xorwf	transformADC@k,w
  2461  0ADD  1D03               	btfss	3,2
  2462  0ADE  2AE0               	goto	u4281
  2463  0ADF  2AE1               	goto	u4280
  2464  0AE0                     u4281:
  2465  0AE0  2AF7               	goto	l3915
  2466  0AE1                     u4280:
  2467  0AE1                     l3911:
  2468  0AE1  3002               	movlw	2
  2469  0AE2  1283               	bcf	3,5	;RP0=0, select bank0
  2470  0AE3  1303               	bcf	3,6	;RP1=0, select bank0
  2471  0AE4  00A2               	movwf	??_transformADC
  2472  0AE5  0822               	movf	??_transformADC,w
  2473  0AE6  00F5               	movwf	LCD_cursor@y
  2474  0AE7  3003               	movlw	3
  2475  0AE8  160A  118A  2290  120A  158A  	fcall	_LCD_cursor
  2476  0AED                     l3913:
  2477  0AED  3018               	movlw	low ((STR_73+1)| (0+32768))
  2478  0AEE  00F4               	movwf	LCD_Wstring@v
  2479  0AEF  3091               	movlw	high ((STR_73+1)| (0+32768))
  2480  0AF0  00F5               	movwf	LCD_Wstring@v+1
  2481  0AF1  160A  118A  22B4  120A  158A  	fcall	_LCD_Wstring
  2482  0AF6  2FFF               	goto	l287
  2483  0AF7                     l3915:
  2484  0AF7  3005               	movlw	5
  2485  0AF8  0679               	xorwf	transformADC@k,w
  2486  0AF9  1D03               	btfss	3,2
  2487  0AFA  2AFC               	goto	u4291
  2488  0AFB  2AFD               	goto	u4290
  2489  0AFC                     u4291:
  2490  0AFC  2B13               	goto	l3921
  2491  0AFD                     u4290:
  2492  0AFD                     l3917:
  2493  0AFD  3002               	movlw	2
  2494  0AFE  1283               	bcf	3,5	;RP0=0, select bank0
  2495  0AFF  1303               	bcf	3,6	;RP1=0, select bank0
  2496  0B00  00A2               	movwf	??_transformADC
  2497  0B01  0822               	movf	??_transformADC,w
  2498  0B02  00F5               	movwf	LCD_cursor@y
  2499  0B03  3003               	movlw	3
  2500  0B04  160A  118A  2290  120A  158A  	fcall	_LCD_cursor
  2501  0B09                     l3919:
  2502  0B09  302A               	movlw	low (STR_13| (0+32768))
  2503  0B0A  00F4               	movwf	LCD_Wstring@v
  2504  0B0B  3090               	movlw	high (STR_13| (0+32768))
  2505  0B0C  00F5               	movwf	LCD_Wstring@v+1
  2506  0B0D  160A  118A  22B4  120A  158A  	fcall	_LCD_Wstring
  2507  0B12  2FFF               	goto	l287
  2508  0B13                     l3921:
  2509  0B13  3006               	movlw	6
  2510  0B14  0679               	xorwf	transformADC@k,w
  2511  0B15  1D03               	btfss	3,2
  2512  0B16  2B18               	goto	u4301
  2513  0B17  2B19               	goto	u4300
  2514  0B18                     u4301:
  2515  0B18  2B2F               	goto	l3927
  2516  0B19                     u4300:
  2517  0B19                     l3923:
  2518  0B19  3002               	movlw	2
  2519  0B1A  1283               	bcf	3,5	;RP0=0, select bank0
  2520  0B1B  1303               	bcf	3,6	;RP1=0, select bank0
  2521  0B1C  00A2               	movwf	??_transformADC
  2522  0B1D  0822               	movf	??_transformADC,w
  2523  0B1E  00F5               	movwf	LCD_cursor@y
  2524  0B1F  3003               	movlw	3
  2525  0B20  160A  118A  2290  120A  158A  	fcall	_LCD_cursor
  2526  0B25                     l3925:
  2527  0B25  3066               	movlw	low (STR_14| (0+32768))
  2528  0B26  00F4               	movwf	LCD_Wstring@v
  2529  0B27  3090               	movlw	high (STR_14| (0+32768))
  2530  0B28  00F5               	movwf	LCD_Wstring@v+1
  2531  0B29  160A  118A  22B4  120A  158A  	fcall	_LCD_Wstring
  2532  0B2E  2FFF               	goto	l287
  2533  0B2F                     l3927:
  2534  0B2F  3007               	movlw	7
  2535  0B30  0679               	xorwf	transformADC@k,w
  2536  0B31  1D03               	btfss	3,2
  2537  0B32  2B34               	goto	u4311
  2538  0B33  2B35               	goto	u4310
  2539  0B34                     u4311:
  2540  0B34  2B4B               	goto	l3933
  2541  0B35                     u4310:
  2542  0B35                     l3929:
  2543  0B35  3002               	movlw	2
  2544  0B36  1283               	bcf	3,5	;RP0=0, select bank0
  2545  0B37  1303               	bcf	3,6	;RP1=0, select bank0
  2546  0B38  00A2               	movwf	??_transformADC
  2547  0B39  0822               	movf	??_transformADC,w
  2548  0B3A  00F5               	movwf	LCD_cursor@y
  2549  0B3B  3003               	movlw	3
  2550  0B3C  160A  118A  2290  120A  158A  	fcall	_LCD_cursor
  2551  0B41                     l3931:
  2552  0B41  30A2               	movlw	low (STR_15| (0+32768))
  2553  0B42  00F4               	movwf	LCD_Wstring@v
  2554  0B43  3090               	movlw	high (STR_15| (0+32768))
  2555  0B44  00F5               	movwf	LCD_Wstring@v+1
  2556  0B45  160A  118A  22B4  120A  158A  	fcall	_LCD_Wstring
  2557  0B4A  2FFF               	goto	l287
  2558  0B4B                     l3933:
  2559  0B4B  3008               	movlw	8
  2560  0B4C  0679               	xorwf	transformADC@k,w
  2561  0B4D  1D03               	btfss	3,2
  2562  0B4E  2B50               	goto	u4321
  2563  0B4F  2B51               	goto	u4320
  2564  0B50                     u4321:
  2565  0B50  2B67               	goto	l3939
  2566  0B51                     u4320:
  2567  0B51                     l3935:
  2568  0B51  3002               	movlw	2
  2569  0B52  1283               	bcf	3,5	;RP0=0, select bank0
  2570  0B53  1303               	bcf	3,6	;RP1=0, select bank0
  2571  0B54  00A2               	movwf	??_transformADC
  2572  0B55  0822               	movf	??_transformADC,w
  2573  0B56  00F5               	movwf	LCD_cursor@y
  2574  0B57  3003               	movlw	3
  2575  0B58  160A  118A  2290  120A  158A  	fcall	_LCD_cursor
  2576  0B5D                     l3937:
  2577  0B5D  30DE               	movlw	low (STR_16| (0+32768))
  2578  0B5E  00F4               	movwf	LCD_Wstring@v
  2579  0B5F  3090               	movlw	high (STR_16| (0+32768))
  2580  0B60  00F5               	movwf	LCD_Wstring@v+1
  2581  0B61  160A  118A  22B4  120A  158A  	fcall	_LCD_Wstring
  2582  0B66  2FFF               	goto	l287
  2583  0B67                     l3939:
  2584  0B67  3009               	movlw	9
  2585  0B68  0679               	xorwf	transformADC@k,w
  2586  0B69  1D03               	btfss	3,2
  2587  0B6A  2B6C               	goto	u4331
  2588  0B6B  2B6D               	goto	u4330
  2589  0B6C                     u4331:
  2590  0B6C  2B83               	goto	l3945
  2591  0B6D                     u4330:
  2592  0B6D                     l3941:
  2593  0B6D  3002               	movlw	2
  2594  0B6E  1283               	bcf	3,5	;RP0=0, select bank0
  2595  0B6F  1303               	bcf	3,6	;RP1=0, select bank0
  2596  0B70  00A2               	movwf	??_transformADC
  2597  0B71  0822               	movf	??_transformADC,w
  2598  0B72  00F5               	movwf	LCD_cursor@y
  2599  0B73  3003               	movlw	3
  2600  0B74  160A  118A  2290  120A  158A  	fcall	_LCD_cursor
  2601  0B79                     l3943:
  2602  0B79  301A               	movlw	low (STR_17| (0+32768))
  2603  0B7A  00F4               	movwf	LCD_Wstring@v
  2604  0B7B  3091               	movlw	high (STR_17| (0+32768))
  2605  0B7C  00F5               	movwf	LCD_Wstring@v+1
  2606  0B7D  160A  118A  22B4  120A  158A  	fcall	_LCD_Wstring
  2607  0B82  2FFF               	goto	l287
  2608  0B83                     l3945:
  2609  0B83  300A               	movlw	10
  2610  0B84  0679               	xorwf	transformADC@k,w
  2611  0B85  1D03               	btfss	3,2
  2612  0B86  2B88               	goto	u4341
  2613  0B87  2B89               	goto	u4340
  2614  0B88                     u4341:
  2615  0B88  2B9F               	goto	l3951
  2616  0B89                     u4340:
  2617  0B89                     l3947:
  2618  0B89  3002               	movlw	2
  2619  0B8A  1283               	bcf	3,5	;RP0=0, select bank0
  2620  0B8B  1303               	bcf	3,6	;RP1=0, select bank0
  2621  0B8C  00A2               	movwf	??_transformADC
  2622  0B8D  0822               	movf	??_transformADC,w
  2623  0B8E  00F5               	movwf	LCD_cursor@y
  2624  0B8F  3003               	movlw	3
  2625  0B90  160A  118A  2290  120A  158A  	fcall	_LCD_cursor
  2626  0B95                     l3949:
  2627  0B95  302D               	movlw	low (STR_18| (0+32768))
  2628  0B96  00F4               	movwf	LCD_Wstring@v
  2629  0B97  3090               	movlw	high (STR_18| (0+32768))
  2630  0B98  00F5               	movwf	LCD_Wstring@v+1
  2631  0B99  160A  118A  22B4  120A  158A  	fcall	_LCD_Wstring
  2632  0B9E  2FFF               	goto	l287
  2633  0B9F                     l3951:
  2634  0B9F  300B               	movlw	11
  2635  0BA0  0679               	xorwf	transformADC@k,w
  2636  0BA1  1D03               	btfss	3,2
  2637  0BA2  2BA4               	goto	u4351
  2638  0BA3  2BA5               	goto	u4350
  2639  0BA4                     u4351:
  2640  0BA4  2BBB               	goto	l3957
  2641  0BA5                     u4350:
  2642  0BA5                     l3953:
  2643  0BA5  3002               	movlw	2
  2644  0BA6  1283               	bcf	3,5	;RP0=0, select bank0
  2645  0BA7  1303               	bcf	3,6	;RP1=0, select bank0
  2646  0BA8  00A2               	movwf	??_transformADC
  2647  0BA9  0822               	movf	??_transformADC,w
  2648  0BAA  00F5               	movwf	LCD_cursor@y
  2649  0BAB  3003               	movlw	3
  2650  0BAC  160A  118A  2290  120A  158A  	fcall	_LCD_cursor
  2651  0BB1                     l3955:
  2652  0BB1  3069               	movlw	low (STR_19| (0+32768))
  2653  0BB2  00F4               	movwf	LCD_Wstring@v
  2654  0BB3  3090               	movlw	high (STR_19| (0+32768))
  2655  0BB4  00F5               	movwf	LCD_Wstring@v+1
  2656  0BB5  160A  118A  22B4  120A  158A  	fcall	_LCD_Wstring
  2657  0BBA  2FFF               	goto	l287
  2658  0BBB                     l3957:
  2659  0BBB  300C               	movlw	12
  2660  0BBC  0679               	xorwf	transformADC@k,w
  2661  0BBD  1D03               	btfss	3,2
  2662  0BBE  2BC0               	goto	u4361
  2663  0BBF  2BC1               	goto	u4360
  2664  0BC0                     u4361:
  2665  0BC0  2BD7               	goto	l3963
  2666  0BC1                     u4360:
  2667  0BC1                     l3959:
  2668  0BC1  3002               	movlw	2
  2669  0BC2  1283               	bcf	3,5	;RP0=0, select bank0
  2670  0BC3  1303               	bcf	3,6	;RP1=0, select bank0
  2671  0BC4  00A2               	movwf	??_transformADC
  2672  0BC5  0822               	movf	??_transformADC,w
  2673  0BC6  00F5               	movwf	LCD_cursor@y
  2674  0BC7  3003               	movlw	3
  2675  0BC8  160A  118A  2290  120A  158A  	fcall	_LCD_cursor
  2676  0BCD                     l3961:
  2677  0BCD  30A5               	movlw	low (STR_20| (0+32768))
  2678  0BCE  00F4               	movwf	LCD_Wstring@v
  2679  0BCF  3090               	movlw	high (STR_20| (0+32768))
  2680  0BD0  00F5               	movwf	LCD_Wstring@v+1
  2681  0BD1  160A  118A  22B4  120A  158A  	fcall	_LCD_Wstring
  2682  0BD6  2FFF               	goto	l287
  2683  0BD7                     l3963:
  2684  0BD7  300D               	movlw	13
  2685  0BD8  0679               	xorwf	transformADC@k,w
  2686  0BD9  1D03               	btfss	3,2
  2687  0BDA  2BDC               	goto	u4371
  2688  0BDB  2BDD               	goto	u4370
  2689  0BDC                     u4371:
  2690  0BDC  2BF3               	goto	l3969
  2691  0BDD                     u4370:
  2692  0BDD                     l3965:
  2693  0BDD  3002               	movlw	2
  2694  0BDE  1283               	bcf	3,5	;RP0=0, select bank0
  2695  0BDF  1303               	bcf	3,6	;RP1=0, select bank0
  2696  0BE0  00A2               	movwf	??_transformADC
  2697  0BE1  0822               	movf	??_transformADC,w
  2698  0BE2  00F5               	movwf	LCD_cursor@y
  2699  0BE3  3003               	movlw	3
  2700  0BE4  160A  118A  2290  120A  158A  	fcall	_LCD_cursor
  2701  0BE9                     l3967:
  2702  0BE9  30E1               	movlw	low (STR_21| (0+32768))
  2703  0BEA  00F4               	movwf	LCD_Wstring@v
  2704  0BEB  3090               	movlw	high (STR_21| (0+32768))
  2705  0BEC  00F5               	movwf	LCD_Wstring@v+1
  2706  0BED  160A  118A  22B4  120A  158A  	fcall	_LCD_Wstring
  2707  0BF2  2FFF               	goto	l287
  2708  0BF3                     l3969:
  2709  0BF3  300E               	movlw	14
  2710  0BF4  0679               	xorwf	transformADC@k,w
  2711  0BF5  1D03               	btfss	3,2
  2712  0BF6  2BF8               	goto	u4381
  2713  0BF7  2BF9               	goto	u4380
  2714  0BF8                     u4381:
  2715  0BF8  2C0F               	goto	l3975
  2716  0BF9                     u4380:
  2717  0BF9                     l3971:
  2718  0BF9  3002               	movlw	2
  2719  0BFA  1283               	bcf	3,5	;RP0=0, select bank0
  2720  0BFB  1303               	bcf	3,6	;RP1=0, select bank0
  2721  0BFC  00A2               	movwf	??_transformADC
  2722  0BFD  0822               	movf	??_transformADC,w
  2723  0BFE  00F5               	movwf	LCD_cursor@y
  2724  0BFF  3003               	movlw	3
  2725  0C00  160A  118A  2290  120A  158A  	fcall	_LCD_cursor
  2726  0C05                     l3973:
  2727  0C05  301D               	movlw	low (STR_22| (0+32768))
  2728  0C06  00F4               	movwf	LCD_Wstring@v
  2729  0C07  3091               	movlw	high (STR_22| (0+32768))
  2730  0C08  00F5               	movwf	LCD_Wstring@v+1
  2731  0C09  160A  118A  22B4  120A  158A  	fcall	_LCD_Wstring
  2732  0C0E  2FFF               	goto	l287
  2733  0C0F                     l3975:
  2734  0C0F  300F               	movlw	15
  2735  0C10  0679               	xorwf	transformADC@k,w
  2736  0C11  1D03               	btfss	3,2
  2737  0C12  2C14               	goto	u4391
  2738  0C13  2C15               	goto	u4390
  2739  0C14                     u4391:
  2740  0C14  2C2B               	goto	l3981
  2741  0C15                     u4390:
  2742  0C15                     l3977:
  2743  0C15  3002               	movlw	2
  2744  0C16  1283               	bcf	3,5	;RP0=0, select bank0
  2745  0C17  1303               	bcf	3,6	;RP1=0, select bank0
  2746  0C18  00A2               	movwf	??_transformADC
  2747  0C19  0822               	movf	??_transformADC,w
  2748  0C1A  00F5               	movwf	LCD_cursor@y
  2749  0C1B  3003               	movlw	3
  2750  0C1C  160A  118A  2290  120A  158A  	fcall	_LCD_cursor
  2751  0C21                     l3979:
  2752  0C21  3030               	movlw	low (STR_23| (0+32768))
  2753  0C22  00F4               	movwf	LCD_Wstring@v
  2754  0C23  3090               	movlw	high (STR_23| (0+32768))
  2755  0C24  00F5               	movwf	LCD_Wstring@v+1
  2756  0C25  160A  118A  22B4  120A  158A  	fcall	_LCD_Wstring
  2757  0C2A  2FFF               	goto	l287
  2758  0C2B                     l3981:
  2759  0C2B  3010               	movlw	16
  2760  0C2C  0679               	xorwf	transformADC@k,w
  2761  0C2D  1D03               	btfss	3,2
  2762  0C2E  2C30               	goto	u4401
  2763  0C2F  2C31               	goto	u4400
  2764  0C30                     u4401:
  2765  0C30  2C47               	goto	l3987
  2766  0C31                     u4400:
  2767  0C31                     l3983:
  2768  0C31  3002               	movlw	2
  2769  0C32  1283               	bcf	3,5	;RP0=0, select bank0
  2770  0C33  1303               	bcf	3,6	;RP1=0, select bank0
  2771  0C34  00A2               	movwf	??_transformADC
  2772  0C35  0822               	movf	??_transformADC,w
  2773  0C36  00F5               	movwf	LCD_cursor@y
  2774  0C37  3003               	movlw	3
  2775  0C38  160A  118A  2290  120A  158A  	fcall	_LCD_cursor
  2776  0C3D                     l3985:
  2777  0C3D  306C               	movlw	low (STR_24| (0+32768))
  2778  0C3E  00F4               	movwf	LCD_Wstring@v
  2779  0C3F  3090               	movlw	high (STR_24| (0+32768))
  2780  0C40  00F5               	movwf	LCD_Wstring@v+1
  2781  0C41  160A  118A  22B4  120A  158A  	fcall	_LCD_Wstring
  2782  0C46  2FFF               	goto	l287
  2783  0C47                     l3987:
  2784  0C47  3011               	movlw	17
  2785  0C48  0679               	xorwf	transformADC@k,w
  2786  0C49  1D03               	btfss	3,2
  2787  0C4A  2C4C               	goto	u4411
  2788  0C4B  2C4D               	goto	u4410
  2789  0C4C                     u4411:
  2790  0C4C  2C63               	goto	l3993
  2791  0C4D                     u4410:
  2792  0C4D                     l3989:
  2793  0C4D  3002               	movlw	2
  2794  0C4E  1283               	bcf	3,5	;RP0=0, select bank0
  2795  0C4F  1303               	bcf	3,6	;RP1=0, select bank0
  2796  0C50  00A2               	movwf	??_transformADC
  2797  0C51  0822               	movf	??_transformADC,w
  2798  0C52  00F5               	movwf	LCD_cursor@y
  2799  0C53  3003               	movlw	3
  2800  0C54  160A  118A  2290  120A  158A  	fcall	_LCD_cursor
  2801  0C59                     l3991:
  2802  0C59  30A8               	movlw	low (STR_25| (0+32768))
  2803  0C5A  00F4               	movwf	LCD_Wstring@v
  2804  0C5B  3090               	movlw	high (STR_25| (0+32768))
  2805  0C5C  00F5               	movwf	LCD_Wstring@v+1
  2806  0C5D  160A  118A  22B4  120A  158A  	fcall	_LCD_Wstring
  2807  0C62  2FFF               	goto	l287
  2808  0C63                     l3993:
  2809  0C63  3012               	movlw	18
  2810  0C64  0679               	xorwf	transformADC@k,w
  2811  0C65  1D03               	btfss	3,2
  2812  0C66  2C68               	goto	u4421
  2813  0C67  2C69               	goto	u4420
  2814  0C68                     u4421:
  2815  0C68  2C7F               	goto	l3999
  2816  0C69                     u4420:
  2817  0C69                     l3995:
  2818  0C69  3002               	movlw	2
  2819  0C6A  1283               	bcf	3,5	;RP0=0, select bank0
  2820  0C6B  1303               	bcf	3,6	;RP1=0, select bank0
  2821  0C6C  00A2               	movwf	??_transformADC
  2822  0C6D  0822               	movf	??_transformADC,w
  2823  0C6E  00F5               	movwf	LCD_cursor@y
  2824  0C6F  3003               	movlw	3
  2825  0C70  160A  118A  2290  120A  158A  	fcall	_LCD_cursor
  2826  0C75                     l3997:
  2827  0C75  30E4               	movlw	low (STR_26| (0+32768))
  2828  0C76  00F4               	movwf	LCD_Wstring@v
  2829  0C77  3090               	movlw	high (STR_26| (0+32768))
  2830  0C78  00F5               	movwf	LCD_Wstring@v+1
  2831  0C79  160A  118A  22B4  120A  158A  	fcall	_LCD_Wstring
  2832  0C7E  2FFF               	goto	l287
  2833  0C7F                     l3999:
  2834  0C7F  3013               	movlw	19
  2835  0C80  0679               	xorwf	transformADC@k,w
  2836  0C81  1D03               	btfss	3,2
  2837  0C82  2C84               	goto	u4431
  2838  0C83  2C85               	goto	u4430
  2839  0C84                     u4431:
  2840  0C84  2C9B               	goto	l4005
  2841  0C85                     u4430:
  2842  0C85                     l4001:
  2843  0C85  3002               	movlw	2
  2844  0C86  1283               	bcf	3,5	;RP0=0, select bank0
  2845  0C87  1303               	bcf	3,6	;RP1=0, select bank0
  2846  0C88  00A2               	movwf	??_transformADC
  2847  0C89  0822               	movf	??_transformADC,w
  2848  0C8A  00F5               	movwf	LCD_cursor@y
  2849  0C8B  3003               	movlw	3
  2850  0C8C  160A  118A  2290  120A  158A  	fcall	_LCD_cursor
  2851  0C91                     l4003:
  2852  0C91  3020               	movlw	low (STR_27| (0+32768))
  2853  0C92  00F4               	movwf	LCD_Wstring@v
  2854  0C93  3091               	movlw	high (STR_27| (0+32768))
  2855  0C94  00F5               	movwf	LCD_Wstring@v+1
  2856  0C95  160A  118A  22B4  120A  158A  	fcall	_LCD_Wstring
  2857  0C9A  2FFF               	goto	l287
  2858  0C9B                     l4005:
  2859  0C9B  3014               	movlw	20
  2860  0C9C  0679               	xorwf	transformADC@k,w
  2861  0C9D  1D03               	btfss	3,2
  2862  0C9E  2CA0               	goto	u4441
  2863  0C9F  2CA1               	goto	u4440
  2864  0CA0                     u4441:
  2865  0CA0  2CB7               	goto	l4011
  2866  0CA1                     u4440:
  2867  0CA1                     l4007:
  2868  0CA1  3002               	movlw	2
  2869  0CA2  1283               	bcf	3,5	;RP0=0, select bank0
  2870  0CA3  1303               	bcf	3,6	;RP1=0, select bank0
  2871  0CA4  00A2               	movwf	??_transformADC
  2872  0CA5  0822               	movf	??_transformADC,w
  2873  0CA6  00F5               	movwf	LCD_cursor@y
  2874  0CA7  3003               	movlw	3
  2875  0CA8  160A  118A  2290  120A  158A  	fcall	_LCD_cursor
  2876  0CAD                     l4009:
  2877  0CAD  3033               	movlw	low (STR_28| (0+32768))
  2878  0CAE  00F4               	movwf	LCD_Wstring@v
  2879  0CAF  3090               	movlw	high (STR_28| (0+32768))
  2880  0CB0  00F5               	movwf	LCD_Wstring@v+1
  2881  0CB1  160A  118A  22B4  120A  158A  	fcall	_LCD_Wstring
  2882  0CB6  2FFF               	goto	l287
  2883  0CB7                     l4011:
  2884  0CB7  3015               	movlw	21
  2885  0CB8  0679               	xorwf	transformADC@k,w
  2886  0CB9  1D03               	btfss	3,2
  2887  0CBA  2CBC               	goto	u4451
  2888  0CBB  2CBD               	goto	u4450
  2889  0CBC                     u4451:
  2890  0CBC  2CD3               	goto	l4017
  2891  0CBD                     u4450:
  2892  0CBD                     l4013:
  2893  0CBD  3002               	movlw	2
  2894  0CBE  1283               	bcf	3,5	;RP0=0, select bank0
  2895  0CBF  1303               	bcf	3,6	;RP1=0, select bank0
  2896  0CC0  00A2               	movwf	??_transformADC
  2897  0CC1  0822               	movf	??_transformADC,w
  2898  0CC2  00F5               	movwf	LCD_cursor@y
  2899  0CC3  3003               	movlw	3
  2900  0CC4  160A  118A  2290  120A  158A  	fcall	_LCD_cursor
  2901  0CC9                     l4015:
  2902  0CC9  306F               	movlw	low (STR_29| (0+32768))
  2903  0CCA  00F4               	movwf	LCD_Wstring@v
  2904  0CCB  3090               	movlw	high (STR_29| (0+32768))
  2905  0CCC  00F5               	movwf	LCD_Wstring@v+1
  2906  0CCD  160A  118A  22B4  120A  158A  	fcall	_LCD_Wstring
  2907  0CD2  2FFF               	goto	l287
  2908  0CD3                     l4017:
  2909  0CD3  3016               	movlw	22
  2910  0CD4  0679               	xorwf	transformADC@k,w
  2911  0CD5  1D03               	btfss	3,2
  2912  0CD6  2CD8               	goto	u4461
  2913  0CD7  2CD9               	goto	u4460
  2914  0CD8                     u4461:
  2915  0CD8  2CEF               	goto	l4023
  2916  0CD9                     u4460:
  2917  0CD9                     l4019:
  2918  0CD9  3002               	movlw	2
  2919  0CDA  1283               	bcf	3,5	;RP0=0, select bank0
  2920  0CDB  1303               	bcf	3,6	;RP1=0, select bank0
  2921  0CDC  00A2               	movwf	??_transformADC
  2922  0CDD  0822               	movf	??_transformADC,w
  2923  0CDE  00F5               	movwf	LCD_cursor@y
  2924  0CDF  3003               	movlw	3
  2925  0CE0  160A  118A  2290  120A  158A  	fcall	_LCD_cursor
  2926  0CE5                     l4021:
  2927  0CE5  30AB               	movlw	low (STR_30| (0+32768))
  2928  0CE6  00F4               	movwf	LCD_Wstring@v
  2929  0CE7  3090               	movlw	high (STR_30| (0+32768))
  2930  0CE8  00F5               	movwf	LCD_Wstring@v+1
  2931  0CE9  160A  118A  22B4  120A  158A  	fcall	_LCD_Wstring
  2932  0CEE  2FFF               	goto	l287
  2933  0CEF                     l4023:
  2934  0CEF  3017               	movlw	23
  2935  0CF0  0679               	xorwf	transformADC@k,w
  2936  0CF1  1D03               	btfss	3,2
  2937  0CF2  2CF4               	goto	u4471
  2938  0CF3  2CF5               	goto	u4470
  2939  0CF4                     u4471:
  2940  0CF4  2D0B               	goto	l4029
  2941  0CF5                     u4470:
  2942  0CF5                     l4025:
  2943  0CF5  3002               	movlw	2
  2944  0CF6  1283               	bcf	3,5	;RP0=0, select bank0
  2945  0CF7  1303               	bcf	3,6	;RP1=0, select bank0
  2946  0CF8  00A2               	movwf	??_transformADC
  2947  0CF9  0822               	movf	??_transformADC,w
  2948  0CFA  00F5               	movwf	LCD_cursor@y
  2949  0CFB  3003               	movlw	3
  2950  0CFC  160A  118A  2290  120A  158A  	fcall	_LCD_cursor
  2951  0D01                     l4027:
  2952  0D01  30E7               	movlw	low (STR_31| (0+32768))
  2953  0D02  00F4               	movwf	LCD_Wstring@v
  2954  0D03  3090               	movlw	high (STR_31| (0+32768))
  2955  0D04  00F5               	movwf	LCD_Wstring@v+1
  2956  0D05  160A  118A  22B4  120A  158A  	fcall	_LCD_Wstring
  2957  0D0A  2FFF               	goto	l287
  2958  0D0B                     l4029:
  2959  0D0B  3018               	movlw	24
  2960  0D0C  0679               	xorwf	transformADC@k,w
  2961  0D0D  1D03               	btfss	3,2
  2962  0D0E  2D10               	goto	u4481
  2963  0D0F  2D11               	goto	u4480
  2964  0D10                     u4481:
  2965  0D10  2D27               	goto	l4035
  2966  0D11                     u4480:
  2967  0D11                     l4031:
  2968  0D11  3002               	movlw	2
  2969  0D12  1283               	bcf	3,5	;RP0=0, select bank0
  2970  0D13  1303               	bcf	3,6	;RP1=0, select bank0
  2971  0D14  00A2               	movwf	??_transformADC
  2972  0D15  0822               	movf	??_transformADC,w
  2973  0D16  00F5               	movwf	LCD_cursor@y
  2974  0D17  3003               	movlw	3
  2975  0D18  160A  118A  2290  120A  158A  	fcall	_LCD_cursor
  2976  0D1D                     l4033:
  2977  0D1D  3023               	movlw	low (STR_32| (0+32768))
  2978  0D1E  00F4               	movwf	LCD_Wstring@v
  2979  0D1F  3091               	movlw	high (STR_32| (0+32768))
  2980  0D20  00F5               	movwf	LCD_Wstring@v+1
  2981  0D21  160A  118A  22B4  120A  158A  	fcall	_LCD_Wstring
  2982  0D26  2FFF               	goto	l287
  2983  0D27                     l4035:
  2984  0D27  3019               	movlw	25
  2985  0D28  0679               	xorwf	transformADC@k,w
  2986  0D29  1D03               	btfss	3,2
  2987  0D2A  2D2C               	goto	u4491
  2988  0D2B  2D2D               	goto	u4490
  2989  0D2C                     u4491:
  2990  0D2C  2D43               	goto	l4041
  2991  0D2D                     u4490:
  2992  0D2D                     l4037:
  2993  0D2D  3002               	movlw	2
  2994  0D2E  1283               	bcf	3,5	;RP0=0, select bank0
  2995  0D2F  1303               	bcf	3,6	;RP1=0, select bank0
  2996  0D30  00A2               	movwf	??_transformADC
  2997  0D31  0822               	movf	??_transformADC,w
  2998  0D32  00F5               	movwf	LCD_cursor@y
  2999  0D33  3003               	movlw	3
  3000  0D34  160A  118A  2290  120A  158A  	fcall	_LCD_cursor
  3001  0D39                     l4039:
  3002  0D39  3036               	movlw	low (STR_33| (0+32768))
  3003  0D3A  00F4               	movwf	LCD_Wstring@v
  3004  0D3B  3090               	movlw	high (STR_33| (0+32768))
  3005  0D3C  00F5               	movwf	LCD_Wstring@v+1
  3006  0D3D  160A  118A  22B4  120A  158A  	fcall	_LCD_Wstring
  3007  0D42  2FFF               	goto	l287
  3008  0D43                     l4041:
  3009  0D43  301A               	movlw	26
  3010  0D44  0679               	xorwf	transformADC@k,w
  3011  0D45  1D03               	btfss	3,2
  3012  0D46  2D48               	goto	u4501
  3013  0D47  2D49               	goto	u4500
  3014  0D48                     u4501:
  3015  0D48  2D5F               	goto	l4047
  3016  0D49                     u4500:
  3017  0D49                     l4043:
  3018  0D49  3002               	movlw	2
  3019  0D4A  1283               	bcf	3,5	;RP0=0, select bank0
  3020  0D4B  1303               	bcf	3,6	;RP1=0, select bank0
  3021  0D4C  00A2               	movwf	??_transformADC
  3022  0D4D  0822               	movf	??_transformADC,w
  3023  0D4E  00F5               	movwf	LCD_cursor@y
  3024  0D4F  3003               	movlw	3
  3025  0D50  160A  118A  2290  120A  158A  	fcall	_LCD_cursor
  3026  0D55                     l4045:
  3027  0D55  3072               	movlw	low (STR_34| (0+32768))
  3028  0D56  00F4               	movwf	LCD_Wstring@v
  3029  0D57  3090               	movlw	high (STR_34| (0+32768))
  3030  0D58  00F5               	movwf	LCD_Wstring@v+1
  3031  0D59  160A  118A  22B4  120A  158A  	fcall	_LCD_Wstring
  3032  0D5E  2FFF               	goto	l287
  3033  0D5F                     l4047:
  3034  0D5F  301B               	movlw	27
  3035  0D60  0679               	xorwf	transformADC@k,w
  3036  0D61  1D03               	btfss	3,2
  3037  0D62  2D64               	goto	u4511
  3038  0D63  2D65               	goto	u4510
  3039  0D64                     u4511:
  3040  0D64  2D7B               	goto	l4053
  3041  0D65                     u4510:
  3042  0D65                     l4049:
  3043  0D65  3002               	movlw	2
  3044  0D66  1283               	bcf	3,5	;RP0=0, select bank0
  3045  0D67  1303               	bcf	3,6	;RP1=0, select bank0
  3046  0D68  00A2               	movwf	??_transformADC
  3047  0D69  0822               	movf	??_transformADC,w
  3048  0D6A  00F5               	movwf	LCD_cursor@y
  3049  0D6B  3003               	movlw	3
  3050  0D6C  160A  118A  2290  120A  158A  	fcall	_LCD_cursor
  3051  0D71                     l4051:
  3052  0D71  30AE               	movlw	low (STR_35| (0+32768))
  3053  0D72  00F4               	movwf	LCD_Wstring@v
  3054  0D73  3090               	movlw	high (STR_35| (0+32768))
  3055  0D74  00F5               	movwf	LCD_Wstring@v+1
  3056  0D75  160A  118A  22B4  120A  158A  	fcall	_LCD_Wstring
  3057  0D7A  2FFF               	goto	l287
  3058  0D7B                     l4053:
  3059  0D7B  301C               	movlw	28
  3060  0D7C  0679               	xorwf	transformADC@k,w
  3061  0D7D  1D03               	btfss	3,2
  3062  0D7E  2D80               	goto	u4521
  3063  0D7F  2D81               	goto	u4520
  3064  0D80                     u4521:
  3065  0D80  2D97               	goto	l4059
  3066  0D81                     u4520:
  3067  0D81                     l4055:
  3068  0D81  3002               	movlw	2
  3069  0D82  1283               	bcf	3,5	;RP0=0, select bank0
  3070  0D83  1303               	bcf	3,6	;RP1=0, select bank0
  3071  0D84  00A2               	movwf	??_transformADC
  3072  0D85  0822               	movf	??_transformADC,w
  3073  0D86  00F5               	movwf	LCD_cursor@y
  3074  0D87  3003               	movlw	3
  3075  0D88  160A  118A  2290  120A  158A  	fcall	_LCD_cursor
  3076  0D8D                     l4057:
  3077  0D8D  30EA               	movlw	low (STR_36| (0+32768))
  3078  0D8E  00F4               	movwf	LCD_Wstring@v
  3079  0D8F  3090               	movlw	high (STR_36| (0+32768))
  3080  0D90  00F5               	movwf	LCD_Wstring@v+1
  3081  0D91  160A  118A  22B4  120A  158A  	fcall	_LCD_Wstring
  3082  0D96  2FFF               	goto	l287
  3083  0D97                     l4059:
  3084  0D97  301D               	movlw	29
  3085  0D98  0679               	xorwf	transformADC@k,w
  3086  0D99  1D03               	btfss	3,2
  3087  0D9A  2D9C               	goto	u4531
  3088  0D9B  2D9D               	goto	u4530
  3089  0D9C                     u4531:
  3090  0D9C  2DB3               	goto	l4065
  3091  0D9D                     u4530:
  3092  0D9D                     l4061:
  3093  0D9D  3002               	movlw	2
  3094  0D9E  1283               	bcf	3,5	;RP0=0, select bank0
  3095  0D9F  1303               	bcf	3,6	;RP1=0, select bank0
  3096  0DA0  00A2               	movwf	??_transformADC
  3097  0DA1  0822               	movf	??_transformADC,w
  3098  0DA2  00F5               	movwf	LCD_cursor@y
  3099  0DA3  3003               	movlw	3
  3100  0DA4  160A  118A  2290  120A  158A  	fcall	_LCD_cursor
  3101  0DA9                     l4063:
  3102  0DA9  3026               	movlw	low (STR_37| (0+32768))
  3103  0DAA  00F4               	movwf	LCD_Wstring@v
  3104  0DAB  3091               	movlw	high (STR_37| (0+32768))
  3105  0DAC  00F5               	movwf	LCD_Wstring@v+1
  3106  0DAD  160A  118A  22B4  120A  158A  	fcall	_LCD_Wstring
  3107  0DB2  2FFF               	goto	l287
  3108  0DB3                     l4065:
  3109  0DB3  301E               	movlw	30
  3110  0DB4  0679               	xorwf	transformADC@k,w
  3111  0DB5  1D03               	btfss	3,2
  3112  0DB6  2DB8               	goto	u4541
  3113  0DB7  2DB9               	goto	u4540
  3114  0DB8                     u4541:
  3115  0DB8  2DCF               	goto	l4071
  3116  0DB9                     u4540:
  3117  0DB9                     l4067:
  3118  0DB9  3002               	movlw	2
  3119  0DBA  1283               	bcf	3,5	;RP0=0, select bank0
  3120  0DBB  1303               	bcf	3,6	;RP1=0, select bank0
  3121  0DBC  00A2               	movwf	??_transformADC
  3122  0DBD  0822               	movf	??_transformADC,w
  3123  0DBE  00F5               	movwf	LCD_cursor@y
  3124  0DBF  3003               	movlw	3
  3125  0DC0  160A  118A  2290  120A  158A  	fcall	_LCD_cursor
  3126  0DC5                     l4069:
  3127  0DC5  3039               	movlw	low (STR_38| (0+32768))
  3128  0DC6  00F4               	movwf	LCD_Wstring@v
  3129  0DC7  3090               	movlw	high (STR_38| (0+32768))
  3130  0DC8  00F5               	movwf	LCD_Wstring@v+1
  3131  0DC9  160A  118A  22B4  120A  158A  	fcall	_LCD_Wstring
  3132  0DCE  2FFF               	goto	l287
  3133  0DCF                     l4071:
  3134  0DCF  301F               	movlw	31
  3135  0DD0  0679               	xorwf	transformADC@k,w
  3136  0DD1  1D03               	btfss	3,2
  3137  0DD2  2DD4               	goto	u4551
  3138  0DD3  2DD5               	goto	u4550
  3139  0DD4                     u4551:
  3140  0DD4  2DEB               	goto	l4077
  3141  0DD5                     u4550:
  3142  0DD5                     l4073:
  3143  0DD5  3002               	movlw	2
  3144  0DD6  1283               	bcf	3,5	;RP0=0, select bank0
  3145  0DD7  1303               	bcf	3,6	;RP1=0, select bank0
  3146  0DD8  00A2               	movwf	??_transformADC
  3147  0DD9  0822               	movf	??_transformADC,w
  3148  0DDA  00F5               	movwf	LCD_cursor@y
  3149  0DDB  3003               	movlw	3
  3150  0DDC  160A  118A  2290  120A  158A  	fcall	_LCD_cursor
  3151  0DE1                     l4075:
  3152  0DE1  3075               	movlw	low (STR_39| (0+32768))
  3153  0DE2  00F4               	movwf	LCD_Wstring@v
  3154  0DE3  3090               	movlw	high (STR_39| (0+32768))
  3155  0DE4  00F5               	movwf	LCD_Wstring@v+1
  3156  0DE5  160A  118A  22B4  120A  158A  	fcall	_LCD_Wstring
  3157  0DEA  2FFF               	goto	l287
  3158  0DEB                     l4077:
  3159  0DEB  3020               	movlw	32
  3160  0DEC  0679               	xorwf	transformADC@k,w
  3161  0DED  1D03               	btfss	3,2
  3162  0DEE  2DF0               	goto	u4561
  3163  0DEF  2DF1               	goto	u4560
  3164  0DF0                     u4561:
  3165  0DF0  2E07               	goto	l4083
  3166  0DF1                     u4560:
  3167  0DF1                     l4079:
  3168  0DF1  3002               	movlw	2
  3169  0DF2  1283               	bcf	3,5	;RP0=0, select bank0
  3170  0DF3  1303               	bcf	3,6	;RP1=0, select bank0
  3171  0DF4  00A2               	movwf	??_transformADC
  3172  0DF5  0822               	movf	??_transformADC,w
  3173  0DF6  00F5               	movwf	LCD_cursor@y
  3174  0DF7  3003               	movlw	3
  3175  0DF8  160A  118A  2290  120A  158A  	fcall	_LCD_cursor
  3176  0DFD                     l4081:
  3177  0DFD  30B1               	movlw	low (STR_40| (0+32768))
  3178  0DFE  00F4               	movwf	LCD_Wstring@v
  3179  0DFF  3090               	movlw	high (STR_40| (0+32768))
  3180  0E00  00F5               	movwf	LCD_Wstring@v+1
  3181  0E01  160A  118A  22B4  120A  158A  	fcall	_LCD_Wstring
  3182  0E06  2FFF               	goto	l287
  3183  0E07                     l4083:
  3184  0E07  3021               	movlw	33
  3185  0E08  0679               	xorwf	transformADC@k,w
  3186  0E09  1D03               	btfss	3,2
  3187  0E0A  2E0C               	goto	u4571
  3188  0E0B  2E0D               	goto	u4570
  3189  0E0C                     u4571:
  3190  0E0C  2E23               	goto	l4089
  3191  0E0D                     u4570:
  3192  0E0D                     l4085:
  3193  0E0D  3002               	movlw	2
  3194  0E0E  1283               	bcf	3,5	;RP0=0, select bank0
  3195  0E0F  1303               	bcf	3,6	;RP1=0, select bank0
  3196  0E10  00A2               	movwf	??_transformADC
  3197  0E11  0822               	movf	??_transformADC,w
  3198  0E12  00F5               	movwf	LCD_cursor@y
  3199  0E13  3003               	movlw	3
  3200  0E14  160A  118A  2290  120A  158A  	fcall	_LCD_cursor
  3201  0E19                     l4087:
  3202  0E19  30ED               	movlw	low (STR_41| (0+32768))
  3203  0E1A  00F4               	movwf	LCD_Wstring@v
  3204  0E1B  3090               	movlw	high (STR_41| (0+32768))
  3205  0E1C  00F5               	movwf	LCD_Wstring@v+1
  3206  0E1D  160A  118A  22B4  120A  158A  	fcall	_LCD_Wstring
  3207  0E22  2FFF               	goto	l287
  3208  0E23                     l4089:
  3209  0E23  3022               	movlw	34
  3210  0E24  0679               	xorwf	transformADC@k,w
  3211  0E25  1D03               	btfss	3,2
  3212  0E26  2E28               	goto	u4581
  3213  0E27  2E29               	goto	u4580
  3214  0E28                     u4581:
  3215  0E28  2E3F               	goto	l4095
  3216  0E29                     u4580:
  3217  0E29                     l4091:
  3218  0E29  3002               	movlw	2
  3219  0E2A  1283               	bcf	3,5	;RP0=0, select bank0
  3220  0E2B  1303               	bcf	3,6	;RP1=0, select bank0
  3221  0E2C  00A2               	movwf	??_transformADC
  3222  0E2D  0822               	movf	??_transformADC,w
  3223  0E2E  00F5               	movwf	LCD_cursor@y
  3224  0E2F  3003               	movlw	3
  3225  0E30  160A  118A  2290  120A  158A  	fcall	_LCD_cursor
  3226  0E35                     l4093:
  3227  0E35  3029               	movlw	low (STR_42| (0+32768))
  3228  0E36  00F4               	movwf	LCD_Wstring@v
  3229  0E37  3091               	movlw	high (STR_42| (0+32768))
  3230  0E38  00F5               	movwf	LCD_Wstring@v+1
  3231  0E39  160A  118A  22B4  120A  158A  	fcall	_LCD_Wstring
  3232  0E3E  2FFF               	goto	l287
  3233  0E3F                     l4095:
  3234  0E3F  3023               	movlw	35
  3235  0E40  0679               	xorwf	transformADC@k,w
  3236  0E41  1D03               	btfss	3,2
  3237  0E42  2E44               	goto	u4591
  3238  0E43  2E45               	goto	u4590
  3239  0E44                     u4591:
  3240  0E44  2E5B               	goto	l4101
  3241  0E45                     u4590:
  3242  0E45                     l4097:
  3243  0E45  3002               	movlw	2
  3244  0E46  1283               	bcf	3,5	;RP0=0, select bank0
  3245  0E47  1303               	bcf	3,6	;RP1=0, select bank0
  3246  0E48  00A2               	movwf	??_transformADC
  3247  0E49  0822               	movf	??_transformADC,w
  3248  0E4A  00F5               	movwf	LCD_cursor@y
  3249  0E4B  3003               	movlw	3
  3250  0E4C  160A  118A  2290  120A  158A  	fcall	_LCD_cursor
  3251  0E51                     l4099:
  3252  0E51  303C               	movlw	low (STR_43| (0+32768))
  3253  0E52  00F4               	movwf	LCD_Wstring@v
  3254  0E53  3090               	movlw	high (STR_43| (0+32768))
  3255  0E54  00F5               	movwf	LCD_Wstring@v+1
  3256  0E55  160A  118A  22B4  120A  158A  	fcall	_LCD_Wstring
  3257  0E5A  2FFF               	goto	l287
  3258  0E5B                     l4101:
  3259  0E5B  3024               	movlw	36
  3260  0E5C  0679               	xorwf	transformADC@k,w
  3261  0E5D  1D03               	btfss	3,2
  3262  0E5E  2E60               	goto	u4601
  3263  0E5F  2E61               	goto	u4600
  3264  0E60                     u4601:
  3265  0E60  2E77               	goto	l4107
  3266  0E61                     u4600:
  3267  0E61                     l4103:
  3268  0E61  3002               	movlw	2
  3269  0E62  1283               	bcf	3,5	;RP0=0, select bank0
  3270  0E63  1303               	bcf	3,6	;RP1=0, select bank0
  3271  0E64  00A2               	movwf	??_transformADC
  3272  0E65  0822               	movf	??_transformADC,w
  3273  0E66  00F5               	movwf	LCD_cursor@y
  3274  0E67  3003               	movlw	3
  3275  0E68  160A  118A  2290  120A  158A  	fcall	_LCD_cursor
  3276  0E6D                     l4105:
  3277  0E6D  3078               	movlw	low (STR_44| (0+32768))
  3278  0E6E  00F4               	movwf	LCD_Wstring@v
  3279  0E6F  3090               	movlw	high (STR_44| (0+32768))
  3280  0E70  00F5               	movwf	LCD_Wstring@v+1
  3281  0E71  160A  118A  22B4  120A  158A  	fcall	_LCD_Wstring
  3282  0E76  2FFF               	goto	l287
  3283  0E77                     l4107:
  3284  0E77  3025               	movlw	37
  3285  0E78  0679               	xorwf	transformADC@k,w
  3286  0E79  1D03               	btfss	3,2
  3287  0E7A  2E7C               	goto	u4611
  3288  0E7B  2E7D               	goto	u4610
  3289  0E7C                     u4611:
  3290  0E7C  2E93               	goto	l4113
  3291  0E7D                     u4610:
  3292  0E7D                     l4109:
  3293  0E7D  3002               	movlw	2
  3294  0E7E  1283               	bcf	3,5	;RP0=0, select bank0
  3295  0E7F  1303               	bcf	3,6	;RP1=0, select bank0
  3296  0E80  00A2               	movwf	??_transformADC
  3297  0E81  0822               	movf	??_transformADC,w
  3298  0E82  00F5               	movwf	LCD_cursor@y
  3299  0E83  3003               	movlw	3
  3300  0E84  160A  118A  2290  120A  158A  	fcall	_LCD_cursor
  3301  0E89                     l4111:
  3302  0E89  30B4               	movlw	low (STR_45| (0+32768))
  3303  0E8A  00F4               	movwf	LCD_Wstring@v
  3304  0E8B  3090               	movlw	high (STR_45| (0+32768))
  3305  0E8C  00F5               	movwf	LCD_Wstring@v+1
  3306  0E8D  160A  118A  22B4  120A  158A  	fcall	_LCD_Wstring
  3307  0E92  2FFF               	goto	l287
  3308  0E93                     l4113:
  3309  0E93  3026               	movlw	38
  3310  0E94  0679               	xorwf	transformADC@k,w
  3311  0E95  1D03               	btfss	3,2
  3312  0E96  2E98               	goto	u4621
  3313  0E97  2E99               	goto	u4620
  3314  0E98                     u4621:
  3315  0E98  2EAF               	goto	l4119
  3316  0E99                     u4620:
  3317  0E99                     l4115:
  3318  0E99  3002               	movlw	2
  3319  0E9A  1283               	bcf	3,5	;RP0=0, select bank0
  3320  0E9B  1303               	bcf	3,6	;RP1=0, select bank0
  3321  0E9C  00A2               	movwf	??_transformADC
  3322  0E9D  0822               	movf	??_transformADC,w
  3323  0E9E  00F5               	movwf	LCD_cursor@y
  3324  0E9F  3003               	movlw	3
  3325  0EA0  160A  118A  2290  120A  158A  	fcall	_LCD_cursor
  3326  0EA5                     l4117:
  3327  0EA5  30F0               	movlw	low (STR_46| (0+32768))
  3328  0EA6  00F4               	movwf	LCD_Wstring@v
  3329  0EA7  3090               	movlw	high (STR_46| (0+32768))
  3330  0EA8  00F5               	movwf	LCD_Wstring@v+1
  3331  0EA9  160A  118A  22B4  120A  158A  	fcall	_LCD_Wstring
  3332  0EAE  2FFF               	goto	l287
  3333  0EAF                     l4119:
  3334  0EAF  3027               	movlw	39
  3335  0EB0  0679               	xorwf	transformADC@k,w
  3336  0EB1  1D03               	btfss	3,2
  3337  0EB2  2EB4               	goto	u4631
  3338  0EB3  2EB5               	goto	u4630
  3339  0EB4                     u4631:
  3340  0EB4  2ECB               	goto	l4125
  3341  0EB5                     u4630:
  3342  0EB5                     l4121:
  3343  0EB5  3002               	movlw	2
  3344  0EB6  1283               	bcf	3,5	;RP0=0, select bank0
  3345  0EB7  1303               	bcf	3,6	;RP1=0, select bank0
  3346  0EB8  00A2               	movwf	??_transformADC
  3347  0EB9  0822               	movf	??_transformADC,w
  3348  0EBA  00F5               	movwf	LCD_cursor@y
  3349  0EBB  3003               	movlw	3
  3350  0EBC  160A  118A  2290  120A  158A  	fcall	_LCD_cursor
  3351  0EC1                     l4123:
  3352  0EC1  302C               	movlw	low (STR_47| (0+32768))
  3353  0EC2  00F4               	movwf	LCD_Wstring@v
  3354  0EC3  3091               	movlw	high (STR_47| (0+32768))
  3355  0EC4  00F5               	movwf	LCD_Wstring@v+1
  3356  0EC5  160A  118A  22B4  120A  158A  	fcall	_LCD_Wstring
  3357  0ECA  2FFF               	goto	l287
  3358  0ECB                     l4125:
  3359  0ECB  3028               	movlw	40
  3360  0ECC  0679               	xorwf	transformADC@k,w
  3361  0ECD  1D03               	btfss	3,2
  3362  0ECE  2ED0               	goto	u4641
  3363  0ECF  2ED1               	goto	u4640
  3364  0ED0                     u4641:
  3365  0ED0  2EE7               	goto	l4131
  3366  0ED1                     u4640:
  3367  0ED1                     l4127:
  3368  0ED1  3002               	movlw	2
  3369  0ED2  1283               	bcf	3,5	;RP0=0, select bank0
  3370  0ED3  1303               	bcf	3,6	;RP1=0, select bank0
  3371  0ED4  00A2               	movwf	??_transformADC
  3372  0ED5  0822               	movf	??_transformADC,w
  3373  0ED6  00F5               	movwf	LCD_cursor@y
  3374  0ED7  3003               	movlw	3
  3375  0ED8  160A  118A  2290  120A  158A  	fcall	_LCD_cursor
  3376  0EDD                     l4129:
  3377  0EDD  303F               	movlw	low (STR_48| (0+32768))
  3378  0EDE  00F4               	movwf	LCD_Wstring@v
  3379  0EDF  3090               	movlw	high (STR_48| (0+32768))
  3380  0EE0  00F5               	movwf	LCD_Wstring@v+1
  3381  0EE1  160A  118A  22B4  120A  158A  	fcall	_LCD_Wstring
  3382  0EE6  2FFF               	goto	l287
  3383  0EE7                     l4131:
  3384  0EE7  3029               	movlw	41
  3385  0EE8  0679               	xorwf	transformADC@k,w
  3386  0EE9  1D03               	btfss	3,2
  3387  0EEA  2EEC               	goto	u4651
  3388  0EEB  2EED               	goto	u4650
  3389  0EEC                     u4651:
  3390  0EEC  2F03               	goto	l4137
  3391  0EED                     u4650:
  3392  0EED                     l4133:
  3393  0EED  3002               	movlw	2
  3394  0EEE  1283               	bcf	3,5	;RP0=0, select bank0
  3395  0EEF  1303               	bcf	3,6	;RP1=0, select bank0
  3396  0EF0  00A2               	movwf	??_transformADC
  3397  0EF1  0822               	movf	??_transformADC,w
  3398  0EF2  00F5               	movwf	LCD_cursor@y
  3399  0EF3  3003               	movlw	3
  3400  0EF4  160A  118A  2290  120A  158A  	fcall	_LCD_cursor
  3401  0EF9                     l4135:
  3402  0EF9  307B               	movlw	low (STR_49| (0+32768))
  3403  0EFA  00F4               	movwf	LCD_Wstring@v
  3404  0EFB  3090               	movlw	high (STR_49| (0+32768))
  3405  0EFC  00F5               	movwf	LCD_Wstring@v+1
  3406  0EFD  160A  118A  22B4  120A  158A  	fcall	_LCD_Wstring
  3407  0F02  2FFF               	goto	l287
  3408  0F03                     l4137:
  3409  0F03  302A               	movlw	42
  3410  0F04  0679               	xorwf	transformADC@k,w
  3411  0F05  1D03               	btfss	3,2
  3412  0F06  2F08               	goto	u4661
  3413  0F07  2F09               	goto	u4660
  3414  0F08                     u4661:
  3415  0F08  2F1F               	goto	l4143
  3416  0F09                     u4660:
  3417  0F09                     l4139:
  3418  0F09  3002               	movlw	2
  3419  0F0A  1283               	bcf	3,5	;RP0=0, select bank0
  3420  0F0B  1303               	bcf	3,6	;RP1=0, select bank0
  3421  0F0C  00A2               	movwf	??_transformADC
  3422  0F0D  0822               	movf	??_transformADC,w
  3423  0F0E  00F5               	movwf	LCD_cursor@y
  3424  0F0F  3003               	movlw	3
  3425  0F10  160A  118A  2290  120A  158A  	fcall	_LCD_cursor
  3426  0F15                     l4141:
  3427  0F15  30B7               	movlw	low (STR_50| (0+32768))
  3428  0F16  00F4               	movwf	LCD_Wstring@v
  3429  0F17  3090               	movlw	high (STR_50| (0+32768))
  3430  0F18  00F5               	movwf	LCD_Wstring@v+1
  3431  0F19  160A  118A  22B4  120A  158A  	fcall	_LCD_Wstring
  3432  0F1E  2FFF               	goto	l287
  3433  0F1F                     l4143:
  3434  0F1F  302B               	movlw	43
  3435  0F20  0679               	xorwf	transformADC@k,w
  3436  0F21  1D03               	btfss	3,2
  3437  0F22  2F24               	goto	u4671
  3438  0F23  2F25               	goto	u4670
  3439  0F24                     u4671:
  3440  0F24  2F3B               	goto	l4149
  3441  0F25                     u4670:
  3442  0F25                     l4145:
  3443  0F25  3002               	movlw	2
  3444  0F26  1283               	bcf	3,5	;RP0=0, select bank0
  3445  0F27  1303               	bcf	3,6	;RP1=0, select bank0
  3446  0F28  00A2               	movwf	??_transformADC
  3447  0F29  0822               	movf	??_transformADC,w
  3448  0F2A  00F5               	movwf	LCD_cursor@y
  3449  0F2B  3003               	movlw	3
  3450  0F2C  160A  118A  2290  120A  158A  	fcall	_LCD_cursor
  3451  0F31                     l4147:
  3452  0F31  30F3               	movlw	low (STR_51| (0+32768))
  3453  0F32  00F4               	movwf	LCD_Wstring@v
  3454  0F33  3090               	movlw	high (STR_51| (0+32768))
  3455  0F34  00F5               	movwf	LCD_Wstring@v+1
  3456  0F35  160A  118A  22B4  120A  158A  	fcall	_LCD_Wstring
  3457  0F3A  2FFF               	goto	l287
  3458  0F3B                     l4149:
  3459  0F3B  302C               	movlw	44
  3460  0F3C  0679               	xorwf	transformADC@k,w
  3461  0F3D  1D03               	btfss	3,2
  3462  0F3E  2F40               	goto	u4681
  3463  0F3F  2F41               	goto	u4680
  3464  0F40                     u4681:
  3465  0F40  2F57               	goto	l4155
  3466  0F41                     u4680:
  3467  0F41                     l4151:
  3468  0F41  3002               	movlw	2
  3469  0F42  1283               	bcf	3,5	;RP0=0, select bank0
  3470  0F43  1303               	bcf	3,6	;RP1=0, select bank0
  3471  0F44  00A2               	movwf	??_transformADC
  3472  0F45  0822               	movf	??_transformADC,w
  3473  0F46  00F5               	movwf	LCD_cursor@y
  3474  0F47  3003               	movlw	3
  3475  0F48  160A  118A  2290  120A  158A  	fcall	_LCD_cursor
  3476  0F4D                     l4153:
  3477  0F4D  302F               	movlw	low (STR_52| (0+32768))
  3478  0F4E  00F4               	movwf	LCD_Wstring@v
  3479  0F4F  3091               	movlw	high (STR_52| (0+32768))
  3480  0F50  00F5               	movwf	LCD_Wstring@v+1
  3481  0F51  160A  118A  22B4  120A  158A  	fcall	_LCD_Wstring
  3482  0F56  2FFF               	goto	l287
  3483  0F57                     l4155:
  3484  0F57  302D               	movlw	45
  3485  0F58  0679               	xorwf	transformADC@k,w
  3486  0F59  1D03               	btfss	3,2
  3487  0F5A  2F5C               	goto	u4691
  3488  0F5B  2F5D               	goto	u4690
  3489  0F5C                     u4691:
  3490  0F5C  2F73               	goto	l4161
  3491  0F5D                     u4690:
  3492  0F5D                     l4157:
  3493  0F5D  3002               	movlw	2
  3494  0F5E  1283               	bcf	3,5	;RP0=0, select bank0
  3495  0F5F  1303               	bcf	3,6	;RP1=0, select bank0
  3496  0F60  00A2               	movwf	??_transformADC
  3497  0F61  0822               	movf	??_transformADC,w
  3498  0F62  00F5               	movwf	LCD_cursor@y
  3499  0F63  3003               	movlw	3
  3500  0F64  160A  118A  2290  120A  158A  	fcall	_LCD_cursor
  3501  0F69                     l4159:
  3502  0F69  3042               	movlw	low (STR_53| (0+32768))
  3503  0F6A  00F4               	movwf	LCD_Wstring@v
  3504  0F6B  3090               	movlw	high (STR_53| (0+32768))
  3505  0F6C  00F5               	movwf	LCD_Wstring@v+1
  3506  0F6D  160A  118A  22B4  120A  158A  	fcall	_LCD_Wstring
  3507  0F72  2FFF               	goto	l287
  3508  0F73                     l4161:
  3509  0F73  302E               	movlw	46
  3510  0F74  0679               	xorwf	transformADC@k,w
  3511  0F75  1D03               	btfss	3,2
  3512  0F76  2F78               	goto	u4701
  3513  0F77  2F79               	goto	u4700
  3514  0F78                     u4701:
  3515  0F78  2F8F               	goto	l4167
  3516  0F79                     u4700:
  3517  0F79                     l4163:
  3518  0F79  3002               	movlw	2
  3519  0F7A  1283               	bcf	3,5	;RP0=0, select bank0
  3520  0F7B  1303               	bcf	3,6	;RP1=0, select bank0
  3521  0F7C  00A2               	movwf	??_transformADC
  3522  0F7D  0822               	movf	??_transformADC,w
  3523  0F7E  00F5               	movwf	LCD_cursor@y
  3524  0F7F  3003               	movlw	3
  3525  0F80  160A  118A  2290  120A  158A  	fcall	_LCD_cursor
  3526  0F85                     l4165:
  3527  0F85  307E               	movlw	low (STR_54| (0+32768))
  3528  0F86  00F4               	movwf	LCD_Wstring@v
  3529  0F87  3090               	movlw	high (STR_54| (0+32768))
  3530  0F88  00F5               	movwf	LCD_Wstring@v+1
  3531  0F89  160A  118A  22B4  120A  158A  	fcall	_LCD_Wstring
  3532  0F8E  2FFF               	goto	l287
  3533  0F8F                     l4167:
  3534  0F8F  302F               	movlw	47
  3535  0F90  0679               	xorwf	transformADC@k,w
  3536  0F91  1D03               	btfss	3,2
  3537  0F92  2F94               	goto	u4711
  3538  0F93  2F95               	goto	u4710
  3539  0F94                     u4711:
  3540  0F94  2FAB               	goto	l4173
  3541  0F95                     u4710:
  3542  0F95                     l4169:
  3543  0F95  3002               	movlw	2
  3544  0F96  1283               	bcf	3,5	;RP0=0, select bank0
  3545  0F97  1303               	bcf	3,6	;RP1=0, select bank0
  3546  0F98  00A2               	movwf	??_transformADC
  3547  0F99  0822               	movf	??_transformADC,w
  3548  0F9A  00F5               	movwf	LCD_cursor@y
  3549  0F9B  3003               	movlw	3
  3550  0F9C  160A  118A  2290  120A  158A  	fcall	_LCD_cursor
  3551  0FA1                     l4171:
  3552  0FA1  30BA               	movlw	low (STR_55| (0+32768))
  3553  0FA2  00F4               	movwf	LCD_Wstring@v
  3554  0FA3  3090               	movlw	high (STR_55| (0+32768))
  3555  0FA4  00F5               	movwf	LCD_Wstring@v+1
  3556  0FA5  160A  118A  22B4  120A  158A  	fcall	_LCD_Wstring
  3557  0FAA  2FFF               	goto	l287
  3558  0FAB                     l4173:
  3559  0FAB  3030               	movlw	48
  3560  0FAC  0679               	xorwf	transformADC@k,w
  3561  0FAD  1D03               	btfss	3,2
  3562  0FAE  2FB0               	goto	u4721
  3563  0FAF  2FB1               	goto	u4720
  3564  0FB0                     u4721:
  3565  0FB0  2FC7               	goto	l4179
  3566  0FB1                     u4720:
  3567  0FB1                     l4175:
  3568  0FB1  3002               	movlw	2
  3569  0FB2  1283               	bcf	3,5	;RP0=0, select bank0
  3570  0FB3  1303               	bcf	3,6	;RP1=0, select bank0
  3571  0FB4  00A2               	movwf	??_transformADC
  3572  0FB5  0822               	movf	??_transformADC,w
  3573  0FB6  00F5               	movwf	LCD_cursor@y
  3574  0FB7  3003               	movlw	3
  3575  0FB8  160A  118A  2290  120A  158A  	fcall	_LCD_cursor
  3576  0FBD                     l4177:
  3577  0FBD  30F6               	movlw	low (STR_56| (0+32768))
  3578  0FBE  00F4               	movwf	LCD_Wstring@v
  3579  0FBF  3090               	movlw	high (STR_56| (0+32768))
  3580  0FC0  00F5               	movwf	LCD_Wstring@v+1
  3581  0FC1  160A  118A  22B4  120A  158A  	fcall	_LCD_Wstring
  3582  0FC6  2FFF               	goto	l287
  3583  0FC7                     l4179:
  3584  0FC7  3031               	movlw	49
  3585  0FC8  0679               	xorwf	transformADC@k,w
  3586  0FC9  1D03               	btfss	3,2
  3587  0FCA  2FCC               	goto	u4731
  3588  0FCB  2FCD               	goto	u4730
  3589  0FCC                     u4731:
  3590  0FCC  2FE3               	goto	l4185
  3591  0FCD                     u4730:
  3592  0FCD                     l4181:
  3593  0FCD  3002               	movlw	2
  3594  0FCE  1283               	bcf	3,5	;RP0=0, select bank0
  3595  0FCF  1303               	bcf	3,6	;RP1=0, select bank0
  3596  0FD0  00A2               	movwf	??_transformADC
  3597  0FD1  0822               	movf	??_transformADC,w
  3598  0FD2  00F5               	movwf	LCD_cursor@y
  3599  0FD3  3003               	movlw	3
  3600  0FD4  160A  118A  2290  120A  158A  	fcall	_LCD_cursor
  3601  0FD9                     l4183:
  3602  0FD9  3032               	movlw	low (STR_57| (0+32768))
  3603  0FDA  00F4               	movwf	LCD_Wstring@v
  3604  0FDB  3091               	movlw	high (STR_57| (0+32768))
  3605  0FDC  00F5               	movwf	LCD_Wstring@v+1
  3606  0FDD  160A  118A  22B4  120A  158A  	fcall	_LCD_Wstring
  3607  0FE2  2FFF               	goto	l287
  3608  0FE3                     l4185:
  3609  0FE3  3032               	movlw	50
  3610  0FE4  0679               	xorwf	transformADC@k,w
  3611  0FE5  1D03               	btfss	3,2
  3612  0FE6  2FE8               	goto	u4741
  3613  0FE7  2FE9               	goto	u4740
  3614  0FE8                     u4741:
  3615  0FE8  2FFF               	goto	l281
  3616  0FE9                     u4740:
  3617  0FE9                     l4187:
  3618  0FE9  3002               	movlw	2
  3619  0FEA  1283               	bcf	3,5	;RP0=0, select bank0
  3620  0FEB  1303               	bcf	3,6	;RP1=0, select bank0
  3621  0FEC  00A2               	movwf	??_transformADC
  3622  0FED  0822               	movf	??_transformADC,w
  3623  0FEE  00F5               	movwf	LCD_cursor@y
  3624  0FEF  3003               	movlw	3
  3625  0FF0  160A  118A  2290  120A  158A  	fcall	_LCD_cursor
  3626  0FF5                     l4189:
  3627  0FF5  3050               	movlw	low (STR_58| (0+32768))
  3628  0FF6  00F4               	movwf	LCD_Wstring@v
  3629  0FF7  3091               	movlw	high (STR_58| (0+32768))
  3630  0FF8  00F5               	movwf	LCD_Wstring@v+1
  3631  0FF9  160A  118A  22B4  120A  158A  	fcall	_LCD_Wstring
  3632  0FFE  2FFF               	goto	l287
  3633  0FFF                     l281:
  3634  0FFF                     l287:
  3635  0FFF  0008               	return
  3636  1000                     __end_of_transformADC:
  3637                           
  3638                           	psect	text4
  3639  1290                     __ptext4:	
  3640 ;; *************** function _LCD_cursor *****************
  3641 ;; Defined at:
  3642 ;;		line 62 in file "LCD.c"
  3643 ;; Parameters:    Size  Location     Type
  3644 ;;  x               1    wreg     unsigned char 
  3645 ;;  y               1    5[COMMON] unsigned char 
  3646 ;; Auto vars:     Size  Location     Type
  3647 ;;  x               1    7[COMMON] unsigned char 
  3648 ;;  a               1    8[COMMON] unsigned char 
  3649 ;; Return value:  Size  Location     Type
  3650 ;;                  1    wreg      void 
  3651 ;; Registers used:
  3652 ;;		wreg, status,2, status,0, pclath, cstack
  3653 ;; Tracked objects:
  3654 ;;		On entry : 0/0
  3655 ;;		On exit  : 0/0
  3656 ;;		Unchanged: 0/0
  3657 ;; Data sizes:     COMMON   BANK0   BANK1   BANK3   BANK2
  3658 ;;      Params:         1       0       0       0       0
  3659 ;;      Locals:         2       0       0       0       0
  3660 ;;      Temps:          1       0       0       0       0
  3661 ;;      Totals:         4       0       0       0       0
  3662 ;;Total ram usage:        4 bytes
  3663 ;; Hardware stack levels used:    1
  3664 ;; Hardware stack levels required when called:    2
  3665 ;; This function calls:
  3666 ;;		_LCD_cmd
  3667 ;; This function is called by:
  3668 ;;		_main
  3669 ;;		_transformADC
  3670 ;;		_transformtemp
  3671 ;;		_transformcounter
  3672 ;; This function uses a non-reentrant model
  3673 ;;
  3674                           
  3675                           
  3676                           ;psect for function _LCD_cursor
  3677  1290                     _LCD_cursor:
  3678                           
  3679                           ;incstack = 0
  3680                           ; Regs used in _LCD_cursor: [wreg+status,2+status,0+pclath+cstack]
  3681                           ;LCD_cursor@x stored from wreg
  3682  1290  00F7               	movwf	LCD_cursor@x
  3683  1291                     l2523:
  3684                           
  3685                           ;LCD.c: 63:     uint8_t a;;LCD.c: 64:  if(y == 1)
  3686  1291  0375               	decf	LCD_cursor@y,w
  3687  1292  1D03               	btfss	3,2
  3688  1293  2A95               	goto	u2181
  3689  1294  2A96               	goto	u2180
  3690  1295                     u2181:
  3691  1295  2AA2               	goto	l2529
  3692  1296                     u2180:
  3693  1296                     l2525:
  3694                           
  3695                           ;LCD.c: 65:  {;LCD.c: 66:    a = 0x80 + x - 1;
  3696  1296  0877               	movf	LCD_cursor@x,w
  3697  1297  3E7F               	addlw	127
  3698  1298  00F6               	movwf	??_LCD_cursor
  3699  1299  0876               	movf	??_LCD_cursor,w
  3700  129A  00F8               	movwf	LCD_cursor@a
  3701  129B                     l2527:
  3702                           
  3703                           ;LCD.c: 67:   LCD_cmd(a);
  3704  129B  0878               	movf	LCD_cursor@a,w
  3705  129C  160A  118A  2266  160A  118A  	fcall	_LCD_cmd
  3706                           
  3707                           ;LCD.c: 68:  }
  3708  12A1  2AB3               	goto	l526
  3709  12A2                     l2529:
  3710  12A2  3002               	movlw	2
  3711  12A3  0675               	xorwf	LCD_cursor@y,w
  3712  12A4  1D03               	btfss	3,2
  3713  12A5  2AA7               	goto	u2191
  3714  12A6  2AA8               	goto	u2190
  3715  12A7                     u2191:
  3716  12A7  2AB3               	goto	l526
  3717  12A8                     u2190:
  3718  12A8                     l2531:
  3719                           
  3720                           ;LCD.c: 70:  {;LCD.c: 71:   a = 0xC0 + x - 1;
  3721  12A8  0877               	movf	LCD_cursor@x,w
  3722  12A9  3EBF               	addlw	191
  3723  12AA  00F6               	movwf	??_LCD_cursor
  3724  12AB  0876               	movf	??_LCD_cursor,w
  3725  12AC  00F8               	movwf	LCD_cursor@a
  3726  12AD                     l2533:
  3727                           
  3728                           ;LCD.c: 72:   LCD_cmd(a);
  3729  12AD  0878               	movf	LCD_cursor@a,w
  3730  12AE  160A  118A  2266  160A  118A  	fcall	_LCD_cmd
  3731  12B3                     l526:
  3732  12B3  0008               	return
  3733  12B4                     __end_of_LCD_cursor:
  3734                           
  3735                           	psect	text5
  3736  12B4                     __ptext5:	
  3737 ;; *************** function _LCD_Wstring *****************
  3738 ;; Defined at:
  3739 ;;		line 85 in file "LCD.c"
  3740 ;; Parameters:    Size  Location     Type
  3741 ;;  v               2    4[COMMON] PTR unsigned char 
  3742 ;;		 -> STR_164(3), STR_163(3), STR_162(3), STR_161(3), 
  3743 ;;		 -> STR_160(3), STR_159(3), STR_158(3), STR_157(3), 
  3744 ;;		 -> STR_156(3), STR_155(3), STR_154(3), STR_153(3), 
  3745 ;;		 -> STR_152(3), STR_151(3), STR_150(3), STR_149(3), 
  3746 ;;		 -> STR_148(3), STR_147(3), STR_146(3), STR_145(3), 
  3747 ;;		 -> STR_144(3), STR_143(3), STR_142(3), STR_141(3), 
  3748 ;;		 -> STR_140(3), STR_139(3), STR_138(3), STR_137(3), 
  3749 ;;		 -> STR_136(3), STR_135(3), STR_134(3), STR_133(3), 
  3750 ;;		 -> STR_132(3), STR_131(3), STR_130(3), STR_129(3), 
  3751 ;;		 -> STR_128(3), STR_127(3), STR_126(3), STR_125(3), 
  3752 ;;		 -> STR_124(3), STR_123(3), STR_122(3), STR_121(3), 
  3753 ;;		 -> STR_120(3), STR_119(3), STR_118(3), STR_117(3), 
  3754 ;;		 -> STR_116(3), STR_115(3), STR_114(3), STR_113(3), 
  3755 ;;		 -> STR_112(3), STR_111(3), STR_110(3), STR_109(3), 
  3756 ;;		 -> STR_108(3), STR_107(3), STR_106(3), STR_105(3), 
  3757 ;;		 -> STR_104(3), STR_103(3), STR_102(3), STR_101(3), 
  3758 ;;		 -> STR_100(3), STR_99(3), STR_98(3), STR_97(3), 
  3759 ;;		 -> STR_96(3), STR_95(3), STR_94(3), STR_93(3), 
  3760 ;;		 -> STR_92(3), STR_91(3), STR_90(3), STR_89(3), 
  3761 ;;		 -> STR_88(3), STR_87(3), STR_86(3), STR_85(3), 
  3762 ;;		 -> STR_84(3), STR_83(3), STR_82(3), STR_81(3), 
  3763 ;;		 -> STR_80(3), STR_79(3), STR_78(3), STR_77(3), 
  3764 ;;		 -> STR_76(3), STR_75(3), STR_74(3), STR_73(3), 
  3765 ;;		 -> STR_72(3), STR_71(3), STR_70(3), STR_69(3), 
  3766 ;;		 -> STR_68(3), STR_67(3), STR_66(3), STR_65(3), 
  3767 ;;		 -> STR_64(2), STR_63(2), STR_62(2), STR_61(4), 
  3768 ;;		 -> STR_60(4), STR_59(4), STR_58(3), STR_57(3), 
  3769 ;;		 -> STR_56(3), STR_55(3), STR_54(3), STR_53(3), 
  3770 ;;		 -> STR_52(3), STR_51(3), STR_50(3), STR_49(3), 
  3771 ;;		 -> STR_48(3), STR_47(3), STR_46(3), STR_45(3), 
  3772 ;;		 -> STR_44(3), STR_43(3), STR_42(3), STR_41(3), 
  3773 ;;		 -> STR_40(3), STR_39(3), STR_38(3), STR_37(3), 
  3774 ;;		 -> STR_36(3), STR_35(3), STR_34(3), STR_33(3), 
  3775 ;;		 -> STR_32(3), STR_31(3), STR_30(3), STR_29(3), 
  3776 ;;		 -> STR_28(3), STR_27(3), STR_26(3), STR_25(3), 
  3777 ;;		 -> STR_24(3), STR_23(3), STR_22(3), STR_21(3), 
  3778 ;;		 -> STR_20(3), STR_19(3), STR_18(3), STR_17(3), 
  3779 ;;		 -> STR_16(3), STR_15(3), STR_14(3), STR_13(3), 
  3780 ;;		 -> STR_12(2), STR_11(2), STR_10(2), STR_9(2), 
  3781 ;;		 -> STR_8(3), STR_7(3), STR_6(3), STR_5(3), 
  3782 ;;		 -> STR_4(3), STR_3(4), STR_2(4), STR_1(4), 
  3783 ;; Auto vars:     Size  Location     Type
  3784 ;;  i               2    0[BANK0 ] int 
  3785 ;; Return value:  Size  Location     Type
  3786 ;;                  1    wreg      void 
  3787 ;; Registers used:
  3788 ;;		wreg, fsr0l, fsr0h, status,2, status,0, btemp+1, pclath, cstack
  3789 ;; Tracked objects:
  3790 ;;		On entry : 0/0
  3791 ;;		On exit  : 0/0
  3792 ;;		Unchanged: 0/0
  3793 ;; Data sizes:     COMMON   BANK0   BANK1   BANK3   BANK2
  3794 ;;      Params:         2       0       0       0       0
  3795 ;;      Locals:         0       2       0       0       0
  3796 ;;      Temps:          3       0       0       0       0
  3797 ;;      Totals:         5       2       0       0       0
  3798 ;;Total ram usage:        7 bytes
  3799 ;; Hardware stack levels used:    1
  3800 ;; Hardware stack levels required when called:    2
  3801 ;; This function calls:
  3802 ;;		_LCD_Wchar
  3803 ;; This function is called by:
  3804 ;;		_main
  3805 ;;		_transformADC
  3806 ;;		_transformtemp
  3807 ;;		_transformcounter
  3808 ;; This function uses a non-reentrant model
  3809 ;;
  3810                           
  3811                           
  3812                           ;psect for function _LCD_Wstring
  3813  12B4                     _LCD_Wstring:
  3814  12B4                     l3781:	
  3815                           ;incstack = 0
  3816                           ; Regs used in _LCD_Wstring: [wreg-fsr0h+status,2+status,0+btemp+1+pclath+cstack]
  3817                           
  3818                           
  3819                           ;LCD.c: 86:     int i;;LCD.c: 87:  for(i=0;v[i]!='\0';i++)
  3820  12B4  1283               	bcf	3,5	;RP0=0, select bank0
  3821  12B5  1303               	bcf	3,6	;RP1=0, select bank0
  3822  12B6  01A0               	clrf	LCD_Wstring@i
  3823  12B7  01A1               	clrf	LCD_Wstring@i+1
  3824  12B8  2ADD               	goto	l3787
  3825  12B9                     l3783:
  3826                           
  3827                           ;LCD.c: 88:     LCD_Wchar(v[i]);
  3828  12B9  0820               	movf	LCD_Wstring@i,w
  3829  12BA  0774               	addwf	LCD_Wstring@v,w
  3830  12BB  00F7               	movwf	??_LCD_Wstring+1
  3831  12BC  0875               	movf	LCD_Wstring@v+1,w
  3832  12BD  00F6               	movwf	??_LCD_Wstring
  3833  12BE  1803               	skipnc
  3834  12BF  0AF6               	incf	??_LCD_Wstring,f
  3835  12C0  1FA0               	btfss	LCD_Wstring@i,7
  3836  12C1  2AC3               	goto	u4110
  3837  12C2  03F6               	decf	??_LCD_Wstring,f
  3838  12C3                     u4110:
  3839  12C3  0876               	movf	??_LCD_Wstring,w
  3840  12C4  00F8               	movwf	??_LCD_Wstring+2
  3841  12C5  0878               	movf	??_LCD_Wstring+2,w
  3842  12C6  1283               	bcf	3,5	;RP0=0, select bank0
  3843  12C7  1303               	bcf	3,6	;RP1=0, select bank0
  3844  12C8  00FF               	movwf	btemp+1
  3845  12C9  0877               	movf	??_LCD_Wstring+1,w
  3846  12CA  0084               	movwf	4
  3847  12CB  160A  118A  2153  160A  118A  	fcall	stringtab
  3848  12D0  120A  118A  27F1  160A  118A  	fcall	_LCD_Wchar
  3849  12D5                     l3785:
  3850  12D5  3001               	movlw	1
  3851  12D6  1283               	bcf	3,5	;RP0=0, select bank0
  3852  12D7  1303               	bcf	3,6	;RP1=0, select bank0
  3853  12D8  07A0               	addwf	LCD_Wstring@i,f
  3854  12D9  1803               	skipnc
  3855  12DA  0AA1               	incf	LCD_Wstring@i+1,f
  3856  12DB  3000               	movlw	0
  3857  12DC  07A1               	addwf	LCD_Wstring@i+1,f
  3858  12DD                     l3787:
  3859  12DD  0820               	movf	LCD_Wstring@i,w
  3860  12DE  0774               	addwf	LCD_Wstring@v,w
  3861  12DF  00F7               	movwf	??_LCD_Wstring+1
  3862  12E0  0875               	movf	LCD_Wstring@v+1,w
  3863  12E1  00F6               	movwf	??_LCD_Wstring
  3864  12E2  1803               	skipnc
  3865  12E3  0AF6               	incf	??_LCD_Wstring,f
  3866  12E4  1FA0               	btfss	LCD_Wstring@i,7
  3867  12E5  2AE7               	goto	u4120
  3868  12E6  03F6               	decf	??_LCD_Wstring,f
  3869  12E7                     u4120:
  3870  12E7  0876               	movf	??_LCD_Wstring,w
  3871  12E8  00F8               	movwf	??_LCD_Wstring+2
  3872  12E9  0878               	movf	??_LCD_Wstring+2,w
  3873  12EA  1283               	bcf	3,5	;RP0=0, select bank0
  3874  12EB  1303               	bcf	3,6	;RP1=0, select bank0
  3875  12EC  00FF               	movwf	btemp+1
  3876  12ED  0877               	movf	??_LCD_Wstring+1,w
  3877  12EE  0084               	movwf	4
  3878  12EF  160A  118A  2153  160A  118A  	fcall	stringtab
  3879  12F4  3A00               	xorlw	0
  3880  12F5  1D03               	skipz
  3881  12F6  2AF8               	goto	u4131
  3882  12F7  2AF9               	goto	u4130
  3883  12F8                     u4131:
  3884  12F8  2AB9               	goto	l3783
  3885  12F9                     u4130:
  3886  12F9                     l535:
  3887  12F9  0008               	return
  3888  12FA                     __end_of_LCD_Wstring:
  3889                           
  3890                           	psect	text6
  3891  07F1                     __ptext6:	
  3892 ;; *************** function _LCD_Wchar *****************
  3893 ;; Defined at:
  3894 ;;		line 76 in file "LCD.c"
  3895 ;; Parameters:    Size  Location     Type
  3896 ;;  c               1    wreg     unsigned char 
  3897 ;; Auto vars:     Size  Location     Type
  3898 ;;  c               1    3[COMMON] unsigned char 
  3899 ;; Return value:  Size  Location     Type
  3900 ;;                  1    wreg      void 
  3901 ;; Registers used:
  3902 ;;		wreg
  3903 ;; Tracked objects:
  3904 ;;		On entry : 0/0
  3905 ;;		On exit  : 0/0
  3906 ;;		Unchanged: 0/0
  3907 ;; Data sizes:     COMMON   BANK0   BANK1   BANK3   BANK2
  3908 ;;      Params:         0       0       0       0       0
  3909 ;;      Locals:         1       0       0       0       0
  3910 ;;      Temps:          1       0       0       0       0
  3911 ;;      Totals:         2       0       0       0       0
  3912 ;;Total ram usage:        2 bytes
  3913 ;; Hardware stack levels used:    1
  3914 ;; Hardware stack levels required when called:    1
  3915 ;; This function calls:
  3916 ;;		Nothing
  3917 ;; This function is called by:
  3918 ;;		_LCD_Wstring
  3919 ;; This function uses a non-reentrant model
  3920 ;;
  3921                           
  3922                           
  3923                           ;psect for function _LCD_Wchar
  3924  07F1                     _LCD_Wchar:
  3925                           
  3926                           ;incstack = 0
  3927                           ; Regs used in _LCD_Wchar: [wreg]
  3928                           ;LCD_Wchar@c stored from wreg
  3929  07F1  00F3               	movwf	LCD_Wchar@c
  3930  07F2                     l3707:
  3931                           
  3932                           ;LCD.c: 77:    PORTCbits.RC0 = 1;
  3933  07F2  1283               	bcf	3,5	;RP0=0, select bank0
  3934  07F3  1303               	bcf	3,6	;RP1=0, select bank0
  3935  07F4  1407               	bsf	7,0	;volatile
  3936  07F5                     l3709:
  3937                           
  3938                           ;LCD.c: 78:    PORTD = c;
  3939  07F5  0873               	movf	LCD_Wchar@c,w
  3940  07F6  0088               	movwf	8	;volatile
  3941  07F7                     l3711:
  3942                           
  3943                           ;LCD.c: 80:    PORTCbits.RC1 = 1;
  3944  07F7  1487               	bsf	7,1	;volatile
  3945                           
  3946                           ;LCD.c: 81:    _delay((unsigned long)((40)*(4000000/4000000.0)));
  3947  07F8  300D               	movlw	13
  3948  07F9  00F2               	movwf	??_LCD_Wchar
  3949  07FA                     u6017:
  3950  07FA  0BF2               	decfsz	??_LCD_Wchar,f
  3951  07FB  2FFA               	goto	u6017
  3952  07FC                     l3713:
  3953                           
  3954                           ;LCD.c: 82:    PORTCbits.RC1 = 0;
  3955  07FC  1283               	bcf	3,5	;RP0=0, select bank0
  3956  07FD  1303               	bcf	3,6	;RP1=0, select bank0
  3957  07FE  1087               	bcf	7,1	;volatile
  3958  07FF                     l529:
  3959  07FF  0008               	return
  3960  0800                     __end_of_LCD_Wchar:
  3961                           
  3962                           	psect	text7
  3963  123D                     __ptext7:	
  3964 ;; *************** function _spiWrite *****************
  3965 ;; Defined at:
  3966 ;;		line 34 in file "SPI.c"
  3967 ;; Parameters:    Size  Location     Type
  3968 ;;  dat             1    wreg     unsigned char 
  3969 ;; Auto vars:     Size  Location     Type
  3970 ;;  dat             1    2[COMMON] unsigned char 
  3971 ;; Return value:  Size  Location     Type
  3972 ;;                  1    wreg      void 
  3973 ;; Registers used:
  3974 ;;		wreg
  3975 ;; Tracked objects:
  3976 ;;		On entry : 0/0
  3977 ;;		On exit  : 0/0
  3978 ;;		Unchanged: 0/0
  3979 ;; Data sizes:     COMMON   BANK0   BANK1   BANK3   BANK2
  3980 ;;      Params:         0       0       0       0       0
  3981 ;;      Locals:         1       0       0       0       0
  3982 ;;      Temps:          0       0       0       0       0
  3983 ;;      Totals:         1       0       0       0       0
  3984 ;;Total ram usage:        1 bytes
  3985 ;; Hardware stack levels used:    1
  3986 ;; Hardware stack levels required when called:    1
  3987 ;; This function calls:
  3988 ;;		Nothing
  3989 ;; This function is called by:
  3990 ;;		_main
  3991 ;; This function uses a non-reentrant model
  3992 ;;
  3993                           
  3994                           
  3995                           ;psect for function _spiWrite
  3996  123D                     _spiWrite:
  3997                           
  3998                           ;incstack = 0
  3999                           ; Regs used in _spiWrite: [wreg]
  4000                           ;spiWrite@dat stored from wreg
  4001  123D  00F2               	movwf	spiWrite@dat
  4002  123E                     l2579:
  4003                           
  4004                           ;SPI.c: 34: void spiWrite(char dat);SPI.c: 35: {;SPI.c: 36:     SSPBUF = dat;
  4005  123E  0872               	movf	spiWrite@dat,w
  4006  123F  1283               	bcf	3,5	;RP0=0, select bank0
  4007  1240  1303               	bcf	3,6	;RP1=0, select bank0
  4008  1241  0093               	movwf	19	;volatile
  4009  1242                     l26:
  4010  1242  0008               	return
  4011  1243                     __end_of_spiWrite:
  4012                           
  4013                           	psect	text8
  4014  1251                     __ptext8:	
  4015 ;; *************** function _spiRead *****************
  4016 ;; Defined at:
  4017 ;;		line 47 in file "SPI.c"
  4018 ;; Parameters:    Size  Location     Type
  4019 ;;		None
  4020 ;; Auto vars:     Size  Location     Type
  4021 ;;		None
  4022 ;; Return value:  Size  Location     Type
  4023 ;;                  1    wreg      unsigned char 
  4024 ;; Registers used:
  4025 ;;		wreg, status,2, status,0, pclath, cstack
  4026 ;; Tracked objects:
  4027 ;;		On entry : 0/0
  4028 ;;		On exit  : 0/0
  4029 ;;		Unchanged: 0/0
  4030 ;; Data sizes:     COMMON   BANK0   BANK1   BANK3   BANK2
  4031 ;;      Params:         0       0       0       0       0
  4032 ;;      Locals:         0       0       0       0       0
  4033 ;;      Temps:          0       0       0       0       0
  4034 ;;      Totals:         0       0       0       0       0
  4035 ;;Total ram usage:        0 bytes
  4036 ;; Hardware stack levels used:    1
  4037 ;; Hardware stack levels required when called:    2
  4038 ;; This function calls:
  4039 ;;		_spiReceiveWait
  4040 ;; This function is called by:
  4041 ;;		_main
  4042 ;; This function uses a non-reentrant model
  4043 ;;
  4044                           
  4045                           
  4046                           ;psect for function _spiRead
  4047  1251                     _spiRead:
  4048  1251                     l2581:	
  4049                           ;incstack = 0
  4050                           ; Regs used in _spiRead: [wreg+status,2+status,0+pclath+cstack]
  4051                           
  4052                           
  4053                           ;SPI.c: 49:     spiReceiveWait();
  4054  1251  120A  158A  2000  160A  118A  	fcall	_spiReceiveWait
  4055  1256                     l2583:
  4056                           
  4057                           ;SPI.c: 50:     return(SSPBUF);
  4058  1256  1283               	bcf	3,5	;RP0=0, select bank0
  4059  1257  1303               	bcf	3,6	;RP1=0, select bank0
  4060  1258  0813               	movf	19,w	;volatile
  4061  1259                     l34:
  4062  1259  0008               	return
  4063  125A                     __end_of_spiRead:
  4064                           
  4065                           	psect	text9
  4066  0800                     __ptext9:	
  4067 ;; *************** function _spiReceiveWait *****************
  4068 ;; Defined at:
  4069 ;;		line 29 in file "SPI.c"
  4070 ;; Parameters:    Size  Location     Type
  4071 ;;		None
  4072 ;; Auto vars:     Size  Location     Type
  4073 ;;		None
  4074 ;; Return value:  Size  Location     Type
  4075 ;;                  1    wreg      void 
  4076 ;; Registers used:
  4077 ;;		None
  4078 ;; Tracked objects:
  4079 ;;		On entry : 0/0
  4080 ;;		On exit  : 0/0
  4081 ;;		Unchanged: 0/0
  4082 ;; Data sizes:     COMMON   BANK0   BANK1   BANK3   BANK2
  4083 ;;      Params:         0       0       0       0       0
  4084 ;;      Locals:         0       0       0       0       0
  4085 ;;      Temps:          0       0       0       0       0
  4086 ;;      Totals:         0       0       0       0       0
  4087 ;;Total ram usage:        0 bytes
  4088 ;; Hardware stack levels used:    1
  4089 ;; Hardware stack levels required when called:    1
  4090 ;; This function calls:
  4091 ;;		Nothing
  4092 ;; This function is called by:
  4093 ;;		_spiRead
  4094 ;; This function uses a non-reentrant model
  4095 ;;
  4096                           
  4097                           
  4098                           ;psect for function _spiReceiveWait
  4099  0800                     _spiReceiveWait:
  4100  0800                     l2495:	
  4101                           ;incstack = 0
  4102                           ; Regs used in _spiReceiveWait: []
  4103                           
  4104  0800                     l20:	
  4105                           ;SPI.c: 31:     while ( !SSPSTATbits.BF );
  4106                           
  4107  0800  1683               	bsf	3,5	;RP0=1, select bank1
  4108  0801  1303               	bcf	3,6	;RP1=0, select bank1
  4109  0802  1C14               	btfss	20,0	;volatile
  4110  0803  2805               	goto	u2091
  4111  0804  2806               	goto	u2090
  4112  0805                     u2091:
  4113  0805  2800               	goto	l20
  4114  0806                     u2090:
  4115  0806                     l23:
  4116  0806  0008               	return
  4117  0807                     __end_of_spiReceiveWait:
  4118                           
  4119                           	psect	text10
  4120  0807                     __ptext10:	
  4121 ;; *************** function _setup *****************
  4122 ;; Defined at:
  4123 ;;		line 155 in file "MASTERsrc.c"
  4124 ;; Parameters:    Size  Location     Type
  4125 ;;		None
  4126 ;; Auto vars:     Size  Location     Type
  4127 ;;		None
  4128 ;; Return value:  Size  Location     Type
  4129 ;;                  1    wreg      void 
  4130 ;; Registers used:
  4131 ;;		wreg, status,2, status,0, pclath, cstack
  4132 ;; Tracked objects:
  4133 ;;		On entry : 0/0
  4134 ;;		On exit  : 0/0
  4135 ;;		Unchanged: 0/0
  4136 ;; Data sizes:     COMMON   BANK0   BANK1   BANK3   BANK2
  4137 ;;      Params:         0       0       0       0       0
  4138 ;;      Locals:         0       0       0       0       0
  4139 ;;      Temps:          0       0       0       0       0
  4140 ;;      Totals:         0       0       0       0       0
  4141 ;;Total ram usage:        0 bytes
  4142 ;; Hardware stack levels used:    1
  4143 ;; Hardware stack levels required when called:    3
  4144 ;; This function calls:
  4145 ;;		_LCD_ini
  4146 ;;		_UART_Init
  4147 ;;		_spiInit
  4148 ;; This function is called by:
  4149 ;;		_main
  4150 ;; This function uses a non-reentrant model
  4151 ;;
  4152                           
  4153                           
  4154                           ;psect for function _setup
  4155  0807                     _setup:
  4156  0807                     l3789:	
  4157                           ;incstack = 0
  4158                           ; Regs used in _setup: [wreg+status,2+status,0+pclath+cstack]
  4159                           
  4160                           
  4161                           ;MASTERsrc.c: 156:     ANSEL = 0;
  4162  0807  1683               	bsf	3,5	;RP0=1, select bank3
  4163  0808  1703               	bsf	3,6	;RP1=1, select bank3
  4164  0809  0188               	clrf	8	;volatile
  4165                           
  4166                           ;MASTERsrc.c: 157:     ANSELH = 0;
  4167  080A  0189               	clrf	9	;volatile
  4168  080B                     l3791:
  4169                           
  4170                           ;MASTERsrc.c: 158:     TRISC1 = 0;
  4171  080B  1683               	bsf	3,5	;RP0=1, select bank1
  4172  080C  1303               	bcf	3,6	;RP1=0, select bank1
  4173  080D  1087               	bcf	7,1	;volatile
  4174  080E                     l3793:
  4175                           
  4176                           ;MASTERsrc.c: 159:     TRISC2 = 0;
  4177  080E  1107               	bcf	7,2	;volatile
  4178                           
  4179                           ;MASTERsrc.c: 160:     TRISB = 0;
  4180  080F  0186               	clrf	6	;volatile
  4181                           
  4182                           ;MASTERsrc.c: 161:     TRISD = 0;
  4183  0810  0188               	clrf	8	;volatile
  4184                           
  4185                           ;MASTERsrc.c: 162:     PORTB = 0;
  4186  0811  1283               	bcf	3,5	;RP0=0, select bank0
  4187  0812  1303               	bcf	3,6	;RP1=0, select bank0
  4188  0813  0186               	clrf	6	;volatile
  4189                           
  4190                           ;MASTERsrc.c: 163:     PORTD = 0;
  4191  0814  0188               	clrf	8	;volatile
  4192  0815                     l3795:
  4193                           
  4194                           ;MASTERsrc.c: 164:     PORTCbits.RC2 = 1;
  4195  0815  1507               	bsf	7,2	;volatile
  4196  0816                     l3797:
  4197                           
  4198                           ;MASTERsrc.c: 165:     PORTCbits.RC1 = 1;
  4199  0816  1487               	bsf	7,1	;volatile
  4200  0817                     l3799:
  4201                           
  4202                           ;MASTERsrc.c: 167:     nRBPU = 0;
  4203  0817  1683               	bsf	3,5	;RP0=1, select bank1
  4204  0818  1303               	bcf	3,6	;RP1=0, select bank1
  4205  0819  1381               	bcf	1,7	;volatile
  4206  081A                     l3801:
  4207                           
  4208                           ;MASTERsrc.c: 168:     UART_Init(9600);
  4209  081A  3000               	movlw	0
  4210  081B  1283               	bcf	3,5	;RP0=0, select bank0
  4211  081C  1303               	bcf	3,6	;RP1=0, select bank0
  4212  081D  00AA               	movwf	UART_Init@baudrate+3
  4213  081E  3000               	movlw	0
  4214  081F  00A9               	movwf	UART_Init@baudrate+2
  4215  0820  3025               	movlw	37
  4216  0821  00A8               	movwf	UART_Init@baudrate+1
  4217  0822  3080               	movlw	128
  4218  0823  00A7               	movwf	UART_Init@baudrate
  4219  0824  160A  118A  240E  120A  158A  	fcall	_UART_Init
  4220  0829                     l3803:
  4221                           
  4222                           ;MASTERsrc.c: 170:     TRISE = 0;
  4223  0829  1683               	bsf	3,5	;RP0=1, select bank1
  4224  082A  1303               	bcf	3,6	;RP1=0, select bank1
  4225  082B  0189               	clrf	9	;volatile
  4226  082C                     l3805:
  4227                           
  4228                           ;MASTERsrc.c: 171:     PORTE = 0;
  4229  082C  1283               	bcf	3,5	;RP0=0, select bank0
  4230  082D  1303               	bcf	3,6	;RP1=0, select bank0
  4231  082E  0189               	clrf	9	;volatile
  4232  082F                     l3807:
  4233                           
  4234                           ;MASTERsrc.c: 172:     check0 = 1;
  4235  082F  01FB               	clrf	_check0
  4236  0830  0AFB               	incf	_check0,f
  4237  0831                     l3809:
  4238                           
  4239                           ;MASTERsrc.c: 174:     PORTEbits.RE0 = 1;
  4240  0831  1409               	bsf	9,0	;volatile
  4241  0832                     l3811:
  4242                           
  4243                           ;MASTERsrc.c: 175:     PORTEbits.RE1 = 1;
  4244  0832  1489               	bsf	9,1	;volatile
  4245  0833                     l3813:
  4246                           
  4247                           ;MASTERsrc.c: 176:     PORTEbits.RE2 = 1;
  4248  0833  1509               	bsf	9,2	;volatile
  4249  0834                     l3815:
  4250                           
  4251                           ;MASTERsrc.c: 178:     spiInit(SPI_MASTER_OSC_DIV4, SPI_DATA_SAMPLE_MIDDLE, SPI_CLOCK_ID
      +                          LE_LOW, SPI_IDLE_2_ACTIVE);
  4252  0834  01F2               	clrf	spiInit@sDataSample
  4253  0835  01F3               	clrf	spiInit@sClockIdle
  4254  0836  01F4               	clrf	spiInit@sTransmitEdge
  4255  0837  3020               	movlw	32
  4256  0838  160A  118A  227A  120A  158A  	fcall	_spiInit
  4257  083D                     l3817:
  4258                           
  4259                           ;MASTERsrc.c: 180:     LCD_ini();
  4260  083D  160A  118A  22FA  120A  158A  	fcall	_LCD_ini
  4261  0842                     l176:
  4262  0842  0008               	return
  4263  0843                     __end_of_setup:
  4264                           
  4265                           	psect	text11
  4266  127A                     __ptext11:	
  4267 ;; *************** function _spiInit *****************
  4268 ;; Defined at:
  4269 ;;		line 12 in file "SPI.c"
  4270 ;; Parameters:    Size  Location     Type
  4271 ;;  sType           1    wreg     enum E1264
  4272 ;;  sDataSample     1    2[COMMON] enum E1272
  4273 ;;  sClockIdle      1    3[COMMON] enum E1276
  4274 ;;  sTransmitEdg    1    4[COMMON] enum E1280
  4275 ;; Auto vars:     Size  Location     Type
  4276 ;;  sType           1    5[COMMON] enum E1264
  4277 ;; Return value:  Size  Location     Type
  4278 ;;                  1    wreg      void 
  4279 ;; Registers used:
  4280 ;;		wreg, status,2, status,0
  4281 ;; Tracked objects:
  4282 ;;		On entry : 0/0
  4283 ;;		On exit  : 0/0
  4284 ;;		Unchanged: 0/0
  4285 ;; Data sizes:     COMMON   BANK0   BANK1   BANK3   BANK2
  4286 ;;      Params:         3       0       0       0       0
  4287 ;;      Locals:         1       0       0       0       0
  4288 ;;      Temps:          0       0       0       0       0
  4289 ;;      Totals:         4       0       0       0       0
  4290 ;;Total ram usage:        4 bytes
  4291 ;; Hardware stack levels used:    1
  4292 ;; Hardware stack levels required when called:    1
  4293 ;; This function calls:
  4294 ;;		Nothing
  4295 ;; This function is called by:
  4296 ;;		_setup
  4297 ;; This function uses a non-reentrant model
  4298 ;;
  4299                           
  4300                           
  4301                           ;psect for function _spiInit
  4302  127A                     _spiInit:
  4303                           
  4304                           ;incstack = 0
  4305                           ; Regs used in _spiInit: [wreg+status,2+status,0]
  4306                           ;spiInit@sType stored from wreg
  4307  127A  00F5               	movwf	spiInit@sType
  4308  127B                     l2485:
  4309                           
  4310                           ;SPI.c: 12: void spiInit(Spi_Type sType, Spi_Data_Sample sDataSample, Spi_Clock_Idle sCl
      +                          ockIdle, Spi_Transmit_Edge sTransmitEdge);SPI.c: 13: {;SPI.c: 14:     TRISC5 = 0;
  4311  127B  1683               	bsf	3,5	;RP0=1, select bank1
  4312  127C  1303               	bcf	3,6	;RP1=0, select bank1
  4313  127D  1287               	bcf	7,5	;volatile
  4314                           
  4315                           ;SPI.c: 15:     if(sType & 0b00000100)
  4316  127E  1D75               	btfss	spiInit@sType,2
  4317  127F  2A81               	goto	u2081
  4318  1280  2A82               	goto	u2080
  4319  1281                     u2081:
  4320  1281  2A86               	goto	l2491
  4321  1282                     u2080:
  4322  1282                     l2487:
  4323                           
  4324                           ;SPI.c: 16:     {;SPI.c: 17:         SSPSTAT = sTransmitEdge;
  4325  1282  0874               	movf	spiInit@sTransmitEdge,w
  4326  1283  0094               	movwf	20	;volatile
  4327  1284                     l2489:
  4328                           
  4329                           ;SPI.c: 18:         TRISC3 = 1;
  4330  1284  1587               	bsf	7,3	;volatile
  4331                           
  4332                           ;SPI.c: 19:     }
  4333  1285  2A8A               	goto	l16
  4334  1286                     l2491:
  4335                           
  4336                           ;SPI.c: 21:     {;SPI.c: 22:         SSPSTAT = sDataSample | sTransmitEdge;
  4337  1286  0872               	movf	spiInit@sDataSample,w
  4338  1287  0474               	iorwf	spiInit@sTransmitEdge,w
  4339  1288  0094               	movwf	20	;volatile
  4340  1289                     l2493:
  4341                           
  4342                           ;SPI.c: 23:         TRISC3 = 0;
  4343  1289  1187               	bcf	7,3	;volatile
  4344  128A                     l16:	
  4345                           ;SPI.c: 24:     }
  4346                           
  4347                           
  4348                           ;SPI.c: 26:     SSPCON = sType | sClockIdle;
  4349  128A  0875               	movf	spiInit@sType,w
  4350  128B  0473               	iorwf	spiInit@sClockIdle,w
  4351  128C  1283               	bcf	3,5	;RP0=0, select bank0
  4352  128D  1303               	bcf	3,6	;RP1=0, select bank0
  4353  128E  0094               	movwf	20	;volatile
  4354  128F                     l17:
  4355  128F  0008               	return
  4356  1290                     __end_of_spiInit:
  4357                           
  4358                           	psect	text12
  4359  140E                     __ptext12:	
  4360 ;; *************** function _UART_Init *****************
  4361 ;; Defined at:
  4362 ;;		line 3 in file "./uart.h"
  4363 ;; Parameters:    Size  Location     Type
  4364 ;;  baudrate        4    7[BANK0 ] const long 
  4365 ;; Auto vars:     Size  Location     Type
  4366 ;;  x               2   23[BANK0 ] unsigned int 
  4367 ;; Return value:  Size  Location     Type
  4368 ;;                  1    wreg      unsigned char 
  4369 ;; Registers used:
  4370 ;;		wreg, status,2, status,0, pclath, cstack
  4371 ;; Tracked objects:
  4372 ;;		On entry : 0/0
  4373 ;;		On exit  : 0/0
  4374 ;;		Unchanged: 0/0
  4375 ;; Data sizes:     COMMON   BANK0   BANK1   BANK3   BANK2
  4376 ;;      Params:         0       4       0       0       0
  4377 ;;      Locals:         0       2       0       0       0
  4378 ;;      Temps:          0      12       0       0       0
  4379 ;;      Totals:         0      18       0       0       0
  4380 ;;Total ram usage:       18 bytes
  4381 ;; Hardware stack levels used:    1
  4382 ;; Hardware stack levels required when called:    2
  4383 ;; This function calls:
  4384 ;;		___aldiv
  4385 ;; This function is called by:
  4386 ;;		_setup
  4387 ;; This function uses a non-reentrant model
  4388 ;;
  4389                           
  4390                           
  4391                           ;psect for function _UART_Init
  4392  140E                     _UART_Init:
  4393  140E                     l3755:	
  4394                           ;incstack = 0
  4395                           ; Regs used in _UART_Init: [wreg+status,2+status,0+pclath+cstack]
  4396                           
  4397                           
  4398                           ;./uart.h: 3: char UART_Init(const long int baudrate);./uart.h: 4: {;./uart.h: 5:  unsig
      +                          ned int x;;./uart.h: 6:  x = (8000000 - baudrate*64)/(baudrate*64);
  4399  140E  1283               	bcf	3,5	;RP0=0, select bank0
  4400  140F  1303               	bcf	3,6	;RP1=0, select bank0
  4401  1410  0827               	movf	UART_Init@baudrate,w
  4402  1411  00AB               	movwf	??_UART_Init
  4403  1412  0828               	movf	UART_Init@baudrate+1,w
  4404  1413  00AC               	movwf	??_UART_Init+1
  4405  1414  0829               	movf	UART_Init@baudrate+2,w
  4406  1415  00AD               	movwf	??_UART_Init+2
  4407  1416  082A               	movf	UART_Init@baudrate+3,w
  4408  1417  00AE               	movwf	??_UART_Init+3
  4409  1418  3006               	movlw	6
  4410  1419                     u4035:
  4411  1419  1003               	clrc
  4412  141A  0DAB               	rlf	??_UART_Init,f
  4413  141B  0DAC               	rlf	??_UART_Init+1,f
  4414  141C  0DAD               	rlf	??_UART_Init+2,f
  4415  141D  0DAE               	rlf	??_UART_Init+3,f
  4416  141E                     u4030:
  4417  141E  3EFF               	addlw	-1
  4418  141F  1D03               	skipz
  4419  1420  2C19               	goto	u4035
  4420  1421  082E               	movf	??_UART_Init+3,w
  4421  1422  00F5               	movwf	___aldiv@divisor+3
  4422  1423  082D               	movf	??_UART_Init+2,w
  4423  1424  00F4               	movwf	___aldiv@divisor+2
  4424  1425  082C               	movf	??_UART_Init+1,w
  4425  1426  00F3               	movwf	___aldiv@divisor+1
  4426  1427  082B               	movf	??_UART_Init,w
  4427  1428  00F2               	movwf	___aldiv@divisor
  4428  1429  0827               	movf	UART_Init@baudrate,w
  4429  142A  00AF               	movwf	??_UART_Init+4
  4430  142B  0828               	movf	UART_Init@baudrate+1,w
  4431  142C  00B0               	movwf	??_UART_Init+5
  4432  142D  0829               	movf	UART_Init@baudrate+2,w
  4433  142E  00B1               	movwf	??_UART_Init+6
  4434  142F  082A               	movf	UART_Init@baudrate+3,w
  4435  1430  00B2               	movwf	??_UART_Init+7
  4436  1431  3006               	movlw	6
  4437  1432                     u4045:
  4438  1432  1003               	clrc
  4439  1433  0DAF               	rlf	??_UART_Init+4,f
  4440  1434  0DB0               	rlf	??_UART_Init+5,f
  4441  1435  0DB1               	rlf	??_UART_Init+6,f
  4442  1436  0DB2               	rlf	??_UART_Init+7,f
  4443  1437                     u4040:
  4444  1437  3EFF               	addlw	-1
  4445  1438  1D03               	skipz
  4446  1439  2C32               	goto	u4045
  4447  143A  3000               	movlw	0
  4448  143B  00B3               	movwf	??_UART_Init+8
  4449  143C  3012               	movlw	18
  4450  143D  00B4               	movwf	??_UART_Init+9
  4451  143E  307A               	movlw	122
  4452  143F  00B5               	movwf	??_UART_Init+10
  4453  1440  3000               	movlw	0
  4454  1441  00B6               	movwf	??_UART_Init+11
  4455  1442  082F               	movf	??_UART_Init+4,w
  4456  1443  02B3               	subwf	??_UART_Init+8,f
  4457  1444  0830               	movf	??_UART_Init+5,w
  4458  1445  1C03               	skipc
  4459  1446  0F30               	incfsz	??_UART_Init+5,w
  4460  1447  2C49               	goto	u4051
  4461  1448  2C4A               	goto	u4052
  4462  1449                     u4051:
  4463  1449  02B4               	subwf	??_UART_Init+9,f
  4464  144A                     u4052:
  4465  144A  0831               	movf	??_UART_Init+6,w
  4466  144B  1C03               	skipc
  4467  144C  0F31               	incfsz	??_UART_Init+6,w
  4468  144D  2C4F               	goto	u4053
  4469  144E  2C50               	goto	u4054
  4470  144F                     u4053:
  4471  144F  02B5               	subwf	??_UART_Init+10,f
  4472  1450                     u4054:
  4473  1450  0832               	movf	??_UART_Init+7,w
  4474  1451  1C03               	skipc
  4475  1452  0F32               	incfsz	??_UART_Init+7,w
  4476  1453  2C55               	goto	u4055
  4477  1454  2C56               	goto	u4056
  4478  1455                     u4055:
  4479  1455  02B6               	subwf	??_UART_Init+11,f
  4480  1456                     u4056:
  4481  1456  0836               	movf	??_UART_Init+11,w
  4482  1457  00F9               	movwf	___aldiv@dividend+3
  4483  1458  0835               	movf	??_UART_Init+10,w
  4484  1459  00F8               	movwf	___aldiv@dividend+2
  4485  145A  0834               	movf	??_UART_Init+9,w
  4486  145B  00F7               	movwf	___aldiv@dividend+1
  4487  145C  0833               	movf	??_UART_Init+8,w
  4488  145D  00F6               	movwf	___aldiv@dividend
  4489  145E  160A  118A  2371  160A  118A  	fcall	___aldiv
  4490  1463  0873               	movf	?___aldiv+1,w
  4491  1464  1283               	bcf	3,5	;RP0=0, select bank0
  4492  1465  1303               	bcf	3,6	;RP1=0, select bank0
  4493  1466  00B8               	movwf	UART_Init@x+1
  4494  1467  0872               	movf	?___aldiv,w
  4495  1468  00B7               	movwf	UART_Init@x
  4496  1469                     l3757:
  4497                           
  4498                           ;./uart.h: 7:  if(x>255)
  4499  1469  3001               	movlw	1
  4500  146A  0238               	subwf	UART_Init@x+1,w
  4501  146B  3000               	movlw	0
  4502  146C  1903               	skipnz
  4503  146D  0237               	subwf	UART_Init@x,w
  4504  146E  1C03               	skipc
  4505  146F  2C71               	goto	u4061
  4506  1470  2C72               	goto	u4060
  4507  1471                     u4061:
  4508  1471  2CCE               	goto	l3763
  4509  1472                     u4060:
  4510  1472                     l3759:
  4511                           
  4512                           ;./uart.h: 8:  {;./uart.h: 9:   x = (8000000 - baudrate*16)/(baudrate*16);
  4513  1472  0827               	movf	UART_Init@baudrate,w
  4514  1473  00AB               	movwf	??_UART_Init
  4515  1474  0828               	movf	UART_Init@baudrate+1,w
  4516  1475  00AC               	movwf	??_UART_Init+1
  4517  1476  0829               	movf	UART_Init@baudrate+2,w
  4518  1477  00AD               	movwf	??_UART_Init+2
  4519  1478  082A               	movf	UART_Init@baudrate+3,w
  4520  1479  00AE               	movwf	??_UART_Init+3
  4521  147A  3004               	movlw	4
  4522  147B                     u4075:
  4523  147B  1003               	clrc
  4524  147C  0DAB               	rlf	??_UART_Init,f
  4525  147D  0DAC               	rlf	??_UART_Init+1,f
  4526  147E  0DAD               	rlf	??_UART_Init+2,f
  4527  147F  0DAE               	rlf	??_UART_Init+3,f
  4528  1480                     u4070:
  4529  1480  3EFF               	addlw	-1
  4530  1481  1D03               	skipz
  4531  1482  2C7B               	goto	u4075
  4532  1483  082E               	movf	??_UART_Init+3,w
  4533  1484  00F5               	movwf	___aldiv@divisor+3
  4534  1485  082D               	movf	??_UART_Init+2,w
  4535  1486  00F4               	movwf	___aldiv@divisor+2
  4536  1487  082C               	movf	??_UART_Init+1,w
  4537  1488  00F3               	movwf	___aldiv@divisor+1
  4538  1489  082B               	movf	??_UART_Init,w
  4539  148A  00F2               	movwf	___aldiv@divisor
  4540  148B  0827               	movf	UART_Init@baudrate,w
  4541  148C  00AF               	movwf	??_UART_Init+4
  4542  148D  0828               	movf	UART_Init@baudrate+1,w
  4543  148E  00B0               	movwf	??_UART_Init+5
  4544  148F  0829               	movf	UART_Init@baudrate+2,w
  4545  1490  00B1               	movwf	??_UART_Init+6
  4546  1491  082A               	movf	UART_Init@baudrate+3,w
  4547  1492  00B2               	movwf	??_UART_Init+7
  4548  1493  3004               	movlw	4
  4549  1494                     u4085:
  4550  1494  1003               	clrc
  4551  1495  0DAF               	rlf	??_UART_Init+4,f
  4552  1496  0DB0               	rlf	??_UART_Init+5,f
  4553  1497  0DB1               	rlf	??_UART_Init+6,f
  4554  1498  0DB2               	rlf	??_UART_Init+7,f
  4555  1499                     u4080:
  4556  1499  3EFF               	addlw	-1
  4557  149A  1D03               	skipz
  4558  149B  2C94               	goto	u4085
  4559  149C  3000               	movlw	0
  4560  149D  00B3               	movwf	??_UART_Init+8
  4561  149E  3012               	movlw	18
  4562  149F  00B4               	movwf	??_UART_Init+9
  4563  14A0  307A               	movlw	122
  4564  14A1  00B5               	movwf	??_UART_Init+10
  4565  14A2  3000               	movlw	0
  4566  14A3  00B6               	movwf	??_UART_Init+11
  4567  14A4  082F               	movf	??_UART_Init+4,w
  4568  14A5  02B3               	subwf	??_UART_Init+8,f
  4569  14A6  0830               	movf	??_UART_Init+5,w
  4570  14A7  1C03               	skipc
  4571  14A8  0F30               	incfsz	??_UART_Init+5,w
  4572  14A9  2CAB               	goto	u4091
  4573  14AA  2CAC               	goto	u4092
  4574  14AB                     u4091:
  4575  14AB  02B4               	subwf	??_UART_Init+9,f
  4576  14AC                     u4092:
  4577  14AC  0831               	movf	??_UART_Init+6,w
  4578  14AD  1C03               	skipc
  4579  14AE  0F31               	incfsz	??_UART_Init+6,w
  4580  14AF  2CB1               	goto	u4093
  4581  14B0  2CB2               	goto	u4094
  4582  14B1                     u4093:
  4583  14B1  02B5               	subwf	??_UART_Init+10,f
  4584  14B2                     u4094:
  4585  14B2  0832               	movf	??_UART_Init+7,w
  4586  14B3  1C03               	skipc
  4587  14B4  0F32               	incfsz	??_UART_Init+7,w
  4588  14B5  2CB7               	goto	u4095
  4589  14B6  2CB8               	goto	u4096
  4590  14B7                     u4095:
  4591  14B7  02B6               	subwf	??_UART_Init+11,f
  4592  14B8                     u4096:
  4593  14B8  0836               	movf	??_UART_Init+11,w
  4594  14B9  00F9               	movwf	___aldiv@dividend+3
  4595  14BA  0835               	movf	??_UART_Init+10,w
  4596  14BB  00F8               	movwf	___aldiv@dividend+2
  4597  14BC  0834               	movf	??_UART_Init+9,w
  4598  14BD  00F7               	movwf	___aldiv@dividend+1
  4599  14BE  0833               	movf	??_UART_Init+8,w
  4600  14BF  00F6               	movwf	___aldiv@dividend
  4601  14C0  160A  118A  2371  160A  118A  	fcall	___aldiv
  4602  14C5  0873               	movf	?___aldiv+1,w
  4603  14C6  1283               	bcf	3,5	;RP0=0, select bank0
  4604  14C7  1303               	bcf	3,6	;RP1=0, select bank0
  4605  14C8  00B8               	movwf	UART_Init@x+1
  4606  14C9  0872               	movf	?___aldiv,w
  4607  14CA  00B7               	movwf	UART_Init@x
  4608  14CB                     l3761:
  4609                           
  4610                           ;./uart.h: 10:   BRGH = 1;
  4611  14CB  1683               	bsf	3,5	;RP0=1, select bank1
  4612  14CC  1303               	bcf	3,6	;RP1=0, select bank1
  4613  14CD  1518               	bsf	24,2	;volatile
  4614  14CE                     l3763:
  4615                           
  4616                           ;./uart.h: 12:  if(x<256)
  4617  14CE  3001               	movlw	1
  4618  14CF  1283               	bcf	3,5	;RP0=0, select bank0
  4619  14D0  0238               	subwf	UART_Init@x+1,w
  4620  14D1  3000               	movlw	0
  4621  14D2  1903               	skipnz
  4622  14D3  0237               	subwf	UART_Init@x,w
  4623  14D4  1803               	skipnc
  4624  14D5  2CD7               	goto	u4101
  4625  14D6  2CD8               	goto	u4100
  4626  14D7                     u4101:
  4627  14D7  2CEA               	goto	l113
  4628  14D8                     u4100:
  4629  14D8                     l3765:
  4630                           
  4631                           ;./uart.h: 13:  {;./uart.h: 14:    SPBRG = x;
  4632  14D8  0837               	movf	UART_Init@x,w
  4633  14D9  1683               	bsf	3,5	;RP0=1, select bank1
  4634  14DA  1303               	bcf	3,6	;RP1=0, select bank1
  4635  14DB  0099               	movwf	25	;volatile
  4636  14DC                     l3767:
  4637                           
  4638                           ;./uart.h: 15:    SYNC = 0;
  4639  14DC  1218               	bcf	24,4	;volatile
  4640  14DD                     l3769:
  4641                           
  4642                           ;./uart.h: 16:    SPEN = 1;
  4643  14DD  1283               	bcf	3,5	;RP0=0, select bank0
  4644  14DE  1303               	bcf	3,6	;RP1=0, select bank0
  4645  14DF  1798               	bsf	24,7	;volatile
  4646  14E0                     l3771:
  4647                           
  4648                           ;./uart.h: 17:           TRISC7 = 1;
  4649  14E0  1683               	bsf	3,5	;RP0=1, select bank1
  4650  14E1  1303               	bcf	3,6	;RP1=0, select bank1
  4651  14E2  1787               	bsf	7,7	;volatile
  4652  14E3                     l3773:
  4653                           
  4654                           ;./uart.h: 18:           TRISC6 = 1;
  4655  14E3  1707               	bsf	7,6	;volatile
  4656  14E4                     l3775:
  4657                           
  4658                           ;./uart.h: 19:           CREN = 1;
  4659  14E4  1283               	bcf	3,5	;RP0=0, select bank0
  4660  14E5  1303               	bcf	3,6	;RP1=0, select bank0
  4661  14E6  1618               	bsf	24,4	;volatile
  4662  14E7                     l3777:
  4663                           
  4664                           ;./uart.h: 20:           TXEN = 1;
  4665  14E7  1683               	bsf	3,5	;RP0=1, select bank1
  4666  14E8  1303               	bcf	3,6	;RP1=0, select bank1
  4667  14E9  1698               	bsf	24,5	;volatile
  4668  14EA                     l113:
  4669  14EA  0008               	return
  4670  14EB                     __end_of_UART_Init:
  4671                           
  4672                           	psect	text13
  4673  1371                     __ptext13:	
  4674 ;; *************** function ___aldiv *****************
  4675 ;; Defined at:
  4676 ;;		line 5 in file "C:\Program Files\Microchip\xc8\v2.31\pic\sources\c90\common\aldiv.c"
  4677 ;; Parameters:    Size  Location     Type
  4678 ;;  divisor         4    2[COMMON] long 
  4679 ;;  dividend        4    6[COMMON] long 
  4680 ;; Auto vars:     Size  Location     Type
  4681 ;;  quotient        4    3[BANK0 ] long 
  4682 ;;  sign            1    2[BANK0 ] unsigned char 
  4683 ;;  counter         1    1[BANK0 ] unsigned char 
  4684 ;; Return value:  Size  Location     Type
  4685 ;;                  4    2[COMMON] long 
  4686 ;; Registers used:
  4687 ;;		wreg, status,2, status,0
  4688 ;; Tracked objects:
  4689 ;;		On entry : 0/0
  4690 ;;		On exit  : 0/0
  4691 ;;		Unchanged: 0/0
  4692 ;; Data sizes:     COMMON   BANK0   BANK1   BANK3   BANK2
  4693 ;;      Params:         8       0       0       0       0
  4694 ;;      Locals:         0       6       0       0       0
  4695 ;;      Temps:          0       1       0       0       0
  4696 ;;      Totals:         8       7       0       0       0
  4697 ;;Total ram usage:       15 bytes
  4698 ;; Hardware stack levels used:    1
  4699 ;; Hardware stack levels required when called:    1
  4700 ;; This function calls:
  4701 ;;		Nothing
  4702 ;; This function is called by:
  4703 ;;		_UART_Init
  4704 ;; This function uses a non-reentrant model
  4705 ;;
  4706                           
  4707                           
  4708                           ;psect for function ___aldiv
  4709  1371                     ___aldiv:
  4710  1371                     l3715:	
  4711                           ;incstack = 0
  4712                           ; Regs used in ___aldiv: [wreg+status,2+status,0]
  4713                           
  4714  1371  1283               	bcf	3,5	;RP0=0, select bank0
  4715  1372  1303               	bcf	3,6	;RP1=0, select bank0
  4716  1373  01A2               	clrf	___aldiv@sign
  4717  1374                     l3717:
  4718  1374  1FF5               	btfss	___aldiv@divisor+3,7
  4719  1375  2B77               	goto	u3931
  4720  1376  2B78               	goto	u3930
  4721  1377                     u3931:
  4722  1377  2B85               	goto	l686
  4723  1378                     u3930:
  4724  1378                     l3719:
  4725  1378  09F2               	comf	___aldiv@divisor,f
  4726  1379  09F3               	comf	___aldiv@divisor+1,f
  4727  137A  09F4               	comf	___aldiv@divisor+2,f
  4728  137B  09F5               	comf	___aldiv@divisor+3,f
  4729  137C  0AF2               	incf	___aldiv@divisor,f
  4730  137D  1903               	skipnz
  4731  137E  0AF3               	incf	___aldiv@divisor+1,f
  4732  137F  1903               	skipnz
  4733  1380  0AF4               	incf	___aldiv@divisor+2,f
  4734  1381  1903               	skipnz
  4735  1382  0AF5               	incf	___aldiv@divisor+3,f
  4736  1383  01A2               	clrf	___aldiv@sign
  4737  1384  0AA2               	incf	___aldiv@sign,f
  4738  1385                     l686:
  4739  1385  1FF9               	btfss	___aldiv@dividend+3,7
  4740  1386  2B88               	goto	u3941
  4741  1387  2B89               	goto	u3940
  4742  1388                     u3941:
  4743  1388  2B98               	goto	l3725
  4744  1389                     u3940:
  4745  1389                     l3721:
  4746  1389  09F6               	comf	___aldiv@dividend,f
  4747  138A  09F7               	comf	___aldiv@dividend+1,f
  4748  138B  09F8               	comf	___aldiv@dividend+2,f
  4749  138C  09F9               	comf	___aldiv@dividend+3,f
  4750  138D  0AF6               	incf	___aldiv@dividend,f
  4751  138E  1903               	skipnz
  4752  138F  0AF7               	incf	___aldiv@dividend+1,f
  4753  1390  1903               	skipnz
  4754  1391  0AF8               	incf	___aldiv@dividend+2,f
  4755  1392  1903               	skipnz
  4756  1393  0AF9               	incf	___aldiv@dividend+3,f
  4757  1394                     l3723:
  4758  1394  3001               	movlw	1
  4759  1395  00A0               	movwf	??___aldiv
  4760  1396  0820               	movf	??___aldiv,w
  4761  1397  06A2               	xorwf	___aldiv@sign,f
  4762  1398                     l3725:
  4763  1398  3000               	movlw	0
  4764  1399  00A6               	movwf	___aldiv@quotient+3
  4765  139A  3000               	movlw	0
  4766  139B  00A5               	movwf	___aldiv@quotient+2
  4767  139C  3000               	movlw	0
  4768  139D  00A4               	movwf	___aldiv@quotient+1
  4769  139E  3000               	movlw	0
  4770  139F  00A3               	movwf	___aldiv@quotient
  4771  13A0                     l3727:
  4772  13A0  0875               	movf	___aldiv@divisor+3,w
  4773  13A1  0474               	iorwf	___aldiv@divisor+2,w
  4774  13A2  0473               	iorwf	___aldiv@divisor+1,w
  4775  13A3  0472               	iorwf	___aldiv@divisor,w
  4776  13A4  1903               	skipnz
  4777  13A5  2BA7               	goto	u3951
  4778  13A6  2BA8               	goto	u3950
  4779  13A7                     u3951:
  4780  13A7  2BF5               	goto	l3747
  4781  13A8                     u3950:
  4782  13A8                     l3729:
  4783  13A8  01A1               	clrf	___aldiv@counter
  4784  13A9  0AA1               	incf	___aldiv@counter,f
  4785  13AA  2BB8               	goto	l3733
  4786  13AB                     l3731:
  4787  13AB  3001               	movlw	1
  4788  13AC  00A0               	movwf	??___aldiv
  4789  13AD                     u3965:
  4790  13AD  1003               	clrc
  4791  13AE  0DF2               	rlf	___aldiv@divisor,f
  4792  13AF  0DF3               	rlf	___aldiv@divisor+1,f
  4793  13B0  0DF4               	rlf	___aldiv@divisor+2,f
  4794  13B1  0DF5               	rlf	___aldiv@divisor+3,f
  4795  13B2  0BA0               	decfsz	??___aldiv,f
  4796  13B3  2BAD               	goto	u3965
  4797  13B4  3001               	movlw	1
  4798  13B5  00A0               	movwf	??___aldiv
  4799  13B6  0820               	movf	??___aldiv,w
  4800  13B7  07A1               	addwf	___aldiv@counter,f
  4801  13B8                     l3733:
  4802  13B8  1FF5               	btfss	___aldiv@divisor+3,7
  4803  13B9  2BBB               	goto	u3971
  4804  13BA  2BBC               	goto	u3970
  4805  13BB                     u3971:
  4806  13BB  2BAB               	goto	l3731
  4807  13BC                     u3970:
  4808  13BC                     l3735:
  4809  13BC  3001               	movlw	1
  4810  13BD  00A0               	movwf	??___aldiv
  4811  13BE                     u3985:
  4812  13BE  1003               	clrc
  4813  13BF  0DA3               	rlf	___aldiv@quotient,f
  4814  13C0  0DA4               	rlf	___aldiv@quotient+1,f
  4815  13C1  0DA5               	rlf	___aldiv@quotient+2,f
  4816  13C2  0DA6               	rlf	___aldiv@quotient+3,f
  4817  13C3  0BA0               	decfsz	??___aldiv,f
  4818  13C4  2BBE               	goto	u3985
  4819  13C5                     l3737:
  4820  13C5  0875               	movf	___aldiv@divisor+3,w
  4821  13C6  0279               	subwf	___aldiv@dividend+3,w
  4822  13C7  1D03               	skipz
  4823  13C8  2BD3               	goto	u3995
  4824  13C9  0874               	movf	___aldiv@divisor+2,w
  4825  13CA  0278               	subwf	___aldiv@dividend+2,w
  4826  13CB  1D03               	skipz
  4827  13CC  2BD3               	goto	u3995
  4828  13CD  0873               	movf	___aldiv@divisor+1,w
  4829  13CE  0277               	subwf	___aldiv@dividend+1,w
  4830  13CF  1D03               	skipz
  4831  13D0  2BD3               	goto	u3995
  4832  13D1  0872               	movf	___aldiv@divisor,w
  4833  13D2  0276               	subwf	___aldiv@dividend,w
  4834  13D3                     u3995:
  4835  13D3  1C03               	skipc
  4836  13D4  2BD6               	goto	u3991
  4837  13D5  2BD7               	goto	u3990
  4838  13D6                     u3991:
  4839  13D6  2BE6               	goto	l3743
  4840  13D7                     u3990:
  4841  13D7                     l3739:
  4842  13D7  0872               	movf	___aldiv@divisor,w
  4843  13D8  02F6               	subwf	___aldiv@dividend,f
  4844  13D9  0873               	movf	___aldiv@divisor+1,w
  4845  13DA  1C03               	skipc
  4846  13DB  0F73               	incfsz	___aldiv@divisor+1,w
  4847  13DC  02F7               	subwf	___aldiv@dividend+1,f
  4848  13DD  0874               	movf	___aldiv@divisor+2,w
  4849  13DE  1C03               	skipc
  4850  13DF  0F74               	incfsz	___aldiv@divisor+2,w
  4851  13E0  02F8               	subwf	___aldiv@dividend+2,f
  4852  13E1  0875               	movf	___aldiv@divisor+3,w
  4853  13E2  1C03               	skipc
  4854  13E3  0F75               	incfsz	___aldiv@divisor+3,w
  4855  13E4  02F9               	subwf	___aldiv@dividend+3,f
  4856  13E5                     l3741:
  4857  13E5  1423               	bsf	___aldiv@quotient,0
  4858  13E6                     l3743:
  4859  13E6  3001               	movlw	1
  4860  13E7                     u4005:
  4861  13E7  1003               	clrc
  4862  13E8  0CF5               	rrf	___aldiv@divisor+3,f
  4863  13E9  0CF4               	rrf	___aldiv@divisor+2,f
  4864  13EA  0CF3               	rrf	___aldiv@divisor+1,f
  4865  13EB  0CF2               	rrf	___aldiv@divisor,f
  4866  13EC  3EFF               	addlw	-1
  4867  13ED  1D03               	skipz
  4868  13EE  2BE7               	goto	u4005
  4869  13EF                     l3745:
  4870  13EF  3001               	movlw	1
  4871  13F0  02A1               	subwf	___aldiv@counter,f
  4872  13F1  1D03               	btfss	3,2
  4873  13F2  2BF4               	goto	u4011
  4874  13F3  2BF5               	goto	u4010
  4875  13F4                     u4011:
  4876  13F4  2BBC               	goto	l3735
  4877  13F5                     u4010:
  4878  13F5                     l3747:
  4879  13F5  0822               	movf	___aldiv@sign,w
  4880  13F6  1903               	btfsc	3,2
  4881  13F7  2BF9               	goto	u4021
  4882  13F8  2BFA               	goto	u4020
  4883  13F9                     u4021:
  4884  13F9  2C05               	goto	l3751
  4885  13FA                     u4020:
  4886  13FA                     l3749:
  4887  13FA  09A3               	comf	___aldiv@quotient,f
  4888  13FB  09A4               	comf	___aldiv@quotient+1,f
  4889  13FC  09A5               	comf	___aldiv@quotient+2,f
  4890  13FD  09A6               	comf	___aldiv@quotient+3,f
  4891  13FE  0AA3               	incf	___aldiv@quotient,f
  4892  13FF  1903               	skipnz
  4893  1400  0AA4               	incf	___aldiv@quotient+1,f
  4894  1401  1903               	skipnz
  4895  1402  0AA5               	incf	___aldiv@quotient+2,f
  4896  1403  1903               	skipnz
  4897  1404  0AA6               	incf	___aldiv@quotient+3,f
  4898  1405                     l3751:
  4899  1405  0826               	movf	___aldiv@quotient+3,w
  4900  1406  00F5               	movwf	?___aldiv+3
  4901  1407  0825               	movf	___aldiv@quotient+2,w
  4902  1408  00F4               	movwf	?___aldiv+2
  4903  1409  0824               	movf	___aldiv@quotient+1,w
  4904  140A  00F3               	movwf	?___aldiv+1
  4905  140B  0823               	movf	___aldiv@quotient,w
  4906  140C  00F2               	movwf	?___aldiv
  4907  140D                     l696:
  4908  140D  0008               	return
  4909  140E                     __end_of___aldiv:
  4910                           
  4911                           	psect	text14
  4912  12FA                     __ptext14:	
  4913 ;; *************** function _LCD_ini *****************
  4914 ;; Defined at:
  4915 ;;		line 22 in file "LCD.c"
  4916 ;; Parameters:    Size  Location     Type
  4917 ;;		None
  4918 ;; Auto vars:     Size  Location     Type
  4919 ;;		None
  4920 ;; Return value:  Size  Location     Type
  4921 ;;                  1    wreg      void 
  4922 ;; Registers used:
  4923 ;;		wreg, status,2, status,0, pclath, cstack
  4924 ;; Tracked objects:
  4925 ;;		On entry : 0/0
  4926 ;;		On exit  : 0/0
  4927 ;;		Unchanged: 0/0
  4928 ;; Data sizes:     COMMON   BANK0   BANK1   BANK3   BANK2
  4929 ;;      Params:         0       0       0       0       0
  4930 ;;      Locals:         0       0       0       0       0
  4931 ;;      Temps:          2       0       0       0       0
  4932 ;;      Totals:         2       0       0       0       0
  4933 ;;Total ram usage:        2 bytes
  4934 ;; Hardware stack levels used:    1
  4935 ;; Hardware stack levels required when called:    2
  4936 ;; This function calls:
  4937 ;;		_LCD_cmd
  4938 ;; This function is called by:
  4939 ;;		_setup
  4940 ;; This function uses a non-reentrant model
  4941 ;;
  4942                           
  4943                           
  4944                           ;psect for function _LCD_ini
  4945  12FA                     _LCD_ini:
  4946  12FA                     l2543:	
  4947                           ;incstack = 0
  4948                           ; Regs used in _LCD_ini: [wreg+status,2+status,0+pclath+cstack]
  4949                           
  4950                           
  4951                           ;LCD.c: 23:     TRISD = 0;
  4952  12FA  1683               	bsf	3,5	;RP0=1, select bank1
  4953  12FB  1303               	bcf	3,6	;RP1=0, select bank1
  4954  12FC  0188               	clrf	8	;volatile
  4955                           
  4956                           ;LCD.c: 24:     PORTD = 0;
  4957  12FD  1283               	bcf	3,5	;RP0=0, select bank0
  4958  12FE  1303               	bcf	3,6	;RP1=0, select bank0
  4959  12FF  0188               	clrf	8	;volatile
  4960  1300                     l2545:
  4961                           
  4962                           ;LCD.c: 26:     TRISCbits.TRISC0 = 0;
  4963  1300  1683               	bsf	3,5	;RP0=1, select bank1
  4964  1301  1303               	bcf	3,6	;RP1=0, select bank1
  4965  1302  1007               	bcf	7,0	;volatile
  4966  1303                     l2547:
  4967                           
  4968                           ;LCD.c: 27:     TRISCbits.TRISC1 = 0;
  4969  1303  1087               	bcf	7,1	;volatile
  4970  1304                     l2549:
  4971                           
  4972                           ;LCD.c: 29:     _delay((unsigned long)((20)*(4000000/4000.0)));
  4973  1304  301A               	movlw	26
  4974  1305  00F6               	movwf	??_LCD_ini+1
  4975  1306  30F8               	movlw	248
  4976  1307  00F5               	movwf	??_LCD_ini
  4977  1308                     u6027:
  4978  1308  0BF5               	decfsz	??_LCD_ini,f
  4979  1309  2B08               	goto	u6027
  4980  130A  0BF6               	decfsz	??_LCD_ini+1,f
  4981  130B  2B08               	goto	u6027
  4982  130C  0000               	nop
  4983  130D                     l2551:
  4984                           
  4985                           ;LCD.c: 31:     PORTCbits.RC0 = 0;
  4986  130D  1283               	bcf	3,5	;RP0=0, select bank0
  4987  130E  1303               	bcf	3,6	;RP1=0, select bank0
  4988  130F  1007               	bcf	7,0	;volatile
  4989  1310                     l2553:
  4990                           
  4991                           ;LCD.c: 32:     LCD_cmd(0b00110000);
  4992  1310  3030               	movlw	48
  4993  1311  160A  118A  2266  160A  118A  	fcall	_LCD_cmd
  4994  1316                     l2555:
  4995                           
  4996                           ;LCD.c: 34:     _delay((unsigned long)((6)*(4000000/4000.0)));
  4997  1316  3008               	movlw	8
  4998  1317  00F6               	movwf	??_LCD_ini+1
  4999  1318  30C9               	movlw	201
  5000  1319  00F5               	movwf	??_LCD_ini
  5001  131A                     u6037:
  5002  131A  0BF5               	decfsz	??_LCD_ini,f
  5003  131B  2B1A               	goto	u6037
  5004  131C  0BF6               	decfsz	??_LCD_ini+1,f
  5005  131D  2B1A               	goto	u6037
  5006  131E  2B1F               	nop2
  5007  131F                     l2557:
  5008                           
  5009                           ;LCD.c: 36:     LCD_cmd(0b00110000);
  5010  131F  3030               	movlw	48
  5011  1320  160A  118A  2266  160A  118A  	fcall	_LCD_cmd
  5012  1325                     l2559:
  5013                           
  5014                           ;LCD.c: 38:     _delay((unsigned long)((11)*(4000000/4000.0)));
  5015  1325  300F               	movlw	15
  5016  1326  00F6               	movwf	??_LCD_ini+1
  5017  1327  3047               	movlw	71
  5018  1328  00F5               	movwf	??_LCD_ini
  5019  1329                     u6047:
  5020  1329  0BF5               	decfsz	??_LCD_ini,f
  5021  132A  2B29               	goto	u6047
  5022  132B  0BF6               	decfsz	??_LCD_ini+1,f
  5023  132C  2B29               	goto	u6047
  5024  132D  2B2E               	nop2
  5025  132E                     l2561:
  5026                           
  5027                           ;LCD.c: 40:     LCD_cmd(0b00110000);
  5028  132E  3030               	movlw	48
  5029  132F  160A  118A  2266  160A  118A  	fcall	_LCD_cmd
  5030  1334                     l2563:
  5031                           
  5032                           ;LCD.c: 42:     _delay((unsigned long)((2)*(4000000/4000.0)));
  5033  1334  3003               	movlw	3
  5034  1335  00F6               	movwf	??_LCD_ini+1
  5035  1336  3097               	movlw	151
  5036  1337  00F5               	movwf	??_LCD_ini
  5037  1338                     u6057:
  5038  1338  0BF5               	decfsz	??_LCD_ini,f
  5039  1339  2B38               	goto	u6057
  5040  133A  0BF6               	decfsz	??_LCD_ini+1,f
  5041  133B  2B38               	goto	u6057
  5042  133C  2B3D               	nop2
  5043  133D                     l2565:
  5044                           
  5045                           ;LCD.c: 44:     LCD_cmd(0b00111000);
  5046  133D  3038               	movlw	56
  5047  133E  160A  118A  2266  160A  118A  	fcall	_LCD_cmd
  5048  1343                     l2567:
  5049                           
  5050                           ;LCD.c: 45:     _delay((unsigned long)((2)*(4000000/4000.0)));
  5051  1343  3003               	movlw	3
  5052  1344  00F6               	movwf	??_LCD_ini+1
  5053  1345  3097               	movlw	151
  5054  1346  00F5               	movwf	??_LCD_ini
  5055  1347                     u6067:
  5056  1347  0BF5               	decfsz	??_LCD_ini,f
  5057  1348  2B47               	goto	u6067
  5058  1349  0BF6               	decfsz	??_LCD_ini+1,f
  5059  134A  2B47               	goto	u6067
  5060  134B  2B4C               	nop2
  5061  134C                     l2569:
  5062                           
  5063                           ;LCD.c: 47:     LCD_cmd(0b00001100);
  5064  134C  300C               	movlw	12
  5065  134D  160A  118A  2266  160A  118A  	fcall	_LCD_cmd
  5066  1352                     l2571:
  5067                           
  5068                           ;LCD.c: 48:     _delay((unsigned long)((2)*(4000000/4000.0)));
  5069  1352  3003               	movlw	3
  5070  1353  00F6               	movwf	??_LCD_ini+1
  5071  1354  3097               	movlw	151
  5072  1355  00F5               	movwf	??_LCD_ini
  5073  1356                     u6077:
  5074  1356  0BF5               	decfsz	??_LCD_ini,f
  5075  1357  2B56               	goto	u6077
  5076  1358  0BF6               	decfsz	??_LCD_ini+1,f
  5077  1359  2B56               	goto	u6077
  5078  135A  2B5B               	nop2
  5079  135B                     l2573:
  5080                           
  5081                           ;LCD.c: 50:     LCD_cmd(0b00000001);
  5082  135B  3001               	movlw	1
  5083  135C  160A  118A  2266  160A  118A  	fcall	_LCD_cmd
  5084  1361                     l2575:
  5085                           
  5086                           ;LCD.c: 51:     _delay((unsigned long)((2)*(4000000/4000.0)));
  5087  1361  3003               	movlw	3
  5088  1362  00F6               	movwf	??_LCD_ini+1
  5089  1363  3097               	movlw	151
  5090  1364  00F5               	movwf	??_LCD_ini
  5091  1365                     u6087:
  5092  1365  0BF5               	decfsz	??_LCD_ini,f
  5093  1366  2B65               	goto	u6087
  5094  1367  0BF6               	decfsz	??_LCD_ini+1,f
  5095  1368  2B65               	goto	u6087
  5096  1369  2B6A               	nop2
  5097  136A                     l2577:
  5098                           
  5099                           ;LCD.c: 53:     LCD_cmd(0b00000110);
  5100  136A  3006               	movlw	6
  5101  136B  160A  118A  2266  160A  118A  	fcall	_LCD_cmd
  5102  1370                     l517:
  5103  1370  0008               	return
  5104  1371                     __end_of_LCD_ini:
  5105                           
  5106                           	psect	text15
  5107  125A                     __ptext15:	
  5108 ;; *************** function _UART_Write *****************
  5109 ;; Defined at:
  5110 ;;		line 49 in file "./uart.h"
  5111 ;; Parameters:    Size  Location     Type
  5112 ;;  data            1    wreg     unsigned char 
  5113 ;; Auto vars:     Size  Location     Type
  5114 ;;  data            1    2[COMMON] unsigned char 
  5115 ;; Return value:  Size  Location     Type
  5116 ;;                  1    wreg      void 
  5117 ;; Registers used:
  5118 ;;		wreg
  5119 ;; Tracked objects:
  5120 ;;		On entry : 0/0
  5121 ;;		On exit  : 0/0
  5122 ;;		Unchanged: 0/0
  5123 ;; Data sizes:     COMMON   BANK0   BANK1   BANK3   BANK2
  5124 ;;      Params:         0       0       0       0       0
  5125 ;;      Locals:         1       0       0       0       0
  5126 ;;      Temps:          0       0       0       0       0
  5127 ;;      Totals:         1       0       0       0       0
  5128 ;;Total ram usage:        1 bytes
  5129 ;; Hardware stack levels used:    1
  5130 ;; Hardware stack levels required when called:    1
  5131 ;; This function calls:
  5132 ;;		Nothing
  5133 ;; This function is called by:
  5134 ;;		_main
  5135 ;;		_UART_Write_Text
  5136 ;; This function uses a non-reentrant model
  5137 ;;
  5138                           
  5139                           
  5140                           ;psect for function _UART_Write
  5141  125A                     _UART_Write:
  5142                           
  5143                           ;incstack = 0
  5144                           ; Regs used in _UART_Write: [wreg]
  5145                           ;UART_Write@data stored from wreg
  5146  125A  00F2               	movwf	UART_Write@data
  5147  125B                     l2587:
  5148  125B                     l134:	
  5149                           ;./uart.h: 49: void UART_Write(char data);./uart.h: 50: {;./uart.h: 51:   while(!TRMT);
  5150                           
  5151  125B  1683               	bsf	3,5	;RP0=1, select bank1
  5152  125C  1303               	bcf	3,6	;RP1=0, select bank1
  5153  125D  1C98               	btfss	24,1	;volatile
  5154  125E  2A60               	goto	u2231
  5155  125F  2A61               	goto	u2230
  5156  1260                     u2231:
  5157  1260  2A5B               	goto	l134
  5158  1261                     u2230:
  5159  1261                     l2589:
  5160                           
  5161                           ;./uart.h: 52:   TXREG = data;
  5162  1261  0872               	movf	UART_Write@data,w
  5163  1262  1283               	bcf	3,5	;RP0=0, select bank0
  5164  1263  1303               	bcf	3,6	;RP1=0, select bank0
  5165  1264  0099               	movwf	25	;volatile
  5166  1265                     l137:
  5167  1265  0008               	return
  5168  1266                     __end_of_UART_Write:
  5169                           
  5170                           	psect	text16
  5171  124A                     __ptext16:	
  5172 ;; *************** function _LCD_clear *****************
  5173 ;; Defined at:
  5174 ;;		line 57 in file "LCD.c"
  5175 ;; Parameters:    Size  Location     Type
  5176 ;;		None
  5177 ;; Auto vars:     Size  Location     Type
  5178 ;;		None
  5179 ;; Return value:  Size  Location     Type
  5180 ;;                  1    wreg      void 
  5181 ;; Registers used:
  5182 ;;		wreg, status,2, status,0, pclath, cstack
  5183 ;; Tracked objects:
  5184 ;;		On entry : 0/0
  5185 ;;		On exit  : 0/0
  5186 ;;		Unchanged: 0/0
  5187 ;; Data sizes:     COMMON   BANK0   BANK1   BANK3   BANK2
  5188 ;;      Params:         0       0       0       0       0
  5189 ;;      Locals:         0       0       0       0       0
  5190 ;;      Temps:          0       0       0       0       0
  5191 ;;      Totals:         0       0       0       0       0
  5192 ;;Total ram usage:        0 bytes
  5193 ;; Hardware stack levels used:    1
  5194 ;; Hardware stack levels required when called:    2
  5195 ;; This function calls:
  5196 ;;		_LCD_cmd
  5197 ;; This function is called by:
  5198 ;;		_main
  5199 ;; This function uses a non-reentrant model
  5200 ;;
  5201                           
  5202                           
  5203                           ;psect for function _LCD_clear
  5204  124A                     _LCD_clear:
  5205  124A                     l2621:	
  5206                           ;incstack = 0
  5207                           ; Regs used in _LCD_clear: [wreg+status,2+status,0+pclath+cstack]
  5208                           
  5209                           
  5210                           ;LCD.c: 59:     LCD_cmd(1);
  5211  124A  3001               	movlw	1
  5212  124B  160A  118A  2266  160A  118A  	fcall	_LCD_cmd
  5213  1250                     l520:
  5214  1250  0008               	return
  5215  1251                     __end_of_LCD_clear:
  5216                           
  5217                           	psect	text17
  5218  1266                     __ptext17:	
  5219 ;; *************** function _LCD_cmd *****************
  5220 ;; Defined at:
  5221 ;;		line 12 in file "LCD.c"
  5222 ;; Parameters:    Size  Location     Type
  5223 ;;  cmd             1    wreg     unsigned char 
  5224 ;; Auto vars:     Size  Location     Type
  5225 ;;  cmd             1    4[COMMON] unsigned char 
  5226 ;; Return value:  Size  Location     Type
  5227 ;;                  1    wreg      void 
  5228 ;; Registers used:
  5229 ;;		wreg
  5230 ;; Tracked objects:
  5231 ;;		On entry : 0/0
  5232 ;;		On exit  : 0/0
  5233 ;;		Unchanged: 0/0
  5234 ;; Data sizes:     COMMON   BANK0   BANK1   BANK3   BANK2
  5235 ;;      Params:         0       0       0       0       0
  5236 ;;      Locals:         1       0       0       0       0
  5237 ;;      Temps:          2       0       0       0       0
  5238 ;;      Totals:         3       0       0       0       0
  5239 ;;Total ram usage:        3 bytes
  5240 ;; Hardware stack levels used:    1
  5241 ;; Hardware stack levels required when called:    1
  5242 ;; This function calls:
  5243 ;;		Nothing
  5244 ;; This function is called by:
  5245 ;;		_LCD_ini
  5246 ;;		_LCD_clear
  5247 ;;		_LCD_cursor
  5248 ;; This function uses a non-reentrant model
  5249 ;;
  5250                           
  5251                           
  5252                           ;psect for function _LCD_cmd
  5253  1266                     _LCD_cmd:
  5254                           
  5255                           ;incstack = 0
  5256                           ; Regs used in _LCD_cmd: [wreg]
  5257                           ;LCD_cmd@cmd stored from wreg
  5258  1266  00F4               	movwf	LCD_cmd@cmd
  5259  1267                     l2429:
  5260                           
  5261                           ;LCD.c: 14:     PORTCbits.RC0 = 0;
  5262  1267  1283               	bcf	3,5	;RP0=0, select bank0
  5263  1268  1303               	bcf	3,6	;RP1=0, select bank0
  5264  1269  1007               	bcf	7,0	;volatile
  5265  126A                     l2431:
  5266                           
  5267                           ;LCD.c: 15:  PORTD = cmd;
  5268  126A  0874               	movf	LCD_cmd@cmd,w
  5269  126B  0088               	movwf	8	;volatile
  5270  126C                     l2433:
  5271                           
  5272                           ;LCD.c: 16:  PORTCbits.RC1 = 1;
  5273  126C  1487               	bsf	7,1	;volatile
  5274                           
  5275                           ;LCD.c: 17:         _delay((unsigned long)((4)*(4000000/4000.0)));
  5276  126D  3006               	movlw	6
  5277  126E  00F3               	movwf	??_LCD_cmd+1
  5278  126F  3030               	movlw	48
  5279  1270  00F2               	movwf	??_LCD_cmd
  5280  1271                     u6097:
  5281  1271  0BF2               	decfsz	??_LCD_cmd,f
  5282  1272  2A71               	goto	u6097
  5283  1273  0BF3               	decfsz	??_LCD_cmd+1,f
  5284  1274  2A71               	goto	u6097
  5285  1275  0000               	nop
  5286  1276                     l2435:
  5287                           
  5288                           ;LCD.c: 18:         PORTCbits.RC1 = 0;
  5289  1276  1283               	bcf	3,5	;RP0=0, select bank0
  5290  1277  1303               	bcf	3,6	;RP1=0, select bank0
  5291  1278  1087               	bcf	7,1	;volatile
  5292  1279                     l514:
  5293  1279  0008               	return
  5294  127A                     __end_of_LCD_cmd:
  5295                           
  5296                           	psect	text18
  5297  1243                     __ptext18:	
  5298 ;; *************** function _ISR *****************
  5299 ;; Defined at:
  5300 ;;		line 68 in file "MASTERsrc.c"
  5301 ;; Parameters:    Size  Location     Type
  5302 ;;		None
  5303 ;; Auto vars:     Size  Location     Type
  5304 ;;		None
  5305 ;; Return value:  Size  Location     Type
  5306 ;;                  1    wreg      void 
  5307 ;; Registers used:
  5308 ;;		None
  5309 ;; Tracked objects:
  5310 ;;		On entry : 0/0
  5311 ;;		On exit  : 0/0
  5312 ;;		Unchanged: 0/0
  5313 ;; Data sizes:     COMMON   BANK0   BANK1   BANK3   BANK2
  5314 ;;      Params:         0       0       0       0       0
  5315 ;;      Locals:         0       0       0       0       0
  5316 ;;      Temps:          2       0       0       0       0
  5317 ;;      Totals:         2       0       0       0       0
  5318 ;;Total ram usage:        2 bytes
  5319 ;; Hardware stack levels used:    1
  5320 ;; This function calls:
  5321 ;;		Nothing
  5322 ;; This function is called by:
  5323 ;;		Interrupt level 1
  5324 ;; This function uses a non-reentrant model
  5325 ;;
  5326                           
  5327                           
  5328                           ;psect for function _ISR
  5329  1243                     _ISR:
  5330  1243                     i1l162:
  5331  1243  0871               	movf	??_ISR+1,w
  5332  1244  008A               	movwf	10
  5333  1245  0E70               	swapf	??_ISR,w
  5334  1246  0083               	movwf	3
  5335  1247  0EFE               	swapf	btemp,f
  5336  1248  0E7E               	swapf	btemp,w
  5337  1249  0009               	retfie
  5338  124A                     __end_of_ISR:
  5339  007E                     btemp	set	126	;btemp
  5340  007E                     wtemp0	set	126
  5341                           
  5342                           	psect	intentry
  5343  0004                     __pintentry:	
  5344                           ;incstack = 0
  5345                           ; Regs used in _ISR: []
  5346                           
  5347  0004                     interrupt_function:
  5348  007E                     saved_w	set	btemp
  5349  0004  00FE               	movwf	btemp
  5350  0005  0E03               	swapf	3,w
  5351  0006  00F0               	movwf	??_ISR
  5352  0007  080A               	movf	10,w
  5353  0008  00F1               	movwf	??_ISR+1
  5354  0009  160A  118A  2A43   	ljmp	_ISR
  5355                           
  5356                           	psect	config
  5357                           
  5358                           ;Config register CONFIG1 @ 0x2007
  5359                           ;	Oscillator Selection bits
  5360                           ;	FOSC = INTRC_NOCLKOUT, INTOSCIO oscillator: I/O function on RA6/OSC2/CLKOUT pin, I/O f
      +                          unction on RA7/OSC1/CLKIN
  5361                           ;	Watchdog Timer Enable bit
  5362                           ;	WDTE = OFF, WDT disabled and can be enabled by SWDTEN bit of the WDTCON register
  5363                           ;	Power-up Timer Enable bit
  5364                           ;	PWRTE = OFF, PWRT disabled
  5365                           ;	RE3/MCLR pin function select bit
  5366                           ;	MCLRE = ON, RE3/MCLR pin function is MCLR
  5367                           ;	Code Protection bit
  5368                           ;	CP = OFF, Program memory code protection is disabled
  5369                           ;	Data Code Protection bit
  5370                           ;	CPD = OFF, Data memory code protection is disabled
  5371                           ;	Brown Out Reset Selection bits
  5372                           ;	BOREN = OFF, BOR disabled
  5373                           ;	Internal External Switchover bit
  5374                           ;	IESO = OFF, Internal/External Switchover mode is disabled
  5375                           ;	Fail-Safe Clock Monitor Enabled bit
  5376                           ;	FCMEN = OFF, Fail-Safe Clock Monitor is disabled
  5377                           ;	Low Voltage Programming Enable bit
  5378                           ;	LVP = OFF, RB3 pin has digital I/O, HV on MCLR must be used for programming
  5379                           ;	In-Circuit Debugger Mode bit
  5380                           ;	DEBUG = 0x1, unprogrammed default
  5381  2007                     	org	8199
  5382  2007  20F4               	dw	8436
  5383                           
  5384                           ;Config register CONFIG2 @ 0x2008
  5385                           ;	Brown-out Reset Selection bit
  5386                           ;	BOR4V = BOR40V, Brown-out Reset set to 4.0V
  5387                           ;	Flash Program Memory Self Write Enable bits
  5388                           ;	WRT = OFF, Write protection off
  5389  2008                     	org	8200
  5390  2008  3FFF               	dw	16383
  5391                           
  5392                           	psect	text2_split_1
  5393  16F8                     l4251:
  5394  16F8  3006               	movlw	6
  5395  16F9  0622               	xorwf	transformcounter@p,w
  5396  16FA  1D03               	btfss	3,2
  5397  16FB  2EFD               	goto	u4851
  5398  16FC  2EFE               	goto	u4850
  5399  16FD                     u4851:
  5400  16FD  2F14               	goto	l4257
  5401  16FE                     u4850:
  5402  16FE                     l4253:
  5403  16FE  3002               	movlw	2
  5404  16FF  00F9               	movwf	??_transformcounter
  5405  1700  0879               	movf	??_transformcounter,w
  5406  1701  00F5               	movwf	LCD_cursor@y
  5407  1702  300F               	movlw	15
  5408  1703  160A  118A  2290  160A  118A  	fcall	_LCD_cursor
  5409  1708                     l4255:
  5410  1708  30DB               	movlw	low (STR_71| (0+32768))
  5411  1709  00F4               	movwf	LCD_Wstring@v
  5412  170A  3090               	movlw	high (STR_71| (0+32768))
  5413  170B  00F5               	movwf	LCD_Wstring@v+1
  5414  170C  160A  118A  22B4  160A  118A  	fcall	_LCD_Wstring
  5415  1711                     L2:
  5416  1711  120A  118A  2FA0   	goto	l501
  5417  1714                     l4257:
  5418  1714  3007               	movlw	7
  5419  1715  0622               	xorwf	transformcounter@p,w
  5420  1716  1D03               	btfss	3,2
  5421  1717  2F19               	goto	u4861
  5422  1718  2F1A               	goto	u4860
  5423  1719                     u4861:
  5424  1719  2F2E               	goto	l4263
  5425  171A                     u4860:
  5426  171A                     l4259:
  5427  171A  3002               	movlw	2
  5428  171B  00F9               	movwf	??_transformcounter
  5429  171C  0879               	movf	??_transformcounter,w
  5430  171D  00F5               	movwf	LCD_cursor@y
  5431  171E  300F               	movlw	15
  5432  171F  160A  118A  2290  160A  118A  	fcall	_LCD_cursor
  5433  1724                     l4261:
  5434  1724  30F9               	movlw	low (STR_72| (0+32768))
  5435  1725  00F4               	movwf	LCD_Wstring@v
  5436  1726  3090               	movlw	high (STR_72| (0+32768))
  5437  1727  00F5               	movwf	LCD_Wstring@v+1
  5438  1728  160A  118A  22B4  160A  118A  	fcall	_LCD_Wstring
  5439  172D  2F11               	goto	L2
  5440  172E                     l4263:
  5441  172E  3008               	movlw	8
  5442  172F  0622               	xorwf	transformcounter@p,w
  5443  1730  1D03               	btfss	3,2
  5444  1731  2F33               	goto	u4871
  5445  1732  2F34               	goto	u4870
  5446  1733                     u4871:
  5447  1733  2F48               	goto	l4269
  5448  1734                     u4870:
  5449  1734                     l4265:
  5450  1734  3002               	movlw	2
  5451  1735  00F9               	movwf	??_transformcounter
  5452  1736  0879               	movf	??_transformcounter,w
  5453  1737  00F5               	movwf	LCD_cursor@y
  5454  1738  300F               	movlw	15
  5455  1739  160A  118A  2290  160A  118A  	fcall	_LCD_cursor
  5456  173E                     l4267:
  5457  173E  3017               	movlw	low (STR_73| (0+32768))
  5458  173F  00F4               	movwf	LCD_Wstring@v
  5459  1740  3091               	movlw	high (STR_73| (0+32768))
  5460  1741  00F5               	movwf	LCD_Wstring@v+1
  5461  1742  160A  118A  22B4  160A  118A  	fcall	_LCD_Wstring
  5462  1747  2F11               	goto	L2
  5463  1748                     l4269:
  5464  1748  3009               	movlw	9
  5465  1749  0622               	xorwf	transformcounter@p,w
  5466  174A  1D03               	btfss	3,2
  5467  174B  2F4D               	goto	u4881
  5468  174C  2F4E               	goto	u4880
  5469  174D                     u4881:
  5470  174D  2F62               	goto	l4275
  5471  174E                     u4880:
  5472  174E                     l4271:
  5473  174E  3002               	movlw	2
  5474  174F  00F9               	movwf	??_transformcounter
  5475  1750  0879               	movf	??_transformcounter,w
  5476  1751  00F5               	movwf	LCD_cursor@y
  5477  1752  300F               	movlw	15
  5478  1753  160A  118A  2290  160A  118A  	fcall	_LCD_cursor
  5479  1758                     l4273:
  5480  1758  3035               	movlw	low (STR_74| (0+32768))
  5481  1759  00F4               	movwf	LCD_Wstring@v
  5482  175A  3091               	movlw	high (STR_74| (0+32768))
  5483  175B  00F5               	movwf	LCD_Wstring@v+1
  5484  175C  160A  118A  22B4  160A  118A  	fcall	_LCD_Wstring
  5485  1761  2F11               	goto	L2
  5486  1762                     l4275:
  5487  1762  300A               	movlw	10
  5488  1763  0622               	xorwf	transformcounter@p,w
  5489  1764  1D03               	btfss	3,2
  5490  1765  2F67               	goto	u4891
  5491  1766  2F68               	goto	u4890
  5492  1767                     u4891:
  5493  1767  2F7C               	goto	l4281
  5494  1768                     u4890:
  5495  1768                     l4277:
  5496  1768  3002               	movlw	2
  5497  1769  00F9               	movwf	??_transformcounter
  5498  176A  0879               	movf	??_transformcounter,w
  5499  176B  00F5               	movwf	LCD_cursor@y
  5500  176C  300F               	movlw	15
  5501  176D  160A  118A  2290  160A  118A  	fcall	_LCD_cursor
  5502  1772                     l4279:
  5503  1772  302A               	movlw	low (STR_13| (0+32768))
  5504  1773  00F4               	movwf	LCD_Wstring@v
  5505  1774  3090               	movlw	high (STR_13| (0+32768))
  5506  1775  00F5               	movwf	LCD_Wstring@v+1
  5507  1776  160A  118A  22B4  160A  118A  	fcall	_LCD_Wstring
  5508  177B  2F11               	goto	L2
  5509  177C                     l4281:
  5510  177C  300B               	movlw	11
  5511  177D  0622               	xorwf	transformcounter@p,w
  5512  177E  1D03               	btfss	3,2
  5513  177F  2F81               	goto	u4901
  5514  1780  2F82               	goto	u4900
  5515  1781                     u4901:
  5516  1781  2F96               	goto	l4287
  5517  1782                     u4900:
  5518  1782                     l4283:
  5519  1782  3002               	movlw	2
  5520  1783  00F9               	movwf	??_transformcounter
  5521  1784  0879               	movf	??_transformcounter,w
  5522  1785  00F5               	movwf	LCD_cursor@y
  5523  1786  300F               	movlw	15
  5524  1787  160A  118A  2290  160A  118A  	fcall	_LCD_cursor
  5525  178C                     l4285:
  5526  178C  3048               	movlw	low (STR_76| (0+32768))
  5527  178D  00F4               	movwf	LCD_Wstring@v
  5528  178E  3090               	movlw	high (STR_76| (0+32768))
  5529  178F  00F5               	movwf	LCD_Wstring@v+1
  5530  1790  160A  118A  22B4  160A  118A  	fcall	_LCD_Wstring
  5531  1795  2F11               	goto	L2
  5532  1796                     l4287:
  5533  1796  300C               	movlw	12
  5534  1797  0622               	xorwf	transformcounter@p,w
  5535  1798  1D03               	btfss	3,2
  5536  1799  2F9B               	goto	u4911
  5537  179A  2F9C               	goto	u4910
  5538  179B                     u4911:
  5539  179B  2FB0               	goto	l4293
  5540  179C                     u4910:
  5541  179C                     l4289:
  5542  179C  3002               	movlw	2
  5543  179D  00F9               	movwf	??_transformcounter
  5544  179E  0879               	movf	??_transformcounter,w
  5545  179F  00F5               	movwf	LCD_cursor@y
  5546  17A0  300F               	movlw	15
  5547  17A1  160A  118A  2290  160A  118A  	fcall	_LCD_cursor
  5548  17A6                     l4291:
  5549  17A6  3066               	movlw	low (STR_14| (0+32768))
  5550  17A7  00F4               	movwf	LCD_Wstring@v
  5551  17A8  3090               	movlw	high (STR_14| (0+32768))
  5552  17A9  00F5               	movwf	LCD_Wstring@v+1
  5553  17AA  160A  118A  22B4  160A  118A  	fcall	_LCD_Wstring
  5554  17AF  2F11               	goto	L2
  5555  17B0                     l4293:
  5556  17B0  300D               	movlw	13
  5557  17B1  0622               	xorwf	transformcounter@p,w
  5558  17B2  1D03               	btfss	3,2
  5559  17B3  2FB5               	goto	u4921
  5560  17B4  2FB6               	goto	u4920
  5561  17B5                     u4921:
  5562  17B5  2FCA               	goto	l4299
  5563  17B6                     u4920:
  5564  17B6                     l4295:
  5565  17B6  3002               	movlw	2
  5566  17B7  00F9               	movwf	??_transformcounter
  5567  17B8  0879               	movf	??_transformcounter,w
  5568  17B9  00F5               	movwf	LCD_cursor@y
  5569  17BA  300F               	movlw	15
  5570  17BB  160A  118A  2290  160A  118A  	fcall	_LCD_cursor
  5571  17C0                     l4297:
  5572  17C0  3084               	movlw	low (STR_78| (0+32768))
  5573  17C1  00F4               	movwf	LCD_Wstring@v
  5574  17C2  3090               	movlw	high (STR_78| (0+32768))
  5575  17C3  00F5               	movwf	LCD_Wstring@v+1
  5576  17C4  160A  118A  22B4  160A  118A  	fcall	_LCD_Wstring
  5577  17C9  2F11               	goto	L2
  5578  17CA                     l4299:
  5579  17CA  300E               	movlw	14
  5580  17CB  0622               	xorwf	transformcounter@p,w
  5581  17CC  1D03               	btfss	3,2
  5582  17CD  2FCF               	goto	u4931
  5583  17CE  2FD0               	goto	u4930
  5584  17CF                     u4931:
  5585  17CF  2FE4               	goto	l4305
  5586  17D0                     u4930:
  5587  17D0                     l4301:
  5588  17D0  3002               	movlw	2
  5589  17D1  00F9               	movwf	??_transformcounter
  5590  17D2  0879               	movf	??_transformcounter,w
  5591  17D3  00F5               	movwf	LCD_cursor@y
  5592  17D4  300F               	movlw	15
  5593  17D5  160A  118A  2290  160A  118A  	fcall	_LCD_cursor
  5594  17DA                     l4303:
  5595  17DA  30A2               	movlw	low (STR_15| (0+32768))
  5596  17DB  00F4               	movwf	LCD_Wstring@v
  5597  17DC  3090               	movlw	high (STR_15| (0+32768))
  5598  17DD  00F5               	movwf	LCD_Wstring@v+1
  5599  17DE  160A  118A  22B4  160A  118A  	fcall	_LCD_Wstring
  5600  17E3  2F11               	goto	L2
  5601  17E4                     l4305:
  5602  17E4  300F               	movlw	15
  5603  17E5  0622               	xorwf	transformcounter@p,w
  5604  17E6  1D03               	btfss	3,2
  5605  17E7  2FE9               	goto	u4941
  5606  17E8  2FEC               	goto	u4940
  5607  17E9                     u4941:
  5608  17E9  160A  118A  2DF0   	goto	l4311
  5609  17EC                     u4940:
  5610  17EC                     l4307:
  5611  17EC  3002               	movlw	2
  5612  17ED  00F9               	movwf	??_transformcounter
  5613  17EE  0879               	movf	??_transformcounter,w
  5614  17EF  00F5               	movwf	LCD_cursor@y
  5615  17F0  300F               	movlw	15
  5616  17F1  160A  118A  2290  160A  118A  	fcall	_LCD_cursor
  5617  17F6                     l4309:
  5618  17F6  30C0               	movlw	low (STR_80| (0+32768))
  5619  17F7  00F4               	movwf	LCD_Wstring@v
  5620  17F8  3090               	movlw	high (STR_80| (0+32768))
  5621  17F9  00F5               	movwf	LCD_Wstring@v+1
  5622  17FA  160A  118A  22B4  160A  118A  	fcall	_LCD_Wstring
  5623  17FF  2F11               	goto	L2
  5624                           
  5625                           	psect	text2_split_2
  5626  15F0                     l4311:
  5627  15F0  3010               	movlw	16
  5628  15F1  0622               	xorwf	transformcounter@p,w
  5629  15F2  1D03               	btfss	3,2
  5630  15F3  2DF5               	goto	u4951
  5631  15F4  2DF6               	goto	u4950
  5632  15F5                     u4951:
  5633  15F5  2E0C               	goto	l4317
  5634  15F6                     u4950:
  5635  15F6                     l4313:
  5636  15F6  3002               	movlw	2
  5637  15F7  00F9               	movwf	??_transformcounter
  5638  15F8  0879               	movf	??_transformcounter,w
  5639  15F9  00F5               	movwf	LCD_cursor@y
  5640  15FA  300F               	movlw	15
  5641  15FB  160A  118A  2290  160A  118A  	fcall	_LCD_cursor
  5642  1600                     l4315:
  5643  1600  30DE               	movlw	low (STR_16| (0+32768))
  5644  1601  00F4               	movwf	LCD_Wstring@v
  5645  1602  3090               	movlw	high (STR_16| (0+32768))
  5646  1603  00F5               	movwf	LCD_Wstring@v+1
  5647  1604  160A  118A  22B4  160A  118A  	fcall	_LCD_Wstring
  5648  1609                     L3:
  5649  1609  120A  118A  2FA0   	goto	l501
  5650  160C                     l4317:
  5651  160C  3011               	movlw	17
  5652  160D  0622               	xorwf	transformcounter@p,w
  5653  160E  1D03               	btfss	3,2
  5654  160F  2E11               	goto	u4961
  5655  1610  2E12               	goto	u4960
  5656  1611                     u4961:
  5657  1611  2E26               	goto	l4323
  5658  1612                     u4960:
  5659  1612                     l4319:
  5660  1612  3002               	movlw	2
  5661  1613  00F9               	movwf	??_transformcounter
  5662  1614  0879               	movf	??_transformcounter,w
  5663  1615  00F5               	movwf	LCD_cursor@y
  5664  1616  300F               	movlw	15
  5665  1617  160A  118A  2290  160A  118A  	fcall	_LCD_cursor
  5666  161C                     l4321:
  5667  161C  30FC               	movlw	low (STR_82| (0+32768))
  5668  161D  00F4               	movwf	LCD_Wstring@v
  5669  161E  3090               	movlw	high (STR_82| (0+32768))
  5670  161F  00F5               	movwf	LCD_Wstring@v+1
  5671  1620  160A  118A  22B4  160A  118A  	fcall	_LCD_Wstring
  5672  1625  2E09               	goto	L3
  5673  1626                     l4323:
  5674  1626  3012               	movlw	18
  5675  1627  0622               	xorwf	transformcounter@p,w
  5676  1628  1D03               	btfss	3,2
  5677  1629  2E2B               	goto	u4971
  5678  162A  2E2C               	goto	u4970
  5679  162B                     u4971:
  5680  162B  2E40               	goto	l4329
  5681  162C                     u4970:
  5682  162C                     l4325:
  5683  162C  3002               	movlw	2
  5684  162D  00F9               	movwf	??_transformcounter
  5685  162E  0879               	movf	??_transformcounter,w
  5686  162F  00F5               	movwf	LCD_cursor@y
  5687  1630  300F               	movlw	15
  5688  1631  160A  118A  2290  160A  118A  	fcall	_LCD_cursor
  5689  1636                     l4327:
  5690  1636  301A               	movlw	low (STR_17| (0+32768))
  5691  1637  00F4               	movwf	LCD_Wstring@v
  5692  1638  3091               	movlw	high (STR_17| (0+32768))
  5693  1639  00F5               	movwf	LCD_Wstring@v+1
  5694  163A  160A  118A  22B4  160A  118A  	fcall	_LCD_Wstring
  5695  163F  2E09               	goto	L3
  5696  1640                     l4329:
  5697  1640  3013               	movlw	19
  5698  1641  0622               	xorwf	transformcounter@p,w
  5699  1642  1D03               	btfss	3,2
  5700  1643  2E45               	goto	u4981
  5701  1644  2E46               	goto	u4980
  5702  1645                     u4981:
  5703  1645  2E5A               	goto	l4335
  5704  1646                     u4980:
  5705  1646                     l4331:
  5706  1646  3002               	movlw	2
  5707  1647  00F9               	movwf	??_transformcounter
  5708  1648  0879               	movf	??_transformcounter,w
  5709  1649  00F5               	movwf	LCD_cursor@y
  5710  164A  300F               	movlw	15
  5711  164B  160A  118A  2290  160A  118A  	fcall	_LCD_cursor
  5712  1650                     l4333:
  5713  1650  3038               	movlw	low (STR_84| (0+32768))
  5714  1651  00F4               	movwf	LCD_Wstring@v
  5715  1652  3091               	movlw	high (STR_84| (0+32768))
  5716  1653  00F5               	movwf	LCD_Wstring@v+1
  5717  1654  160A  118A  22B4  160A  118A  	fcall	_LCD_Wstring
  5718  1659  2E09               	goto	L3
  5719  165A                     l4335:
  5720  165A  3014               	movlw	20
  5721  165B  0622               	xorwf	transformcounter@p,w
  5722  165C  1D03               	btfss	3,2
  5723  165D  2E5F               	goto	u4991
  5724  165E  2E60               	goto	u4990
  5725  165F                     u4991:
  5726  165F  2E74               	goto	l4341
  5727  1660                     u4990:
  5728  1660                     l4337:
  5729  1660  3002               	movlw	2
  5730  1661  00F9               	movwf	??_transformcounter
  5731  1662  0879               	movf	??_transformcounter,w
  5732  1663  00F5               	movwf	LCD_cursor@y
  5733  1664  300F               	movlw	15
  5734  1665  160A  118A  2290  160A  118A  	fcall	_LCD_cursor
  5735  166A                     l4339:
  5736  166A  302D               	movlw	low (STR_18| (0+32768))
  5737  166B  00F4               	movwf	LCD_Wstring@v
  5738  166C  3090               	movlw	high (STR_18| (0+32768))
  5739  166D  00F5               	movwf	LCD_Wstring@v+1
  5740  166E  160A  118A  22B4  160A  118A  	fcall	_LCD_Wstring
  5741  1673  2E09               	goto	L3
  5742  1674                     l4341:
  5743  1674  3015               	movlw	21
  5744  1675  0622               	xorwf	transformcounter@p,w
  5745  1676  1D03               	btfss	3,2
  5746  1677  2E79               	goto	u5001
  5747  1678  2E7A               	goto	u5000
  5748  1679                     u5001:
  5749  1679  2E8E               	goto	l4347
  5750  167A                     u5000:
  5751  167A                     l4343:
  5752  167A  3002               	movlw	2
  5753  167B  00F9               	movwf	??_transformcounter
  5754  167C  0879               	movf	??_transformcounter,w
  5755  167D  00F5               	movwf	LCD_cursor@y
  5756  167E  300F               	movlw	15
  5757  167F  160A  118A  2290  160A  118A  	fcall	_LCD_cursor
  5758  1684                     l4345:
  5759  1684  304B               	movlw	low (STR_86| (0+32768))
  5760  1685  00F4               	movwf	LCD_Wstring@v
  5761  1686  3090               	movlw	high (STR_86| (0+32768))
  5762  1687  00F5               	movwf	LCD_Wstring@v+1
  5763  1688  160A  118A  22B4  160A  118A  	fcall	_LCD_Wstring
  5764  168D  2E09               	goto	L3
  5765  168E                     l4347:
  5766  168E  3016               	movlw	22
  5767  168F  0622               	xorwf	transformcounter@p,w
  5768  1690  1D03               	btfss	3,2
  5769  1691  2E93               	goto	u5011
  5770  1692  2E94               	goto	u5010
  5771  1693                     u5011:
  5772  1693  2EA8               	goto	l4353
  5773  1694                     u5010:
  5774  1694                     l4349:
  5775  1694  3002               	movlw	2
  5776  1695  00F9               	movwf	??_transformcounter
  5777  1696  0879               	movf	??_transformcounter,w
  5778  1697  00F5               	movwf	LCD_cursor@y
  5779  1698  300F               	movlw	15
  5780  1699  160A  118A  2290  160A  118A  	fcall	_LCD_cursor
  5781  169E                     l4351:
  5782  169E  3069               	movlw	low (STR_19| (0+32768))
  5783  169F  00F4               	movwf	LCD_Wstring@v
  5784  16A0  3090               	movlw	high (STR_19| (0+32768))
  5785  16A1  00F5               	movwf	LCD_Wstring@v+1
  5786  16A2  160A  118A  22B4  160A  118A  	fcall	_LCD_Wstring
  5787  16A7  2E09               	goto	L3
  5788  16A8                     l4353:
  5789  16A8  3017               	movlw	23
  5790  16A9  0622               	xorwf	transformcounter@p,w
  5791  16AA  1D03               	btfss	3,2
  5792  16AB  2EAD               	goto	u5021
  5793  16AC  2EAE               	goto	u5020
  5794  16AD                     u5021:
  5795  16AD  2EC2               	goto	l4359
  5796  16AE                     u5020:
  5797  16AE                     l4355:
  5798  16AE  3002               	movlw	2
  5799  16AF  00F9               	movwf	??_transformcounter
  5800  16B0  0879               	movf	??_transformcounter,w
  5801  16B1  00F5               	movwf	LCD_cursor@y
  5802  16B2  300F               	movlw	15
  5803  16B3  160A  118A  2290  160A  118A  	fcall	_LCD_cursor
  5804  16B8                     l4357:
  5805  16B8  3087               	movlw	low (STR_88| (0+32768))
  5806  16B9  00F4               	movwf	LCD_Wstring@v
  5807  16BA  3090               	movlw	high (STR_88| (0+32768))
  5808  16BB  00F5               	movwf	LCD_Wstring@v+1
  5809  16BC  160A  118A  22B4  160A  118A  	fcall	_LCD_Wstring
  5810  16C1  2E09               	goto	L3
  5811  16C2                     l4359:
  5812  16C2  3018               	movlw	24
  5813  16C3  0622               	xorwf	transformcounter@p,w
  5814  16C4  1D03               	btfss	3,2
  5815  16C5  2EC7               	goto	u5031
  5816  16C6  2EC8               	goto	u5030
  5817  16C7                     u5031:
  5818  16C7  2EDC               	goto	l4365
  5819  16C8                     u5030:
  5820  16C8                     l4361:
  5821  16C8  3002               	movlw	2
  5822  16C9  00F9               	movwf	??_transformcounter
  5823  16CA  0879               	movf	??_transformcounter,w
  5824  16CB  00F5               	movwf	LCD_cursor@y
  5825  16CC  300F               	movlw	15
  5826  16CD  160A  118A  2290  160A  118A  	fcall	_LCD_cursor
  5827  16D2                     l4363:
  5828  16D2  30A5               	movlw	low (STR_20| (0+32768))
  5829  16D3  00F4               	movwf	LCD_Wstring@v
  5830  16D4  3090               	movlw	high (STR_20| (0+32768))
  5831  16D5  00F5               	movwf	LCD_Wstring@v+1
  5832  16D6  160A  118A  22B4  160A  118A  	fcall	_LCD_Wstring
  5833  16DB  2E09               	goto	L3
  5834  16DC                     l4365:
  5835  16DC  3019               	movlw	25
  5836  16DD  0622               	xorwf	transformcounter@p,w
  5837  16DE  1D03               	btfss	3,2
  5838  16DF  2EE1               	goto	u5041
  5839  16E0  2EE4               	goto	u5040
  5840  16E1                     u5041:
  5841  16E1  120A  118A  281C   	goto	l4371
  5842  16E4                     u5040:
  5843  16E4                     l4367:
  5844  16E4  3002               	movlw	2
  5845  16E5  00F9               	movwf	??_transformcounter
  5846  16E6  0879               	movf	??_transformcounter,w
  5847  16E7  00F5               	movwf	LCD_cursor@y
  5848  16E8  300F               	movlw	15
  5849  16E9  160A  118A  2290  160A  118A  	fcall	_LCD_cursor
  5850  16EE                     l4369:
  5851  16EE  30C3               	movlw	low (STR_90| (0+32768))
  5852  16EF  00F4               	movwf	LCD_Wstring@v
  5853  16F0  3090               	movlw	high (STR_90| (0+32768))
  5854  16F1  00F5               	movwf	LCD_Wstring@v+1
  5855  16F2  160A  118A  22B4  160A  118A  	fcall	_LCD_Wstring
  5856  16F7  2E09               	goto	L3
  5857                           
  5858                           	psect	text2_split_3
  5859  001C                     l4371:
  5860  001C  301A               	movlw	26
  5861  001D  0622               	xorwf	transformcounter@p,w
  5862  001E  1D03               	btfss	3,2
  5863  001F  2821               	goto	u5051
  5864  0020  2822               	goto	u5050
  5865  0021                     u5051:
  5866  0021  2836               	goto	l4377
  5867  0022                     u5050:
  5868  0022                     l4373:
  5869  0022  3002               	movlw	2
  5870  0023  00F9               	movwf	??_transformcounter
  5871  0024  0879               	movf	??_transformcounter,w
  5872  0025  00F5               	movwf	LCD_cursor@y
  5873  0026  300F               	movlw	15
  5874  0027  160A  118A  2290  120A  118A  	fcall	_LCD_cursor
  5875  002C                     l4375:
  5876  002C  30E1               	movlw	low (STR_21| (0+32768))
  5877  002D  00F4               	movwf	LCD_Wstring@v
  5878  002E  3090               	movlw	high (STR_21| (0+32768))
  5879  002F  00F5               	movwf	LCD_Wstring@v+1
  5880  0030  160A  118A  22B4  120A  118A  	fcall	_LCD_Wstring
  5881  0035  2FA0               	goto	l501
  5882  0036                     l4377:
  5883  0036  301B               	movlw	27
  5884  0037  0622               	xorwf	transformcounter@p,w
  5885  0038  1D03               	btfss	3,2
  5886  0039  283B               	goto	u5061
  5887  003A  283C               	goto	u5060
  5888  003B                     u5061:
  5889  003B  2850               	goto	l4383
  5890  003C                     u5060:
  5891  003C                     l4379:
  5892  003C  3002               	movlw	2
  5893  003D  00F9               	movwf	??_transformcounter
  5894  003E  0879               	movf	??_transformcounter,w
  5895  003F  00F5               	movwf	LCD_cursor@y
  5896  0040  300F               	movlw	15
  5897  0041  160A  118A  2290  120A  118A  	fcall	_LCD_cursor
  5898  0046                     l4381:
  5899  0046  30FF               	movlw	low (STR_92| (0+32768))
  5900  0047  00F4               	movwf	LCD_Wstring@v
  5901  0048  3090               	movlw	high (STR_92| (0+32768))
  5902  0049  00F5               	movwf	LCD_Wstring@v+1
  5903  004A  160A  118A  22B4  120A  118A  	fcall	_LCD_Wstring
  5904  004F  2FA0               	goto	l501
  5905  0050                     l4383:
  5906  0050  301C               	movlw	28
  5907  0051  0622               	xorwf	transformcounter@p,w
  5908  0052  1D03               	btfss	3,2
  5909  0053  2855               	goto	u5071
  5910  0054  2856               	goto	u5070
  5911  0055                     u5071:
  5912  0055  286A               	goto	l4389
  5913  0056                     u5070:
  5914  0056                     l4385:
  5915  0056  3002               	movlw	2
  5916  0057  00F9               	movwf	??_transformcounter
  5917  0058  0879               	movf	??_transformcounter,w
  5918  0059  00F5               	movwf	LCD_cursor@y
  5919  005A  300F               	movlw	15
  5920  005B  160A  118A  2290  120A  118A  	fcall	_LCD_cursor
  5921  0060                     l4387:
  5922  0060  301D               	movlw	low (STR_22| (0+32768))
  5923  0061  00F4               	movwf	LCD_Wstring@v
  5924  0062  3091               	movlw	high (STR_22| (0+32768))
  5925  0063  00F5               	movwf	LCD_Wstring@v+1
  5926  0064  160A  118A  22B4  120A  118A  	fcall	_LCD_Wstring
  5927  0069  2FA0               	goto	l501
  5928  006A                     l4389:
  5929  006A  301D               	movlw	29
  5930  006B  0622               	xorwf	transformcounter@p,w
  5931  006C  1D03               	btfss	3,2
  5932  006D  286F               	goto	u5081
  5933  006E  2870               	goto	u5080
  5934  006F                     u5081:
  5935  006F  2884               	goto	l4395
  5936  0070                     u5080:
  5937  0070                     l4391:
  5938  0070  3002               	movlw	2
  5939  0071  00F9               	movwf	??_transformcounter
  5940  0072  0879               	movf	??_transformcounter,w
  5941  0073  00F5               	movwf	LCD_cursor@y
  5942  0074  300F               	movlw	15
  5943  0075  160A  118A  2290  120A  118A  	fcall	_LCD_cursor
  5944  007A                     l4393:
  5945  007A  303B               	movlw	low (STR_94| (0+32768))
  5946  007B  00F4               	movwf	LCD_Wstring@v
  5947  007C  3091               	movlw	high (STR_94| (0+32768))
  5948  007D  00F5               	movwf	LCD_Wstring@v+1
  5949  007E  160A  118A  22B4  120A  118A  	fcall	_LCD_Wstring
  5950  0083  2FA0               	goto	l501
  5951  0084                     l4395:
  5952  0084  301E               	movlw	30
  5953  0085  0622               	xorwf	transformcounter@p,w
  5954  0086  1D03               	btfss	3,2
  5955  0087  2889               	goto	u5091
  5956  0088  288A               	goto	u5090
  5957  0089                     u5091:
  5958  0089  289E               	goto	l4401
  5959  008A                     u5090:
  5960  008A                     l4397:
  5961  008A  3002               	movlw	2
  5962  008B  00F9               	movwf	??_transformcounter
  5963  008C  0879               	movf	??_transformcounter,w
  5964  008D  00F5               	movwf	LCD_cursor@y
  5965  008E  300F               	movlw	15
  5966  008F  160A  118A  2290  120A  118A  	fcall	_LCD_cursor
  5967  0094                     l4399:
  5968  0094  3030               	movlw	low (STR_23| (0+32768))
  5969  0095  00F4               	movwf	LCD_Wstring@v
  5970  0096  3090               	movlw	high (STR_23| (0+32768))
  5971  0097  00F5               	movwf	LCD_Wstring@v+1
  5972  0098  160A  118A  22B4  120A  118A  	fcall	_LCD_Wstring
  5973  009D  2FA0               	goto	l501
  5974  009E                     l4401:
  5975  009E  301F               	movlw	31
  5976  009F  0622               	xorwf	transformcounter@p,w
  5977  00A0  1D03               	btfss	3,2
  5978  00A1  28A3               	goto	u5101
  5979  00A2  28A4               	goto	u5100
  5980  00A3                     u5101:
  5981  00A3  28B8               	goto	l4407
  5982  00A4                     u5100:
  5983  00A4                     l4403:
  5984  00A4  3002               	movlw	2
  5985  00A5  00F9               	movwf	??_transformcounter
  5986  00A6  0879               	movf	??_transformcounter,w
  5987  00A7  00F5               	movwf	LCD_cursor@y
  5988  00A8  300F               	movlw	15
  5989  00A9  160A  118A  2290  120A  118A  	fcall	_LCD_cursor
  5990  00AE                     l4405:
  5991  00AE  304E               	movlw	low (STR_96| (0+32768))
  5992  00AF  00F4               	movwf	LCD_Wstring@v
  5993  00B0  3090               	movlw	high (STR_96| (0+32768))
  5994  00B1  00F5               	movwf	LCD_Wstring@v+1
  5995  00B2  160A  118A  22B4  120A  118A  	fcall	_LCD_Wstring
  5996  00B7  2FA0               	goto	l501
  5997  00B8                     l4407:
  5998  00B8  3020               	movlw	32
  5999  00B9  0622               	xorwf	transformcounter@p,w
  6000  00BA  1D03               	btfss	3,2
  6001  00BB  28BD               	goto	u5111
  6002  00BC  28BE               	goto	u5110
  6003  00BD                     u5111:
  6004  00BD  28D2               	goto	l4413
  6005  00BE                     u5110:
  6006  00BE                     l4409:
  6007  00BE  3002               	movlw	2
  6008  00BF  00F9               	movwf	??_transformcounter
  6009  00C0  0879               	movf	??_transformcounter,w
  6010  00C1  00F5               	movwf	LCD_cursor@y
  6011  00C2  300F               	movlw	15
  6012  00C3  160A  118A  2290  120A  118A  	fcall	_LCD_cursor
  6013  00C8                     l4411:
  6014  00C8  306C               	movlw	low (STR_24| (0+32768))
  6015  00C9  00F4               	movwf	LCD_Wstring@v
  6016  00CA  3090               	movlw	high (STR_24| (0+32768))
  6017  00CB  00F5               	movwf	LCD_Wstring@v+1
  6018  00CC  160A  118A  22B4  120A  118A  	fcall	_LCD_Wstring
  6019  00D1  2FA0               	goto	l501
  6020  00D2                     l4413:
  6021  00D2  3021               	movlw	33
  6022  00D3  0622               	xorwf	transformcounter@p,w
  6023  00D4  1D03               	btfss	3,2
  6024  00D5  28D7               	goto	u5121
  6025  00D6  28D8               	goto	u5120
  6026  00D7                     u5121:
  6027  00D7  28EC               	goto	l4419
  6028  00D8                     u5120:
  6029  00D8                     l4415:
  6030  00D8  3002               	movlw	2
  6031  00D9  00F9               	movwf	??_transformcounter
  6032  00DA  0879               	movf	??_transformcounter,w
  6033  00DB  00F5               	movwf	LCD_cursor@y
  6034  00DC  300F               	movlw	15
  6035  00DD  160A  118A  2290  120A  118A  	fcall	_LCD_cursor
  6036  00E2                     l4417:
  6037  00E2  308A               	movlw	low (STR_98| (0+32768))
  6038  00E3  00F4               	movwf	LCD_Wstring@v
  6039  00E4  3090               	movlw	high (STR_98| (0+32768))
  6040  00E5  00F5               	movwf	LCD_Wstring@v+1
  6041  00E6  160A  118A  22B4  120A  118A  	fcall	_LCD_Wstring
  6042  00EB  2FA0               	goto	l501
  6043  00EC                     l4419:
  6044  00EC  3022               	movlw	34
  6045  00ED  0622               	xorwf	transformcounter@p,w
  6046  00EE  1D03               	btfss	3,2
  6047  00EF  28F1               	goto	u5131
  6048  00F0  28F2               	goto	u5130
  6049  00F1                     u5131:
  6050  00F1  2906               	goto	l4425
  6051  00F2                     u5130:
  6052  00F2                     l4421:
  6053  00F2  3002               	movlw	2
  6054  00F3  00F9               	movwf	??_transformcounter
  6055  00F4  0879               	movf	??_transformcounter,w
  6056  00F5  00F5               	movwf	LCD_cursor@y
  6057  00F6  300F               	movlw	15
  6058  00F7  160A  118A  2290  120A  118A  	fcall	_LCD_cursor
  6059  00FC                     l4423:
  6060  00FC  30A8               	movlw	low (STR_25| (0+32768))
  6061  00FD  00F4               	movwf	LCD_Wstring@v
  6062  00FE  3090               	movlw	high (STR_25| (0+32768))
  6063  00FF  00F5               	movwf	LCD_Wstring@v+1
  6064  0100  160A  118A  22B4  120A  118A  	fcall	_LCD_Wstring
  6065  0105  2FA0               	goto	l501
  6066  0106                     l4425:
  6067  0106  3023               	movlw	35
  6068  0107  0622               	xorwf	transformcounter@p,w
  6069  0108  1D03               	btfss	3,2
  6070  0109  290B               	goto	u5141
  6071  010A  290C               	goto	u5140
  6072  010B                     u5141:
  6073  010B  2920               	goto	l4431
  6074  010C                     u5140:
  6075  010C                     l4427:
  6076  010C  3002               	movlw	2
  6077  010D  00F9               	movwf	??_transformcounter
  6078  010E  0879               	movf	??_transformcounter,w
  6079  010F  00F5               	movwf	LCD_cursor@y
  6080  0110  300F               	movlw	15
  6081  0111  160A  118A  2290  120A  118A  	fcall	_LCD_cursor
  6082  0116                     l4429:
  6083  0116  30C6               	movlw	low (STR_100| (0+32768))
  6084  0117  00F4               	movwf	LCD_Wstring@v
  6085  0118  3090               	movlw	high (STR_100| (0+32768))
  6086  0119  00F5               	movwf	LCD_Wstring@v+1
  6087  011A  160A  118A  22B4  120A  118A  	fcall	_LCD_Wstring
  6088  011F  2FA0               	goto	l501
  6089  0120                     l4431:
  6090  0120  3024               	movlw	36
  6091  0121  0622               	xorwf	transformcounter@p,w
  6092  0122  1D03               	btfss	3,2
  6093  0123  2925               	goto	u5151
  6094  0124  2926               	goto	u5150
  6095  0125                     u5151:
  6096  0125  293A               	goto	l4437
  6097  0126                     u5150:
  6098  0126                     l4433:
  6099  0126  3002               	movlw	2
  6100  0127  00F9               	movwf	??_transformcounter
  6101  0128  0879               	movf	??_transformcounter,w
  6102  0129  00F5               	movwf	LCD_cursor@y
  6103  012A  300F               	movlw	15
  6104  012B  160A  118A  2290  120A  118A  	fcall	_LCD_cursor
  6105  0130                     l4435:
  6106  0130  30E4               	movlw	low (STR_26| (0+32768))
  6107  0131  00F4               	movwf	LCD_Wstring@v
  6108  0132  3090               	movlw	high (STR_26| (0+32768))
  6109  0133  00F5               	movwf	LCD_Wstring@v+1
  6110  0134  160A  118A  22B4  120A  118A  	fcall	_LCD_Wstring
  6111  0139  2FA0               	goto	l501
  6112  013A                     l4437:
  6113  013A  3025               	movlw	37
  6114  013B  0622               	xorwf	transformcounter@p,w
  6115  013C  1D03               	btfss	3,2
  6116  013D  293F               	goto	u5161
  6117  013E  2940               	goto	u5160
  6118  013F                     u5161:
  6119  013F  2954               	goto	l4443
  6120  0140                     u5160:
  6121  0140                     l4439:
  6122  0140  3002               	movlw	2
  6123  0141  00F9               	movwf	??_transformcounter
  6124  0142  0879               	movf	??_transformcounter,w
  6125  0143  00F5               	movwf	LCD_cursor@y
  6126  0144  300F               	movlw	15
  6127  0145  160A  118A  2290  120A  118A  	fcall	_LCD_cursor
  6128  014A                     l4441:
  6129  014A  3002               	movlw	low (STR_102| (0+32768))
  6130  014B  00F4               	movwf	LCD_Wstring@v
  6131  014C  3091               	movlw	high (STR_102| (0+32768))
  6132  014D  00F5               	movwf	LCD_Wstring@v+1
  6133  014E  160A  118A  22B4  120A  118A  	fcall	_LCD_Wstring
  6134  0153  2FA0               	goto	l501
  6135  0154                     l4443:
  6136  0154  3026               	movlw	38
  6137  0155  0622               	xorwf	transformcounter@p,w
  6138  0156  1D03               	btfss	3,2
  6139  0157  2959               	goto	u5171
  6140  0158  295A               	goto	u5170
  6141  0159                     u5171:
  6142  0159  296E               	goto	l4449
  6143  015A                     u5170:
  6144  015A                     l4445:
  6145  015A  3002               	movlw	2
  6146  015B  00F9               	movwf	??_transformcounter
  6147  015C  0879               	movf	??_transformcounter,w
  6148  015D  00F5               	movwf	LCD_cursor@y
  6149  015E  300F               	movlw	15
  6150  015F  160A  118A  2290  120A  118A  	fcall	_LCD_cursor
  6151  0164                     l4447:
  6152  0164  3020               	movlw	low (STR_27| (0+32768))
  6153  0165  00F4               	movwf	LCD_Wstring@v
  6154  0166  3091               	movlw	high (STR_27| (0+32768))
  6155  0167  00F5               	movwf	LCD_Wstring@v+1
  6156  0168  160A  118A  22B4  120A  118A  	fcall	_LCD_Wstring
  6157  016D  2FA0               	goto	l501
  6158  016E                     l4449:
  6159  016E  3027               	movlw	39
  6160  016F  0622               	xorwf	transformcounter@p,w
  6161  0170  1D03               	btfss	3,2
  6162  0171  2973               	goto	u5181
  6163  0172  2974               	goto	u5180
  6164  0173                     u5181:
  6165  0173  2988               	goto	l4455
  6166  0174                     u5180:
  6167  0174                     l4451:
  6168  0174  3002               	movlw	2
  6169  0175  00F9               	movwf	??_transformcounter
  6170  0176  0879               	movf	??_transformcounter,w
  6171  0177  00F5               	movwf	LCD_cursor@y
  6172  0178  300F               	movlw	15
  6173  0179  160A  118A  2290  120A  118A  	fcall	_LCD_cursor
  6174  017E                     l4453:
  6175  017E  303E               	movlw	low (STR_104| (0+32768))
  6176  017F  00F4               	movwf	LCD_Wstring@v
  6177  0180  3091               	movlw	high (STR_104| (0+32768))
  6178  0181  00F5               	movwf	LCD_Wstring@v+1
  6179  0182  160A  118A  22B4  120A  118A  	fcall	_LCD_Wstring
  6180  0187  2FA0               	goto	l501
  6181  0188                     l4455:
  6182  0188  3028               	movlw	40
  6183  0189  0622               	xorwf	transformcounter@p,w
  6184  018A  1D03               	btfss	3,2
  6185  018B  298D               	goto	u5191
  6186  018C  298E               	goto	u5190
  6187  018D                     u5191:
  6188  018D  29A2               	goto	l4461
  6189  018E                     u5190:
  6190  018E                     l4457:
  6191  018E  3002               	movlw	2
  6192  018F  00F9               	movwf	??_transformcounter
  6193  0190  0879               	movf	??_transformcounter,w
  6194  0191  00F5               	movwf	LCD_cursor@y
  6195  0192  300F               	movlw	15
  6196  0193  160A  118A  2290  120A  118A  	fcall	_LCD_cursor
  6197  0198                     l4459:
  6198  0198  3033               	movlw	low (STR_28| (0+32768))
  6199  0199  00F4               	movwf	LCD_Wstring@v
  6200  019A  3090               	movlw	high (STR_28| (0+32768))
  6201  019B  00F5               	movwf	LCD_Wstring@v+1
  6202  019C  160A  118A  22B4  120A  118A  	fcall	_LCD_Wstring
  6203  01A1  2FA0               	goto	l501
  6204  01A2                     l4461:
  6205  01A2  3029               	movlw	41
  6206  01A3  0622               	xorwf	transformcounter@p,w
  6207  01A4  1D03               	btfss	3,2
  6208  01A5  29A7               	goto	u5201
  6209  01A6  29A8               	goto	u5200
  6210  01A7                     u5201:
  6211  01A7  29BC               	goto	l4467
  6212  01A8                     u5200:
  6213  01A8                     l4463:
  6214  01A8  3002               	movlw	2
  6215  01A9  00F9               	movwf	??_transformcounter
  6216  01AA  0879               	movf	??_transformcounter,w
  6217  01AB  00F5               	movwf	LCD_cursor@y
  6218  01AC  300F               	movlw	15
  6219  01AD  160A  118A  2290  120A  118A  	fcall	_LCD_cursor
  6220  01B2                     l4465:
  6221  01B2  3051               	movlw	low (STR_106| (0+32768))
  6222  01B3  00F4               	movwf	LCD_Wstring@v
  6223  01B4  3090               	movlw	high (STR_106| (0+32768))
  6224  01B5  00F5               	movwf	LCD_Wstring@v+1
  6225  01B6  160A  118A  22B4  120A  118A  	fcall	_LCD_Wstring
  6226  01BB  2FA0               	goto	l501
  6227  01BC                     l4467:
  6228  01BC  302A               	movlw	42
  6229  01BD  0622               	xorwf	transformcounter@p,w
  6230  01BE  1D03               	btfss	3,2
  6231  01BF  29C1               	goto	u5211
  6232  01C0  29C2               	goto	u5210
  6233  01C1                     u5211:
  6234  01C1  29D6               	goto	l4473
  6235  01C2                     u5210:
  6236  01C2                     l4469:
  6237  01C2  3002               	movlw	2
  6238  01C3  00F9               	movwf	??_transformcounter
  6239  01C4  0879               	movf	??_transformcounter,w
  6240  01C5  00F5               	movwf	LCD_cursor@y
  6241  01C6  300F               	movlw	15
  6242  01C7  160A  118A  2290  120A  118A  	fcall	_LCD_cursor
  6243  01CC                     l4471:
  6244  01CC  306F               	movlw	low (STR_29| (0+32768))
  6245  01CD  00F4               	movwf	LCD_Wstring@v
  6246  01CE  3090               	movlw	high (STR_29| (0+32768))
  6247  01CF  00F5               	movwf	LCD_Wstring@v+1
  6248  01D0  160A  118A  22B4  120A  118A  	fcall	_LCD_Wstring
  6249  01D5  2FA0               	goto	l501
  6250  01D6                     l4473:
  6251  01D6  302B               	movlw	43
  6252  01D7  0622               	xorwf	transformcounter@p,w
  6253  01D8  1D03               	btfss	3,2
  6254  01D9  29DB               	goto	u5221
  6255  01DA  29DC               	goto	u5220
  6256  01DB                     u5221:
  6257  01DB  29F0               	goto	l4479
  6258  01DC                     u5220:
  6259  01DC                     l4475:
  6260  01DC  3002               	movlw	2
  6261  01DD  00F9               	movwf	??_transformcounter
  6262  01DE  0879               	movf	??_transformcounter,w
  6263  01DF  00F5               	movwf	LCD_cursor@y
  6264  01E0  300F               	movlw	15
  6265  01E1  160A  118A  2290  120A  118A  	fcall	_LCD_cursor
  6266  01E6                     l4477:
  6267  01E6  308D               	movlw	low (STR_108| (0+32768))
  6268  01E7  00F4               	movwf	LCD_Wstring@v
  6269  01E8  3090               	movlw	high (STR_108| (0+32768))
  6270  01E9  00F5               	movwf	LCD_Wstring@v+1
  6271  01EA  160A  118A  22B4  120A  118A  	fcall	_LCD_Wstring
  6272  01EF  2FA0               	goto	l501
  6273  01F0                     l4479:
  6274  01F0  302C               	movlw	44
  6275  01F1  0622               	xorwf	transformcounter@p,w
  6276  01F2  1D03               	btfss	3,2
  6277  01F3  29F5               	goto	u5231
  6278  01F4  29F6               	goto	u5230
  6279  01F5                     u5231:
  6280  01F5  2A0A               	goto	l4485
  6281  01F6                     u5230:
  6282  01F6                     l4481:
  6283  01F6  3002               	movlw	2
  6284  01F7  00F9               	movwf	??_transformcounter
  6285  01F8  0879               	movf	??_transformcounter,w
  6286  01F9  00F5               	movwf	LCD_cursor@y
  6287  01FA  300F               	movlw	15
  6288  01FB  160A  118A  2290  120A  118A  	fcall	_LCD_cursor
  6289  0200                     l4483:
  6290  0200  30AB               	movlw	low (STR_30| (0+32768))
  6291  0201  00F4               	movwf	LCD_Wstring@v
  6292  0202  3090               	movlw	high (STR_30| (0+32768))
  6293  0203  00F5               	movwf	LCD_Wstring@v+1
  6294  0204  160A  118A  22B4  120A  118A  	fcall	_LCD_Wstring
  6295  0209  2FA0               	goto	l501
  6296  020A                     l4485:
  6297  020A  302D               	movlw	45
  6298  020B  0622               	xorwf	transformcounter@p,w
  6299  020C  1D03               	btfss	3,2
  6300  020D  2A0F               	goto	u5241
  6301  020E  2A10               	goto	u5240
  6302  020F                     u5241:
  6303  020F  2A24               	goto	l4491
  6304  0210                     u5240:
  6305  0210                     l4487:
  6306  0210  3002               	movlw	2
  6307  0211  00F9               	movwf	??_transformcounter
  6308  0212  0879               	movf	??_transformcounter,w
  6309  0213  00F5               	movwf	LCD_cursor@y
  6310  0214  300F               	movlw	15
  6311  0215  160A  118A  2290  120A  118A  	fcall	_LCD_cursor
  6312  021A                     l4489:
  6313  021A  30C9               	movlw	low (STR_110| (0+32768))
  6314  021B  00F4               	movwf	LCD_Wstring@v
  6315  021C  3090               	movlw	high (STR_110| (0+32768))
  6316  021D  00F5               	movwf	LCD_Wstring@v+1
  6317  021E  160A  118A  22B4  120A  118A  	fcall	_LCD_Wstring
  6318  0223  2FA0               	goto	l501
  6319  0224                     l4491:
  6320  0224  302E               	movlw	46
  6321  0225  0622               	xorwf	transformcounter@p,w
  6322  0226  1D03               	btfss	3,2
  6323  0227  2A29               	goto	u5251
  6324  0228  2A2A               	goto	u5250
  6325  0229                     u5251:
  6326  0229  2A3E               	goto	l4497
  6327  022A                     u5250:
  6328  022A                     l4493:
  6329  022A  3002               	movlw	2
  6330  022B  00F9               	movwf	??_transformcounter
  6331  022C  0879               	movf	??_transformcounter,w
  6332  022D  00F5               	movwf	LCD_cursor@y
  6333  022E  300F               	movlw	15
  6334  022F  160A  118A  2290  120A  118A  	fcall	_LCD_cursor
  6335  0234                     l4495:
  6336  0234  30E7               	movlw	low (STR_31| (0+32768))
  6337  0235  00F4               	movwf	LCD_Wstring@v
  6338  0236  3090               	movlw	high (STR_31| (0+32768))
  6339  0237  00F5               	movwf	LCD_Wstring@v+1
  6340  0238  160A  118A  22B4  120A  118A  	fcall	_LCD_Wstring
  6341  023D  2FA0               	goto	l501
  6342  023E                     l4497:
  6343  023E  302F               	movlw	47
  6344  023F  0622               	xorwf	transformcounter@p,w
  6345  0240  1D03               	btfss	3,2
  6346  0241  2A43               	goto	u5261
  6347  0242  2A44               	goto	u5260
  6348  0243                     u5261:
  6349  0243  2A58               	goto	l4503
  6350  0244                     u5260:
  6351  0244                     l4499:
  6352  0244  3002               	movlw	2
  6353  0245  00F9               	movwf	??_transformcounter
  6354  0246  0879               	movf	??_transformcounter,w
  6355  0247  00F5               	movwf	LCD_cursor@y
  6356  0248  300F               	movlw	15
  6357  0249  160A  118A  2290  120A  118A  	fcall	_LCD_cursor
  6358  024E                     l4501:
  6359  024E  3005               	movlw	low (STR_112| (0+32768))
  6360  024F  00F4               	movwf	LCD_Wstring@v
  6361  0250  3091               	movlw	high (STR_112| (0+32768))
  6362  0251  00F5               	movwf	LCD_Wstring@v+1
  6363  0252  160A  118A  22B4  120A  118A  	fcall	_LCD_Wstring
  6364  0257  2FA0               	goto	l501
  6365  0258                     l4503:
  6366  0258  3030               	movlw	48
  6367  0259  0622               	xorwf	transformcounter@p,w
  6368  025A  1D03               	btfss	3,2
  6369  025B  2A5D               	goto	u5271
  6370  025C  2A5E               	goto	u5270
  6371  025D                     u5271:
  6372  025D  2A72               	goto	l4509
  6373  025E                     u5270:
  6374  025E                     l4505:
  6375  025E  3002               	movlw	2
  6376  025F  00F9               	movwf	??_transformcounter
  6377  0260  0879               	movf	??_transformcounter,w
  6378  0261  00F5               	movwf	LCD_cursor@y
  6379  0262  300F               	movlw	15
  6380  0263  160A  118A  2290  120A  118A  	fcall	_LCD_cursor
  6381  0268                     l4507:
  6382  0268  3023               	movlw	low (STR_32| (0+32768))
  6383  0269  00F4               	movwf	LCD_Wstring@v
  6384  026A  3091               	movlw	high (STR_32| (0+32768))
  6385  026B  00F5               	movwf	LCD_Wstring@v+1
  6386  026C  160A  118A  22B4  120A  118A  	fcall	_LCD_Wstring
  6387  0271  2FA0               	goto	l501
  6388  0272                     l4509:
  6389  0272  3031               	movlw	49
  6390  0273  0622               	xorwf	transformcounter@p,w
  6391  0274  1D03               	btfss	3,2
  6392  0275  2A77               	goto	u5281
  6393  0276  2A78               	goto	u5280
  6394  0277                     u5281:
  6395  0277  2A8C               	goto	l4515
  6396  0278                     u5280:
  6397  0278                     l4511:
  6398  0278  3002               	movlw	2
  6399  0279  00F9               	movwf	??_transformcounter
  6400  027A  0879               	movf	??_transformcounter,w
  6401  027B  00F5               	movwf	LCD_cursor@y
  6402  027C  300F               	movlw	15
  6403  027D  160A  118A  2290  120A  118A  	fcall	_LCD_cursor
  6404  0282                     l4513:
  6405  0282  3041               	movlw	low (STR_114| (0+32768))
  6406  0283  00F4               	movwf	LCD_Wstring@v
  6407  0284  3091               	movlw	high (STR_114| (0+32768))
  6408  0285  00F5               	movwf	LCD_Wstring@v+1
  6409  0286  160A  118A  22B4  120A  118A  	fcall	_LCD_Wstring
  6410  028B  2FA0               	goto	l501
  6411  028C                     l4515:
  6412  028C  3032               	movlw	50
  6413  028D  0622               	xorwf	transformcounter@p,w
  6414  028E  1D03               	btfss	3,2
  6415  028F  2A91               	goto	u5291
  6416  0290  2A92               	goto	u5290
  6417  0291                     u5291:
  6418  0291  2AA6               	goto	l4521
  6419  0292                     u5290:
  6420  0292                     l4517:
  6421  0292  3002               	movlw	2
  6422  0293  00F9               	movwf	??_transformcounter
  6423  0294  0879               	movf	??_transformcounter,w
  6424  0295  00F5               	movwf	LCD_cursor@y
  6425  0296  300F               	movlw	15
  6426  0297  160A  118A  2290  120A  118A  	fcall	_LCD_cursor
  6427  029C                     l4519:
  6428  029C  3036               	movlw	low (STR_33| (0+32768))
  6429  029D  00F4               	movwf	LCD_Wstring@v
  6430  029E  3090               	movlw	high (STR_33| (0+32768))
  6431  029F  00F5               	movwf	LCD_Wstring@v+1
  6432  02A0  160A  118A  22B4  120A  118A  	fcall	_LCD_Wstring
  6433  02A5  2FA0               	goto	l501
  6434  02A6                     l4521:
  6435  02A6  3033               	movlw	51
  6436  02A7  0622               	xorwf	transformcounter@p,w
  6437  02A8  1D03               	btfss	3,2
  6438  02A9  2AAB               	goto	u5301
  6439  02AA  2AAC               	goto	u5300
  6440  02AB                     u5301:
  6441  02AB  2AC0               	goto	l4527
  6442  02AC                     u5300:
  6443  02AC                     l4523:
  6444  02AC  3002               	movlw	2
  6445  02AD  00F9               	movwf	??_transformcounter
  6446  02AE  0879               	movf	??_transformcounter,w
  6447  02AF  00F5               	movwf	LCD_cursor@y
  6448  02B0  300F               	movlw	15
  6449  02B1  160A  118A  2290  120A  118A  	fcall	_LCD_cursor
  6450  02B6                     l4525:
  6451  02B6  3054               	movlw	low (STR_116| (0+32768))
  6452  02B7  00F4               	movwf	LCD_Wstring@v
  6453  02B8  3090               	movlw	high (STR_116| (0+32768))
  6454  02B9  00F5               	movwf	LCD_Wstring@v+1
  6455  02BA  160A  118A  22B4  120A  118A  	fcall	_LCD_Wstring
  6456  02BF  2FA0               	goto	l501
  6457  02C0                     l4527:
  6458  02C0  3034               	movlw	52
  6459  02C1  0622               	xorwf	transformcounter@p,w
  6460  02C2  1D03               	btfss	3,2
  6461  02C3  2AC5               	goto	u5311
  6462  02C4  2AC6               	goto	u5310
  6463  02C5                     u5311:
  6464  02C5  2ADA               	goto	l4533
  6465  02C6                     u5310:
  6466  02C6                     l4529:
  6467  02C6  3002               	movlw	2
  6468  02C7  00F9               	movwf	??_transformcounter
  6469  02C8  0879               	movf	??_transformcounter,w
  6470  02C9  00F5               	movwf	LCD_cursor@y
  6471  02CA  300F               	movlw	15
  6472  02CB  160A  118A  2290  120A  118A  	fcall	_LCD_cursor
  6473  02D0                     l4531:
  6474  02D0  3072               	movlw	low (STR_34| (0+32768))
  6475  02D1  00F4               	movwf	LCD_Wstring@v
  6476  02D2  3090               	movlw	high (STR_34| (0+32768))
  6477  02D3  00F5               	movwf	LCD_Wstring@v+1
  6478  02D4  160A  118A  22B4  120A  118A  	fcall	_LCD_Wstring
  6479  02D9  2FA0               	goto	l501
  6480  02DA                     l4533:
  6481  02DA  3035               	movlw	53
  6482  02DB  0622               	xorwf	transformcounter@p,w
  6483  02DC  1D03               	btfss	3,2
  6484  02DD  2ADF               	goto	u5321
  6485  02DE  2AE0               	goto	u5320
  6486  02DF                     u5321:
  6487  02DF  2AF4               	goto	l4539
  6488  02E0                     u5320:
  6489  02E0                     l4535:
  6490  02E0  3002               	movlw	2
  6491  02E1  00F9               	movwf	??_transformcounter
  6492  02E2  0879               	movf	??_transformcounter,w
  6493  02E3  00F5               	movwf	LCD_cursor@y
  6494  02E4  300F               	movlw	15
  6495  02E5  160A  118A  2290  120A  118A  	fcall	_LCD_cursor
  6496  02EA                     l4537:
  6497  02EA  3090               	movlw	low (STR_118| (0+32768))
  6498  02EB  00F4               	movwf	LCD_Wstring@v
  6499  02EC  3090               	movlw	high (STR_118| (0+32768))
  6500  02ED  00F5               	movwf	LCD_Wstring@v+1
  6501  02EE  160A  118A  22B4  120A  118A  	fcall	_LCD_Wstring
  6502  02F3  2FA0               	goto	l501
  6503  02F4                     l4539:
  6504  02F4  3036               	movlw	54
  6505  02F5  0622               	xorwf	transformcounter@p,w
  6506  02F6  1D03               	btfss	3,2
  6507  02F7  2AF9               	goto	u5331
  6508  02F8  2AFA               	goto	u5330
  6509  02F9                     u5331:
  6510  02F9  2B0E               	goto	l4545
  6511  02FA                     u5330:
  6512  02FA                     l4541:
  6513  02FA  3002               	movlw	2
  6514  02FB  00F9               	movwf	??_transformcounter
  6515  02FC  0879               	movf	??_transformcounter,w
  6516  02FD  00F5               	movwf	LCD_cursor@y
  6517  02FE  300F               	movlw	15
  6518  02FF  160A  118A  2290  120A  118A  	fcall	_LCD_cursor
  6519  0304                     l4543:
  6520  0304  30AE               	movlw	low (STR_35| (0+32768))
  6521  0305  00F4               	movwf	LCD_Wstring@v
  6522  0306  3090               	movlw	high (STR_35| (0+32768))
  6523  0307  00F5               	movwf	LCD_Wstring@v+1
  6524  0308  160A  118A  22B4  120A  118A  	fcall	_LCD_Wstring
  6525  030D  2FA0               	goto	l501
  6526  030E                     l4545:
  6527  030E  3037               	movlw	55
  6528  030F  0622               	xorwf	transformcounter@p,w
  6529  0310  1D03               	btfss	3,2
  6530  0311  2B13               	goto	u5341
  6531  0312  2B14               	goto	u5340
  6532  0313                     u5341:
  6533  0313  2B28               	goto	l4551
  6534  0314                     u5340:
  6535  0314                     l4547:
  6536  0314  3002               	movlw	2
  6537  0315  00F9               	movwf	??_transformcounter
  6538  0316  0879               	movf	??_transformcounter,w
  6539  0317  00F5               	movwf	LCD_cursor@y
  6540  0318  300F               	movlw	15
  6541  0319  160A  118A  2290  120A  118A  	fcall	_LCD_cursor
  6542  031E                     l4549:
  6543  031E  30CC               	movlw	low (STR_120| (0+32768))
  6544  031F  00F4               	movwf	LCD_Wstring@v
  6545  0320  3090               	movlw	high (STR_120| (0+32768))
  6546  0321  00F5               	movwf	LCD_Wstring@v+1
  6547  0322  160A  118A  22B4  120A  118A  	fcall	_LCD_Wstring
  6548  0327  2FA0               	goto	l501
  6549  0328                     l4551:
  6550  0328  3038               	movlw	56
  6551  0329  0622               	xorwf	transformcounter@p,w
  6552  032A  1D03               	btfss	3,2
  6553  032B  2B2D               	goto	u5351
  6554  032C  2B2E               	goto	u5350
  6555  032D                     u5351:
  6556  032D  2B42               	goto	l4557
  6557  032E                     u5350:
  6558  032E                     l4553:
  6559  032E  3002               	movlw	2
  6560  032F  00F9               	movwf	??_transformcounter
  6561  0330  0879               	movf	??_transformcounter,w
  6562  0331  00F5               	movwf	LCD_cursor@y
  6563  0332  300F               	movlw	15
  6564  0333  160A  118A  2290  120A  118A  	fcall	_LCD_cursor
  6565  0338                     l4555:
  6566  0338  30EA               	movlw	low (STR_36| (0+32768))
  6567  0339  00F4               	movwf	LCD_Wstring@v
  6568  033A  3090               	movlw	high (STR_36| (0+32768))
  6569  033B  00F5               	movwf	LCD_Wstring@v+1
  6570  033C  160A  118A  22B4  120A  118A  	fcall	_LCD_Wstring
  6571  0341  2FA0               	goto	l501
  6572  0342                     l4557:
  6573  0342  3039               	movlw	57
  6574  0343  0622               	xorwf	transformcounter@p,w
  6575  0344  1D03               	btfss	3,2
  6576  0345  2B47               	goto	u5361
  6577  0346  2B48               	goto	u5360
  6578  0347                     u5361:
  6579  0347  2B5C               	goto	l4563
  6580  0348                     u5360:
  6581  0348                     l4559:
  6582  0348  3002               	movlw	2
  6583  0349  00F9               	movwf	??_transformcounter
  6584  034A  0879               	movf	??_transformcounter,w
  6585  034B  00F5               	movwf	LCD_cursor@y
  6586  034C  300F               	movlw	15
  6587  034D  160A  118A  2290  120A  118A  	fcall	_LCD_cursor
  6588  0352                     l4561:
  6589  0352  3008               	movlw	low (STR_122| (0+32768))
  6590  0353  00F4               	movwf	LCD_Wstring@v
  6591  0354  3091               	movlw	high (STR_122| (0+32768))
  6592  0355  00F5               	movwf	LCD_Wstring@v+1
  6593  0356  160A  118A  22B4  120A  118A  	fcall	_LCD_Wstring
  6594  035B  2FA0               	goto	l501
  6595  035C                     l4563:
  6596  035C  303A               	movlw	58
  6597  035D  0622               	xorwf	transformcounter@p,w
  6598  035E  1D03               	btfss	3,2
  6599  035F  2B61               	goto	u5371
  6600  0360  2B62               	goto	u5370
  6601  0361                     u5371:
  6602  0361  2B76               	goto	l4569
  6603  0362                     u5370:
  6604  0362                     l4565:
  6605  0362  3002               	movlw	2
  6606  0363  00F9               	movwf	??_transformcounter
  6607  0364  0879               	movf	??_transformcounter,w
  6608  0365  00F5               	movwf	LCD_cursor@y
  6609  0366  300F               	movlw	15
  6610  0367  160A  118A  2290  120A  118A  	fcall	_LCD_cursor
  6611  036C                     l4567:
  6612  036C  3026               	movlw	low (STR_37| (0+32768))
  6613  036D  00F4               	movwf	LCD_Wstring@v
  6614  036E  3091               	movlw	high (STR_37| (0+32768))
  6615  036F  00F5               	movwf	LCD_Wstring@v+1
  6616  0370  160A  118A  22B4  120A  118A  	fcall	_LCD_Wstring
  6617  0375  2FA0               	goto	l501
  6618  0376                     l4569:
  6619  0376  303B               	movlw	59
  6620  0377  0622               	xorwf	transformcounter@p,w
  6621  0378  1D03               	btfss	3,2
  6622  0379  2B7B               	goto	u5381
  6623  037A  2B7C               	goto	u5380
  6624  037B                     u5381:
  6625  037B  2B90               	goto	l4575
  6626  037C                     u5380:
  6627  037C                     l4571:
  6628  037C  3002               	movlw	2
  6629  037D  00F9               	movwf	??_transformcounter
  6630  037E  0879               	movf	??_transformcounter,w
  6631  037F  00F5               	movwf	LCD_cursor@y
  6632  0380  300F               	movlw	15
  6633  0381  160A  118A  2290  120A  118A  	fcall	_LCD_cursor
  6634  0386                     l4573:
  6635  0386  3044               	movlw	low (STR_124| (0+32768))
  6636  0387  00F4               	movwf	LCD_Wstring@v
  6637  0388  3091               	movlw	high (STR_124| (0+32768))
  6638  0389  00F5               	movwf	LCD_Wstring@v+1
  6639  038A  160A  118A  22B4  120A  118A  	fcall	_LCD_Wstring
  6640  038F  2FA0               	goto	l501
  6641  0390                     l4575:
  6642  0390  303C               	movlw	60
  6643  0391  0622               	xorwf	transformcounter@p,w
  6644  0392  1D03               	btfss	3,2
  6645  0393  2B95               	goto	u5391
  6646  0394  2B96               	goto	u5390
  6647  0395                     u5391:
  6648  0395  2BAA               	goto	l4581
  6649  0396                     u5390:
  6650  0396                     l4577:
  6651  0396  3002               	movlw	2
  6652  0397  00F9               	movwf	??_transformcounter
  6653  0398  0879               	movf	??_transformcounter,w
  6654  0399  00F5               	movwf	LCD_cursor@y
  6655  039A  300F               	movlw	15
  6656  039B  160A  118A  2290  120A  118A  	fcall	_LCD_cursor
  6657  03A0                     l4579:
  6658  03A0  3039               	movlw	low (STR_38| (0+32768))
  6659  03A1  00F4               	movwf	LCD_Wstring@v
  6660  03A2  3090               	movlw	high (STR_38| (0+32768))
  6661  03A3  00F5               	movwf	LCD_Wstring@v+1
  6662  03A4  160A  118A  22B4  120A  118A  	fcall	_LCD_Wstring
  6663  03A9  2FA0               	goto	l501
  6664  03AA                     l4581:
  6665  03AA  303D               	movlw	61
  6666  03AB  0622               	xorwf	transformcounter@p,w
  6667  03AC  1D03               	btfss	3,2
  6668  03AD  2BAF               	goto	u5401
  6669  03AE  2BB0               	goto	u5400
  6670  03AF                     u5401:
  6671  03AF  2BC4               	goto	l4587
  6672  03B0                     u5400:
  6673  03B0                     l4583:
  6674  03B0  3002               	movlw	2
  6675  03B1  00F9               	movwf	??_transformcounter
  6676  03B2  0879               	movf	??_transformcounter,w
  6677  03B3  00F5               	movwf	LCD_cursor@y
  6678  03B4  300F               	movlw	15
  6679  03B5  160A  118A  2290  120A  118A  	fcall	_LCD_cursor
  6680  03BA                     l4585:
  6681  03BA  3057               	movlw	low (STR_126| (0+32768))
  6682  03BB  00F4               	movwf	LCD_Wstring@v
  6683  03BC  3090               	movlw	high (STR_126| (0+32768))
  6684  03BD  00F5               	movwf	LCD_Wstring@v+1
  6685  03BE  160A  118A  22B4  120A  118A  	fcall	_LCD_Wstring
  6686  03C3  2FA0               	goto	l501
  6687  03C4                     l4587:
  6688  03C4  303E               	movlw	62
  6689  03C5  0622               	xorwf	transformcounter@p,w
  6690  03C6  1D03               	btfss	3,2
  6691  03C7  2BC9               	goto	u5411
  6692  03C8  2BCA               	goto	u5410
  6693  03C9                     u5411:
  6694  03C9  2BDE               	goto	l4593
  6695  03CA                     u5410:
  6696  03CA                     l4589:
  6697  03CA  3002               	movlw	2
  6698  03CB  00F9               	movwf	??_transformcounter
  6699  03CC  0879               	movf	??_transformcounter,w
  6700  03CD  00F5               	movwf	LCD_cursor@y
  6701  03CE  300F               	movlw	15
  6702  03CF  160A  118A  2290  120A  118A  	fcall	_LCD_cursor
  6703  03D4                     l4591:
  6704  03D4  3075               	movlw	low (STR_39| (0+32768))
  6705  03D5  00F4               	movwf	LCD_Wstring@v
  6706  03D6  3090               	movlw	high (STR_39| (0+32768))
  6707  03D7  00F5               	movwf	LCD_Wstring@v+1
  6708  03D8  160A  118A  22B4  120A  118A  	fcall	_LCD_Wstring
  6709  03DD  2FA0               	goto	l501
  6710  03DE                     l4593:
  6711  03DE  303F               	movlw	63
  6712  03DF  0622               	xorwf	transformcounter@p,w
  6713  03E0  1D03               	btfss	3,2
  6714  03E1  2BE3               	goto	u5421
  6715  03E2  2BE4               	goto	u5420
  6716  03E3                     u5421:
  6717  03E3  2BF8               	goto	l4599
  6718  03E4                     u5420:
  6719  03E4                     l4595:
  6720  03E4  3002               	movlw	2
  6721  03E5  00F9               	movwf	??_transformcounter
  6722  03E6  0879               	movf	??_transformcounter,w
  6723  03E7  00F5               	movwf	LCD_cursor@y
  6724  03E8  300F               	movlw	15
  6725  03E9  160A  118A  2290  120A  118A  	fcall	_LCD_cursor
  6726  03EE                     l4597:
  6727  03EE  3093               	movlw	low (STR_128| (0+32768))
  6728  03EF  00F4               	movwf	LCD_Wstring@v
  6729  03F0  3090               	movlw	high (STR_128| (0+32768))
  6730  03F1  00F5               	movwf	LCD_Wstring@v+1
  6731  03F2  160A  118A  22B4  120A  118A  	fcall	_LCD_Wstring
  6732  03F7  2FA0               	goto	l501
  6733  03F8                     l4599:
  6734  03F8  3040               	movlw	64
  6735  03F9  0622               	xorwf	transformcounter@p,w
  6736  03FA  1D03               	btfss	3,2
  6737  03FB  2BFD               	goto	u5431
  6738  03FC  2BFE               	goto	u5430
  6739  03FD                     u5431:
  6740  03FD  2C12               	goto	l4605
  6741  03FE                     u5430:
  6742  03FE                     l4601:
  6743  03FE  3002               	movlw	2
  6744  03FF  00F9               	movwf	??_transformcounter
  6745  0400  0879               	movf	??_transformcounter,w
  6746  0401  00F5               	movwf	LCD_cursor@y
  6747  0402  300F               	movlw	15
  6748  0403  160A  118A  2290  120A  118A  	fcall	_LCD_cursor
  6749  0408                     l4603:
  6750  0408  30B1               	movlw	low (STR_40| (0+32768))
  6751  0409  00F4               	movwf	LCD_Wstring@v
  6752  040A  3090               	movlw	high (STR_40| (0+32768))
  6753  040B  00F5               	movwf	LCD_Wstring@v+1
  6754  040C  160A  118A  22B4  120A  118A  	fcall	_LCD_Wstring
  6755  0411  2FA0               	goto	l501
  6756  0412                     l4605:
  6757  0412  3041               	movlw	65
  6758  0413  0622               	xorwf	transformcounter@p,w
  6759  0414  1D03               	btfss	3,2
  6760  0415  2C17               	goto	u5441
  6761  0416  2C18               	goto	u5440
  6762  0417                     u5441:
  6763  0417  2C2C               	goto	l4611
  6764  0418                     u5440:
  6765  0418                     l4607:
  6766  0418  3002               	movlw	2
  6767  0419  00F9               	movwf	??_transformcounter
  6768  041A  0879               	movf	??_transformcounter,w
  6769  041B  00F5               	movwf	LCD_cursor@y
  6770  041C  300F               	movlw	15
  6771  041D  160A  118A  2290  120A  118A  	fcall	_LCD_cursor
  6772  0422                     l4609:
  6773  0422  30CF               	movlw	low (STR_130| (0+32768))
  6774  0423  00F4               	movwf	LCD_Wstring@v
  6775  0424  3090               	movlw	high (STR_130| (0+32768))
  6776  0425  00F5               	movwf	LCD_Wstring@v+1
  6777  0426  160A  118A  22B4  120A  118A  	fcall	_LCD_Wstring
  6778  042B  2FA0               	goto	l501
  6779  042C                     l4611:
  6780  042C  3042               	movlw	66
  6781  042D  0622               	xorwf	transformcounter@p,w
  6782  042E  1D03               	btfss	3,2
  6783  042F  2C31               	goto	u5451
  6784  0430  2C32               	goto	u5450
  6785  0431                     u5451:
  6786  0431  2C46               	goto	l4617
  6787  0432                     u5450:
  6788  0432                     l4613:
  6789  0432  3002               	movlw	2
  6790  0433  00F9               	movwf	??_transformcounter
  6791  0434  0879               	movf	??_transformcounter,w
  6792  0435  00F5               	movwf	LCD_cursor@y
  6793  0436  300F               	movlw	15
  6794  0437  160A  118A  2290  120A  118A  	fcall	_LCD_cursor
  6795  043C                     l4615:
  6796  043C  30ED               	movlw	low (STR_41| (0+32768))
  6797  043D  00F4               	movwf	LCD_Wstring@v
  6798  043E  3090               	movlw	high (STR_41| (0+32768))
  6799  043F  00F5               	movwf	LCD_Wstring@v+1
  6800  0440  160A  118A  22B4  120A  118A  	fcall	_LCD_Wstring
  6801  0445  2FA0               	goto	l501
  6802  0446                     l4617:
  6803  0446  3043               	movlw	67
  6804  0447  0622               	xorwf	transformcounter@p,w
  6805  0448  1D03               	btfss	3,2
  6806  0449  2C4B               	goto	u5461
  6807  044A  2C4C               	goto	u5460
  6808  044B                     u5461:
  6809  044B  2C60               	goto	l4623
  6810  044C                     u5460:
  6811  044C                     l4619:
  6812  044C  3002               	movlw	2
  6813  044D  00F9               	movwf	??_transformcounter
  6814  044E  0879               	movf	??_transformcounter,w
  6815  044F  00F5               	movwf	LCD_cursor@y
  6816  0450  300F               	movlw	15
  6817  0451  160A  118A  2290  120A  118A  	fcall	_LCD_cursor
  6818  0456                     l4621:
  6819  0456  300B               	movlw	low (STR_132| (0+32768))
  6820  0457  00F4               	movwf	LCD_Wstring@v
  6821  0458  3091               	movlw	high (STR_132| (0+32768))
  6822  0459  00F5               	movwf	LCD_Wstring@v+1
  6823  045A  160A  118A  22B4  120A  118A  	fcall	_LCD_Wstring
  6824  045F  2FA0               	goto	l501
  6825  0460                     l4623:
  6826  0460  3044               	movlw	68
  6827  0461  0622               	xorwf	transformcounter@p,w
  6828  0462  1D03               	btfss	3,2
  6829  0463  2C65               	goto	u5471
  6830  0464  2C66               	goto	u5470
  6831  0465                     u5471:
  6832  0465  2C7A               	goto	l4629
  6833  0466                     u5470:
  6834  0466                     l4625:
  6835  0466  3002               	movlw	2
  6836  0467  00F9               	movwf	??_transformcounter
  6837  0468  0879               	movf	??_transformcounter,w
  6838  0469  00F5               	movwf	LCD_cursor@y
  6839  046A  300F               	movlw	15
  6840  046B  160A  118A  2290  120A  118A  	fcall	_LCD_cursor
  6841  0470                     l4627:
  6842  0470  3029               	movlw	low (STR_42| (0+32768))
  6843  0471  00F4               	movwf	LCD_Wstring@v
  6844  0472  3091               	movlw	high (STR_42| (0+32768))
  6845  0473  00F5               	movwf	LCD_Wstring@v+1
  6846  0474  160A  118A  22B4  120A  118A  	fcall	_LCD_Wstring
  6847  0479  2FA0               	goto	l501
  6848  047A                     l4629:
  6849  047A  3045               	movlw	69
  6850  047B  0622               	xorwf	transformcounter@p,w
  6851  047C  1D03               	btfss	3,2
  6852  047D  2C7F               	goto	u5481
  6853  047E  2C80               	goto	u5480
  6854  047F                     u5481:
  6855  047F  2C94               	goto	l4635
  6856  0480                     u5480:
  6857  0480                     l4631:
  6858  0480  3002               	movlw	2
  6859  0481  00F9               	movwf	??_transformcounter
  6860  0482  0879               	movf	??_transformcounter,w
  6861  0483  00F5               	movwf	LCD_cursor@y
  6862  0484  300F               	movlw	15
  6863  0485  160A  118A  2290  120A  118A  	fcall	_LCD_cursor
  6864  048A                     l4633:
  6865  048A  3047               	movlw	low (STR_134| (0+32768))
  6866  048B  00F4               	movwf	LCD_Wstring@v
  6867  048C  3091               	movlw	high (STR_134| (0+32768))
  6868  048D  00F5               	movwf	LCD_Wstring@v+1
  6869  048E  160A  118A  22B4  120A  118A  	fcall	_LCD_Wstring
  6870  0493  2FA0               	goto	l501
  6871  0494                     l4635:
  6872  0494  3046               	movlw	70
  6873  0495  0622               	xorwf	transformcounter@p,w
  6874  0496  1D03               	btfss	3,2
  6875  0497  2C99               	goto	u5491
  6876  0498  2C9A               	goto	u5490
  6877  0499                     u5491:
  6878  0499  2CAE               	goto	l4641
  6879  049A                     u5490:
  6880  049A                     l4637:
  6881  049A  3002               	movlw	2
  6882  049B  00F9               	movwf	??_transformcounter
  6883  049C  0879               	movf	??_transformcounter,w
  6884  049D  00F5               	movwf	LCD_cursor@y
  6885  049E  300F               	movlw	15
  6886  049F  160A  118A  2290  120A  118A  	fcall	_LCD_cursor
  6887  04A4                     l4639:
  6888  04A4  303C               	movlw	low (STR_43| (0+32768))
  6889  04A5  00F4               	movwf	LCD_Wstring@v
  6890  04A6  3090               	movlw	high (STR_43| (0+32768))
  6891  04A7  00F5               	movwf	LCD_Wstring@v+1
  6892  04A8  160A  118A  22B4  120A  118A  	fcall	_LCD_Wstring
  6893  04AD  2FA0               	goto	l501
  6894  04AE                     l4641:
  6895  04AE  3047               	movlw	71
  6896  04AF  0622               	xorwf	transformcounter@p,w
  6897  04B0  1D03               	btfss	3,2
  6898  04B1  2CB3               	goto	u5501
  6899  04B2  2CB4               	goto	u5500
  6900  04B3                     u5501:
  6901  04B3  2CC8               	goto	l4647
  6902  04B4                     u5500:
  6903  04B4                     l4643:
  6904  04B4  3002               	movlw	2
  6905  04B5  00F9               	movwf	??_transformcounter
  6906  04B6  0879               	movf	??_transformcounter,w
  6907  04B7  00F5               	movwf	LCD_cursor@y
  6908  04B8  300F               	movlw	15
  6909  04B9  160A  118A  2290  120A  118A  	fcall	_LCD_cursor
  6910  04BE                     l4645:
  6911  04BE  305A               	movlw	low (STR_136| (0+32768))
  6912  04BF  00F4               	movwf	LCD_Wstring@v
  6913  04C0  3090               	movlw	high (STR_136| (0+32768))
  6914  04C1  00F5               	movwf	LCD_Wstring@v+1
  6915  04C2  160A  118A  22B4  120A  118A  	fcall	_LCD_Wstring
  6916  04C7  2FA0               	goto	l501
  6917  04C8                     l4647:
  6918  04C8  3048               	movlw	72
  6919  04C9  0622               	xorwf	transformcounter@p,w
  6920  04CA  1D03               	btfss	3,2
  6921  04CB  2CCD               	goto	u5511
  6922  04CC  2CCE               	goto	u5510
  6923  04CD                     u5511:
  6924  04CD  2CE2               	goto	l4653
  6925  04CE                     u5510:
  6926  04CE                     l4649:
  6927  04CE  3002               	movlw	2
  6928  04CF  00F9               	movwf	??_transformcounter
  6929  04D0  0879               	movf	??_transformcounter,w
  6930  04D1  00F5               	movwf	LCD_cursor@y
  6931  04D2  300F               	movlw	15
  6932  04D3  160A  118A  2290  120A  118A  	fcall	_LCD_cursor
  6933  04D8                     l4651:
  6934  04D8  3078               	movlw	low (STR_44| (0+32768))
  6935  04D9  00F4               	movwf	LCD_Wstring@v
  6936  04DA  3090               	movlw	high (STR_44| (0+32768))
  6937  04DB  00F5               	movwf	LCD_Wstring@v+1
  6938  04DC  160A  118A  22B4  120A  118A  	fcall	_LCD_Wstring
  6939  04E1  2FA0               	goto	l501
  6940  04E2                     l4653:
  6941  04E2  3049               	movlw	73
  6942  04E3  0622               	xorwf	transformcounter@p,w
  6943  04E4  1D03               	btfss	3,2
  6944  04E5  2CE7               	goto	u5521
  6945  04E6  2CE8               	goto	u5520
  6946  04E7                     u5521:
  6947  04E7  2CFC               	goto	l4659
  6948  04E8                     u5520:
  6949  04E8                     l4655:
  6950  04E8  3002               	movlw	2
  6951  04E9  00F9               	movwf	??_transformcounter
  6952  04EA  0879               	movf	??_transformcounter,w
  6953  04EB  00F5               	movwf	LCD_cursor@y
  6954  04EC  300F               	movlw	15
  6955  04ED  160A  118A  2290  120A  118A  	fcall	_LCD_cursor
  6956  04F2                     l4657:
  6957  04F2  3096               	movlw	low (STR_138| (0+32768))
  6958  04F3  00F4               	movwf	LCD_Wstring@v
  6959  04F4  3090               	movlw	high (STR_138| (0+32768))
  6960  04F5  00F5               	movwf	LCD_Wstring@v+1
  6961  04F6  160A  118A  22B4  120A  118A  	fcall	_LCD_Wstring
  6962  04FB  2FA0               	goto	l501
  6963  04FC                     l4659:
  6964  04FC  304A               	movlw	74
  6965  04FD  0622               	xorwf	transformcounter@p,w
  6966  04FE  1D03               	btfss	3,2
  6967  04FF  2D01               	goto	u5531
  6968  0500  2D02               	goto	u5530
  6969  0501                     u5531:
  6970  0501  2D16               	goto	l4665
  6971  0502                     u5530:
  6972  0502                     l4661:
  6973  0502  3002               	movlw	2
  6974  0503  00F9               	movwf	??_transformcounter
  6975  0504  0879               	movf	??_transformcounter,w
  6976  0505  00F5               	movwf	LCD_cursor@y
  6977  0506  300F               	movlw	15
  6978  0507  160A  118A  2290  120A  118A  	fcall	_LCD_cursor
  6979  050C                     l4663:
  6980  050C  30B4               	movlw	low (STR_45| (0+32768))
  6981  050D  00F4               	movwf	LCD_Wstring@v
  6982  050E  3090               	movlw	high (STR_45| (0+32768))
  6983  050F  00F5               	movwf	LCD_Wstring@v+1
  6984  0510  160A  118A  22B4  120A  118A  	fcall	_LCD_Wstring
  6985  0515  2FA0               	goto	l501
  6986  0516                     l4665:
  6987  0516  304B               	movlw	75
  6988  0517  0622               	xorwf	transformcounter@p,w
  6989  0518  1D03               	btfss	3,2
  6990  0519  2D1B               	goto	u5541
  6991  051A  2D1C               	goto	u5540
  6992  051B                     u5541:
  6993  051B  2D30               	goto	l4671
  6994  051C                     u5540:
  6995  051C                     l4667:
  6996  051C  3002               	movlw	2
  6997  051D  00F9               	movwf	??_transformcounter
  6998  051E  0879               	movf	??_transformcounter,w
  6999  051F  00F5               	movwf	LCD_cursor@y
  7000  0520  300F               	movlw	15
  7001  0521  160A  118A  2290  120A  118A  	fcall	_LCD_cursor
  7002  0526                     l4669:
  7003  0526  30D2               	movlw	low (STR_140| (0+32768))
  7004  0527  00F4               	movwf	LCD_Wstring@v
  7005  0528  3090               	movlw	high (STR_140| (0+32768))
  7006  0529  00F5               	movwf	LCD_Wstring@v+1
  7007  052A  160A  118A  22B4  120A  118A  	fcall	_LCD_Wstring
  7008  052F  2FA0               	goto	l501
  7009  0530                     l4671:
  7010  0530  304C               	movlw	76
  7011  0531  0622               	xorwf	transformcounter@p,w
  7012  0532  1D03               	btfss	3,2
  7013  0533  2D35               	goto	u5551
  7014  0534  2D36               	goto	u5550
  7015  0535                     u5551:
  7016  0535  2D4A               	goto	l4677
  7017  0536                     u5550:
  7018  0536                     l4673:
  7019  0536  3002               	movlw	2
  7020  0537  00F9               	movwf	??_transformcounter
  7021  0538  0879               	movf	??_transformcounter,w
  7022  0539  00F5               	movwf	LCD_cursor@y
  7023  053A  300F               	movlw	15
  7024  053B  160A  118A  2290  120A  118A  	fcall	_LCD_cursor
  7025  0540                     l4675:
  7026  0540  30F0               	movlw	low (STR_46| (0+32768))
  7027  0541  00F4               	movwf	LCD_Wstring@v
  7028  0542  3090               	movlw	high (STR_46| (0+32768))
  7029  0543  00F5               	movwf	LCD_Wstring@v+1
  7030  0544  160A  118A  22B4  120A  118A  	fcall	_LCD_Wstring
  7031  0549  2FA0               	goto	l501
  7032  054A                     l4677:
  7033  054A  304D               	movlw	77
  7034  054B  0622               	xorwf	transformcounter@p,w
  7035  054C  1D03               	btfss	3,2
  7036  054D  2D4F               	goto	u5561
  7037  054E  2D50               	goto	u5560
  7038  054F                     u5561:
  7039  054F  2D64               	goto	l4683
  7040  0550                     u5560:
  7041  0550                     l4679:
  7042  0550  3002               	movlw	2
  7043  0551  00F9               	movwf	??_transformcounter
  7044  0552  0879               	movf	??_transformcounter,w
  7045  0553  00F5               	movwf	LCD_cursor@y
  7046  0554  300F               	movlw	15
  7047  0555  160A  118A  2290  120A  118A  	fcall	_LCD_cursor
  7048  055A                     l4681:
  7049  055A  300E               	movlw	low (STR_142| (0+32768))
  7050  055B  00F4               	movwf	LCD_Wstring@v
  7051  055C  3091               	movlw	high (STR_142| (0+32768))
  7052  055D  00F5               	movwf	LCD_Wstring@v+1
  7053  055E  160A  118A  22B4  120A  118A  	fcall	_LCD_Wstring
  7054  0563  2FA0               	goto	l501
  7055  0564                     l4683:
  7056  0564  304E               	movlw	78
  7057  0565  0622               	xorwf	transformcounter@p,w
  7058  0566  1D03               	btfss	3,2
  7059  0567  2D69               	goto	u5571
  7060  0568  2D6A               	goto	u5570
  7061  0569                     u5571:
  7062  0569  2D7E               	goto	l4689
  7063  056A                     u5570:
  7064  056A                     l4685:
  7065  056A  3002               	movlw	2
  7066  056B  00F9               	movwf	??_transformcounter
  7067  056C  0879               	movf	??_transformcounter,w
  7068  056D  00F5               	movwf	LCD_cursor@y
  7069  056E  300F               	movlw	15
  7070  056F  160A  118A  2290  120A  118A  	fcall	_LCD_cursor
  7071  0574                     l4687:
  7072  0574  302C               	movlw	low (STR_47| (0+32768))
  7073  0575  00F4               	movwf	LCD_Wstring@v
  7074  0576  3091               	movlw	high (STR_47| (0+32768))
  7075  0577  00F5               	movwf	LCD_Wstring@v+1
  7076  0578  160A  118A  22B4  120A  118A  	fcall	_LCD_Wstring
  7077  057D  2FA0               	goto	l501
  7078  057E                     l4689:
  7079  057E  304F               	movlw	79
  7080  057F  0622               	xorwf	transformcounter@p,w
  7081  0580  1D03               	btfss	3,2
  7082  0581  2D83               	goto	u5581
  7083  0582  2D84               	goto	u5580
  7084  0583                     u5581:
  7085  0583  2D98               	goto	l4695
  7086  0584                     u5580:
  7087  0584                     l4691:
  7088  0584  3002               	movlw	2
  7089  0585  00F9               	movwf	??_transformcounter
  7090  0586  0879               	movf	??_transformcounter,w
  7091  0587  00F5               	movwf	LCD_cursor@y
  7092  0588  300F               	movlw	15
  7093  0589  160A  118A  2290  120A  118A  	fcall	_LCD_cursor
  7094  058E                     l4693:
  7095  058E  304A               	movlw	low (STR_144| (0+32768))
  7096  058F  00F4               	movwf	LCD_Wstring@v
  7097  0590  3091               	movlw	high (STR_144| (0+32768))
  7098  0591  00F5               	movwf	LCD_Wstring@v+1
  7099  0592  160A  118A  22B4  120A  118A  	fcall	_LCD_Wstring
  7100  0597  2FA0               	goto	l501
  7101  0598                     l4695:
  7102  0598  3050               	movlw	80
  7103  0599  0622               	xorwf	transformcounter@p,w
  7104  059A  1D03               	btfss	3,2
  7105  059B  2D9D               	goto	u5591
  7106  059C  2D9E               	goto	u5590
  7107  059D                     u5591:
  7108  059D  2DB2               	goto	l4701
  7109  059E                     u5590:
  7110  059E                     l4697:
  7111  059E  3002               	movlw	2
  7112  059F  00F9               	movwf	??_transformcounter
  7113  05A0  0879               	movf	??_transformcounter,w
  7114  05A1  00F5               	movwf	LCD_cursor@y
  7115  05A2  300F               	movlw	15
  7116  05A3  160A  118A  2290  120A  118A  	fcall	_LCD_cursor
  7117  05A8                     l4699:
  7118  05A8  303F               	movlw	low (STR_48| (0+32768))
  7119  05A9  00F4               	movwf	LCD_Wstring@v
  7120  05AA  3090               	movlw	high (STR_48| (0+32768))
  7121  05AB  00F5               	movwf	LCD_Wstring@v+1
  7122  05AC  160A  118A  22B4  120A  118A  	fcall	_LCD_Wstring
  7123  05B1  2FA0               	goto	l501
  7124  05B2                     l4701:
  7125  05B2  3051               	movlw	81
  7126  05B3  0622               	xorwf	transformcounter@p,w
  7127  05B4  1D03               	btfss	3,2
  7128  05B5  2DB7               	goto	u5601
  7129  05B6  2DB8               	goto	u5600
  7130  05B7                     u5601:
  7131  05B7  2DCC               	goto	l4707
  7132  05B8                     u5600:
  7133  05B8                     l4703:
  7134  05B8  3002               	movlw	2
  7135  05B9  00F9               	movwf	??_transformcounter
  7136  05BA  0879               	movf	??_transformcounter,w
  7137  05BB  00F5               	movwf	LCD_cursor@y
  7138  05BC  300F               	movlw	15
  7139  05BD  160A  118A  2290  120A  118A  	fcall	_LCD_cursor
  7140  05C2                     l4705:
  7141  05C2  305D               	movlw	low (STR_146| (0+32768))
  7142  05C3  00F4               	movwf	LCD_Wstring@v
  7143  05C4  3090               	movlw	high (STR_146| (0+32768))
  7144  05C5  00F5               	movwf	LCD_Wstring@v+1
  7145  05C6  160A  118A  22B4  120A  118A  	fcall	_LCD_Wstring
  7146  05CB  2FA0               	goto	l501
  7147  05CC                     l4707:
  7148  05CC  3052               	movlw	82
  7149  05CD  0622               	xorwf	transformcounter@p,w
  7150  05CE  1D03               	btfss	3,2
  7151  05CF  2DD1               	goto	u5611
  7152  05D0  2DD2               	goto	u5610
  7153  05D1                     u5611:
  7154  05D1  2DE6               	goto	l4713
  7155  05D2                     u5610:
  7156  05D2                     l4709:
  7157  05D2  3002               	movlw	2
  7158  05D3  00F9               	movwf	??_transformcounter
  7159  05D4  0879               	movf	??_transformcounter,w
  7160  05D5  00F5               	movwf	LCD_cursor@y
  7161  05D6  300F               	movlw	15
  7162  05D7  160A  118A  2290  120A  118A  	fcall	_LCD_cursor
  7163  05DC                     l4711:
  7164  05DC  307B               	movlw	low (STR_49| (0+32768))
  7165  05DD  00F4               	movwf	LCD_Wstring@v
  7166  05DE  3090               	movlw	high (STR_49| (0+32768))
  7167  05DF  00F5               	movwf	LCD_Wstring@v+1
  7168  05E0  160A  118A  22B4  120A  118A  	fcall	_LCD_Wstring
  7169  05E5  2FA0               	goto	l501
  7170  05E6                     l4713:
  7171  05E6  3053               	movlw	83
  7172  05E7  0622               	xorwf	transformcounter@p,w
  7173  05E8  1D03               	btfss	3,2
  7174  05E9  2DEB               	goto	u5621
  7175  05EA  2DEC               	goto	u5620
  7176  05EB                     u5621:
  7177  05EB  2E00               	goto	l4719
  7178  05EC                     u5620:
  7179  05EC                     l4715:
  7180  05EC  3002               	movlw	2
  7181  05ED  00F9               	movwf	??_transformcounter
  7182  05EE  0879               	movf	??_transformcounter,w
  7183  05EF  00F5               	movwf	LCD_cursor@y
  7184  05F0  300F               	movlw	15
  7185  05F1  160A  118A  2290  120A  118A  	fcall	_LCD_cursor
  7186  05F6                     l4717:
  7187  05F6  3099               	movlw	low (STR_148| (0+32768))
  7188  05F7  00F4               	movwf	LCD_Wstring@v
  7189  05F8  3090               	movlw	high (STR_148| (0+32768))
  7190  05F9  00F5               	movwf	LCD_Wstring@v+1
  7191  05FA  160A  118A  22B4  120A  118A  	fcall	_LCD_Wstring
  7192  05FF  2FA0               	goto	l501
  7193  0600                     l4719:
  7194  0600  3054               	movlw	84
  7195  0601  0622               	xorwf	transformcounter@p,w
  7196  0602  1D03               	btfss	3,2
  7197  0603  2E05               	goto	u5631
  7198  0604  2E06               	goto	u5630
  7199  0605                     u5631:
  7200  0605  2E1A               	goto	l4725
  7201  0606                     u5630:
  7202  0606                     l4721:
  7203  0606  3002               	movlw	2
  7204  0607  00F9               	movwf	??_transformcounter
  7205  0608  0879               	movf	??_transformcounter,w
  7206  0609  00F5               	movwf	LCD_cursor@y
  7207  060A  300F               	movlw	15
  7208  060B  160A  118A  2290  120A  118A  	fcall	_LCD_cursor
  7209  0610                     l4723:
  7210  0610  30B7               	movlw	low (STR_50| (0+32768))
  7211  0611  00F4               	movwf	LCD_Wstring@v
  7212  0612  3090               	movlw	high (STR_50| (0+32768))
  7213  0613  00F5               	movwf	LCD_Wstring@v+1
  7214  0614  160A  118A  22B4  120A  118A  	fcall	_LCD_Wstring
  7215  0619  2FA0               	goto	l501
  7216  061A                     l4725:
  7217  061A  3055               	movlw	85
  7218  061B  0622               	xorwf	transformcounter@p,w
  7219  061C  1D03               	btfss	3,2
  7220  061D  2E1F               	goto	u5641
  7221  061E  2E20               	goto	u5640
  7222  061F                     u5641:
  7223  061F  2E34               	goto	l4731
  7224  0620                     u5640:
  7225  0620                     l4727:
  7226  0620  3002               	movlw	2
  7227  0621  00F9               	movwf	??_transformcounter
  7228  0622  0879               	movf	??_transformcounter,w
  7229  0623  00F5               	movwf	LCD_cursor@y
  7230  0624  300F               	movlw	15
  7231  0625  160A  118A  2290  120A  118A  	fcall	_LCD_cursor
  7232  062A                     l4729:
  7233  062A  30D5               	movlw	low (STR_150| (0+32768))
  7234  062B  00F4               	movwf	LCD_Wstring@v
  7235  062C  3090               	movlw	high (STR_150| (0+32768))
  7236  062D  00F5               	movwf	LCD_Wstring@v+1
  7237  062E  160A  118A  22B4  120A  118A  	fcall	_LCD_Wstring
  7238  0633  2FA0               	goto	l501
  7239  0634                     l4731:
  7240  0634  3056               	movlw	86
  7241  0635  0622               	xorwf	transformcounter@p,w
  7242  0636  1D03               	btfss	3,2
  7243  0637  2E39               	goto	u5651
  7244  0638  2E3A               	goto	u5650
  7245  0639                     u5651:
  7246  0639  2E4E               	goto	l4737
  7247  063A                     u5650:
  7248  063A                     l4733:
  7249  063A  3002               	movlw	2
  7250  063B  00F9               	movwf	??_transformcounter
  7251  063C  0879               	movf	??_transformcounter,w
  7252  063D  00F5               	movwf	LCD_cursor@y
  7253  063E  300F               	movlw	15
  7254  063F  160A  118A  2290  120A  118A  	fcall	_LCD_cursor
  7255  0644                     l4735:
  7256  0644  30F3               	movlw	low (STR_51| (0+32768))
  7257  0645  00F4               	movwf	LCD_Wstring@v
  7258  0646  3090               	movlw	high (STR_51| (0+32768))
  7259  0647  00F5               	movwf	LCD_Wstring@v+1
  7260  0648  160A  118A  22B4  120A  118A  	fcall	_LCD_Wstring
  7261  064D  2FA0               	goto	l501
  7262  064E                     l4737:
  7263  064E  3057               	movlw	87
  7264  064F  0622               	xorwf	transformcounter@p,w
  7265  0650  1D03               	btfss	3,2
  7266  0651  2E53               	goto	u5661
  7267  0652  2E54               	goto	u5660
  7268  0653                     u5661:
  7269  0653  2E68               	goto	l4743
  7270  0654                     u5660:
  7271  0654                     l4739:
  7272  0654  3002               	movlw	2
  7273  0655  00F9               	movwf	??_transformcounter
  7274  0656  0879               	movf	??_transformcounter,w
  7275  0657  00F5               	movwf	LCD_cursor@y
  7276  0658  300F               	movlw	15
  7277  0659  160A  118A  2290  120A  118A  	fcall	_LCD_cursor
  7278  065E                     l4741:
  7279  065E  3011               	movlw	low (STR_152| (0+32768))
  7280  065F  00F4               	movwf	LCD_Wstring@v
  7281  0660  3091               	movlw	high (STR_152| (0+32768))
  7282  0661  00F5               	movwf	LCD_Wstring@v+1
  7283  0662  160A  118A  22B4  120A  118A  	fcall	_LCD_Wstring
  7284  0667  2FA0               	goto	l501
  7285  0668                     l4743:
  7286  0668  3058               	movlw	88
  7287  0669  0622               	xorwf	transformcounter@p,w
  7288  066A  1D03               	btfss	3,2
  7289  066B  2E6D               	goto	u5671
  7290  066C  2E6E               	goto	u5670
  7291  066D                     u5671:
  7292  066D  2E82               	goto	l4749
  7293  066E                     u5670:
  7294  066E                     l4745:
  7295  066E  3002               	movlw	2
  7296  066F  00F9               	movwf	??_transformcounter
  7297  0670  0879               	movf	??_transformcounter,w
  7298  0671  00F5               	movwf	LCD_cursor@y
  7299  0672  300F               	movlw	15
  7300  0673  160A  118A  2290  120A  118A  	fcall	_LCD_cursor
  7301  0678                     l4747:
  7302  0678  302F               	movlw	low (STR_52| (0+32768))
  7303  0679  00F4               	movwf	LCD_Wstring@v
  7304  067A  3091               	movlw	high (STR_52| (0+32768))
  7305  067B  00F5               	movwf	LCD_Wstring@v+1
  7306  067C  160A  118A  22B4  120A  118A  	fcall	_LCD_Wstring
  7307  0681  2FA0               	goto	l501
  7308  0682                     l4749:
  7309  0682  3059               	movlw	89
  7310  0683  0622               	xorwf	transformcounter@p,w
  7311  0684  1D03               	btfss	3,2
  7312  0685  2E87               	goto	u5681
  7313  0686  2E88               	goto	u5680
  7314  0687                     u5681:
  7315  0687  2E9C               	goto	l4755
  7316  0688                     u5680:
  7317  0688                     l4751:
  7318  0688  3002               	movlw	2
  7319  0689  00F9               	movwf	??_transformcounter
  7320  068A  0879               	movf	??_transformcounter,w
  7321  068B  00F5               	movwf	LCD_cursor@y
  7322  068C  300F               	movlw	15
  7323  068D  160A  118A  2290  120A  118A  	fcall	_LCD_cursor
  7324  0692                     l4753:
  7325  0692  304D               	movlw	low (STR_154| (0+32768))
  7326  0693  00F4               	movwf	LCD_Wstring@v
  7327  0694  3091               	movlw	high (STR_154| (0+32768))
  7328  0695  00F5               	movwf	LCD_Wstring@v+1
  7329  0696  160A  118A  22B4  120A  118A  	fcall	_LCD_Wstring
  7330  069B  2FA0               	goto	l501
  7331  069C                     l4755:
  7332  069C  305A               	movlw	90
  7333  069D  0622               	xorwf	transformcounter@p,w
  7334  069E  1D03               	btfss	3,2
  7335  069F  2EA1               	goto	u5691
  7336  06A0  2EA2               	goto	u5690
  7337  06A1                     u5691:
  7338  06A1  2EB6               	goto	l4761
  7339  06A2                     u5690:
  7340  06A2                     l4757:
  7341  06A2  3002               	movlw	2
  7342  06A3  00F9               	movwf	??_transformcounter
  7343  06A4  0879               	movf	??_transformcounter,w
  7344  06A5  00F5               	movwf	LCD_cursor@y
  7345  06A6  300F               	movlw	15
  7346  06A7  160A  118A  2290  120A  118A  	fcall	_LCD_cursor
  7347  06AC                     l4759:
  7348  06AC  3042               	movlw	low (STR_53| (0+32768))
  7349  06AD  00F4               	movwf	LCD_Wstring@v
  7350  06AE  3090               	movlw	high (STR_53| (0+32768))
  7351  06AF  00F5               	movwf	LCD_Wstring@v+1
  7352  06B0  160A  118A  22B4  120A  118A  	fcall	_LCD_Wstring
  7353  06B5  2FA0               	goto	l501
  7354  06B6                     l4761:
  7355  06B6  305B               	movlw	91
  7356  06B7  0622               	xorwf	transformcounter@p,w
  7357  06B8  1D03               	btfss	3,2
  7358  06B9  2EBB               	goto	u5701
  7359  06BA  2EBC               	goto	u5700
  7360  06BB                     u5701:
  7361  06BB  2ED0               	goto	l4767
  7362  06BC                     u5700:
  7363  06BC                     l4763:
  7364  06BC  3002               	movlw	2
  7365  06BD  00F9               	movwf	??_transformcounter
  7366  06BE  0879               	movf	??_transformcounter,w
  7367  06BF  00F5               	movwf	LCD_cursor@y
  7368  06C0  300F               	movlw	15
  7369  06C1  160A  118A  2290  120A  118A  	fcall	_LCD_cursor
  7370  06C6                     l4765:
  7371  06C6  3060               	movlw	low (STR_156| (0+32768))
  7372  06C7  00F4               	movwf	LCD_Wstring@v
  7373  06C8  3090               	movlw	high (STR_156| (0+32768))
  7374  06C9  00F5               	movwf	LCD_Wstring@v+1
  7375  06CA  160A  118A  22B4  120A  118A  	fcall	_LCD_Wstring
  7376  06CF  2FA0               	goto	l501
  7377  06D0                     l4767:
  7378  06D0  305C               	movlw	92
  7379  06D1  0622               	xorwf	transformcounter@p,w
  7380  06D2  1D03               	btfss	3,2
  7381  06D3  2ED5               	goto	u5711
  7382  06D4  2ED6               	goto	u5710
  7383  06D5                     u5711:
  7384  06D5  2EEA               	goto	l4773
  7385  06D6                     u5710:
  7386  06D6                     l4769:
  7387  06D6  3002               	movlw	2
  7388  06D7  00F9               	movwf	??_transformcounter
  7389  06D8  0879               	movf	??_transformcounter,w
  7390  06D9  00F5               	movwf	LCD_cursor@y
  7391  06DA  300F               	movlw	15
  7392  06DB  160A  118A  2290  120A  118A  	fcall	_LCD_cursor
  7393  06E0                     l4771:
  7394  06E0  307E               	movlw	low (STR_54| (0+32768))
  7395  06E1  00F4               	movwf	LCD_Wstring@v
  7396  06E2  3090               	movlw	high (STR_54| (0+32768))
  7397  06E3  00F5               	movwf	LCD_Wstring@v+1
  7398  06E4  160A  118A  22B4  120A  118A  	fcall	_LCD_Wstring
  7399  06E9  2FA0               	goto	l501
  7400  06EA                     l4773:
  7401  06EA  305D               	movlw	93
  7402  06EB  0622               	xorwf	transformcounter@p,w
  7403  06EC  1D03               	btfss	3,2
  7404  06ED  2EEF               	goto	u5721
  7405  06EE  2EF0               	goto	u5720
  7406  06EF                     u5721:
  7407  06EF  2F04               	goto	l4779
  7408  06F0                     u5720:
  7409  06F0                     l4775:
  7410  06F0  3002               	movlw	2
  7411  06F1  00F9               	movwf	??_transformcounter
  7412  06F2  0879               	movf	??_transformcounter,w
  7413  06F3  00F5               	movwf	LCD_cursor@y
  7414  06F4  300F               	movlw	15
  7415  06F5  160A  118A  2290  120A  118A  	fcall	_LCD_cursor
  7416  06FA                     l4777:
  7417  06FA  309C               	movlw	low (STR_158| (0+32768))
  7418  06FB  00F4               	movwf	LCD_Wstring@v
  7419  06FC  3090               	movlw	high (STR_158| (0+32768))
  7420  06FD  00F5               	movwf	LCD_Wstring@v+1
  7421  06FE  160A  118A  22B4  120A  118A  	fcall	_LCD_Wstring
  7422  0703  2FA0               	goto	l501
  7423  0704                     l4779:
  7424  0704  305E               	movlw	94
  7425  0705  0622               	xorwf	transformcounter@p,w
  7426  0706  1D03               	btfss	3,2
  7427  0707  2F09               	goto	u5731
  7428  0708  2F0A               	goto	u5730
  7429  0709                     u5731:
  7430  0709  2F1E               	goto	l4785
  7431  070A                     u5730:
  7432  070A                     l4781:
  7433  070A  3002               	movlw	2
  7434  070B  00F9               	movwf	??_transformcounter
  7435  070C  0879               	movf	??_transformcounter,w
  7436  070D  00F5               	movwf	LCD_cursor@y
  7437  070E  300F               	movlw	15
  7438  070F  160A  118A  2290  120A  118A  	fcall	_LCD_cursor
  7439  0714                     l4783:
  7440  0714  30BA               	movlw	low (STR_55| (0+32768))
  7441  0715  00F4               	movwf	LCD_Wstring@v
  7442  0716  3090               	movlw	high (STR_55| (0+32768))
  7443  0717  00F5               	movwf	LCD_Wstring@v+1
  7444  0718  160A  118A  22B4  120A  118A  	fcall	_LCD_Wstring
  7445  071D  2FA0               	goto	l501
  7446  071E                     l4785:
  7447  071E  305F               	movlw	95
  7448  071F  0622               	xorwf	transformcounter@p,w
  7449  0720  1D03               	btfss	3,2
  7450  0721  2F23               	goto	u5741
  7451  0722  2F24               	goto	u5740
  7452  0723                     u5741:
  7453  0723  2F38               	goto	l4791
  7454  0724                     u5740:
  7455  0724                     l4787:
  7456  0724  3002               	movlw	2
  7457  0725  00F9               	movwf	??_transformcounter
  7458  0726  0879               	movf	??_transformcounter,w
  7459  0727  00F5               	movwf	LCD_cursor@y
  7460  0728  300F               	movlw	15
  7461  0729  160A  118A  2290  120A  118A  	fcall	_LCD_cursor
  7462  072E                     l4789:
  7463  072E  30D8               	movlw	low (STR_160| (0+32768))
  7464  072F  00F4               	movwf	LCD_Wstring@v
  7465  0730  3090               	movlw	high (STR_160| (0+32768))
  7466  0731  00F5               	movwf	LCD_Wstring@v+1
  7467  0732  160A  118A  22B4  120A  118A  	fcall	_LCD_Wstring
  7468  0737  2FA0               	goto	l501
  7469  0738                     l4791:
  7470  0738  3060               	movlw	96
  7471  0739  0622               	xorwf	transformcounter@p,w
  7472  073A  1D03               	btfss	3,2
  7473  073B  2F3D               	goto	u5751
  7474  073C  2F3E               	goto	u5750
  7475  073D                     u5751:
  7476  073D  2F52               	goto	l4797
  7477  073E                     u5750:
  7478  073E                     l4793:
  7479  073E  3002               	movlw	2
  7480  073F  00F9               	movwf	??_transformcounter
  7481  0740  0879               	movf	??_transformcounter,w
  7482  0741  00F5               	movwf	LCD_cursor@y
  7483  0742  300F               	movlw	15
  7484  0743  160A  118A  2290  120A  118A  	fcall	_LCD_cursor
  7485  0748                     l4795:
  7486  0748  30F6               	movlw	low (STR_56| (0+32768))
  7487  0749  00F4               	movwf	LCD_Wstring@v
  7488  074A  3090               	movlw	high (STR_56| (0+32768))
  7489  074B  00F5               	movwf	LCD_Wstring@v+1
  7490  074C  160A  118A  22B4  120A  118A  	fcall	_LCD_Wstring
  7491  0751  2FA0               	goto	l501
  7492  0752                     l4797:
  7493  0752  3061               	movlw	97
  7494  0753  0622               	xorwf	transformcounter@p,w
  7495  0754  1D03               	btfss	3,2
  7496  0755  2F57               	goto	u5761
  7497  0756  2F58               	goto	u5760
  7498  0757                     u5761:
  7499  0757  2F6C               	goto	l4803
  7500  0758                     u5760:
  7501  0758                     l4799:
  7502  0758  3002               	movlw	2
  7503  0759  00F9               	movwf	??_transformcounter
  7504  075A  0879               	movf	??_transformcounter,w
  7505  075B  00F5               	movwf	LCD_cursor@y
  7506  075C  300F               	movlw	15
  7507  075D  160A  118A  2290  120A  118A  	fcall	_LCD_cursor
  7508  0762                     l4801:
  7509  0762  3014               	movlw	low (STR_162| (0+32768))
  7510  0763  00F4               	movwf	LCD_Wstring@v
  7511  0764  3091               	movlw	high (STR_162| (0+32768))
  7512  0765  00F5               	movwf	LCD_Wstring@v+1
  7513  0766  160A  118A  22B4  120A  118A  	fcall	_LCD_Wstring
  7514  076B  2FA0               	goto	l501
  7515  076C                     l4803:
  7516  076C  3062               	movlw	98
  7517  076D  0622               	xorwf	transformcounter@p,w
  7518  076E  1D03               	btfss	3,2
  7519  076F  2F71               	goto	u5771
  7520  0770  2F72               	goto	u5770
  7521  0771                     u5771:
  7522  0771  2F86               	goto	l4809
  7523  0772                     u5770:
  7524  0772                     l4805:
  7525  0772  3002               	movlw	2
  7526  0773  00F9               	movwf	??_transformcounter
  7527  0774  0879               	movf	??_transformcounter,w
  7528  0775  00F5               	movwf	LCD_cursor@y
  7529  0776  300F               	movlw	15
  7530  0777  160A  118A  2290  120A  118A  	fcall	_LCD_cursor
  7531  077C                     l4807:
  7532  077C  3032               	movlw	low (STR_57| (0+32768))
  7533  077D  00F4               	movwf	LCD_Wstring@v
  7534  077E  3091               	movlw	high (STR_57| (0+32768))
  7535  077F  00F5               	movwf	LCD_Wstring@v+1
  7536  0780  160A  118A  22B4  120A  118A  	fcall	_LCD_Wstring
  7537  0785  2FA0               	goto	l501
  7538  0786                     l4809:
  7539  0786  3063               	movlw	99
  7540  0787  0622               	xorwf	transformcounter@p,w
  7541  0788  1D03               	btfss	3,2
  7542  0789  2F8B               	goto	u5781
  7543  078A  2F8C               	goto	u5780
  7544  078B                     u5781:
  7545  078B  2FA0               	goto	l495
  7546  078C                     u5780:
  7547  078C                     l4811:
  7548  078C  3002               	movlw	2
  7549  078D  00F9               	movwf	??_transformcounter
  7550  078E  0879               	movf	??_transformcounter,w
  7551  078F  00F5               	movwf	LCD_cursor@y
  7552  0790  300F               	movlw	15
  7553  0791  160A  118A  2290  120A  118A  	fcall	_LCD_cursor
  7554  0796                     l4813:
  7555  0796  3050               	movlw	low (STR_58| (0+32768))
  7556  0797  00F4               	movwf	LCD_Wstring@v
  7557  0798  3091               	movlw	high (STR_58| (0+32768))
  7558  0799  00F5               	movwf	LCD_Wstring@v+1
  7559  079A  160A  118A  22B4  120A  118A  	fcall	_LCD_Wstring
  7560  079F  2FA0               	goto	l501
  7561  07A0                     l495:
  7562  07A0                     l501:
  7563  07A0  0008               	return
  7564  07A1                     __end_of_transformcounter:

Data Sizes:
    Strings     339
    Constant    0
    Data        0
    BSS         7
    Persistent  0
    Stack       0

Auto Spaces:
    Space          Size  Autos    Used
    COMMON           14     10      12
    BANK0            80     27      32
    BANK1            80      0       0
    BANK3            96      0       0
    BANK2            96      0       0

Pointer List with Targets:

    LCD_Wstring@v	PTR unsigned char  size(2) Largest target is 4
		 -> STR_164(CODE[3]), STR_163(CODE[3]), STR_162(CODE[3]), STR_161(CODE[3]), 
		 -> STR_160(CODE[3]), STR_159(CODE[3]), STR_158(CODE[3]), STR_157(CODE[3]), 
		 -> STR_156(CODE[3]), STR_155(CODE[3]), STR_154(CODE[3]), STR_153(CODE[3]), 
		 -> STR_152(CODE[3]), STR_151(CODE[3]), STR_150(CODE[3]), STR_149(CODE[3]), 
		 -> STR_148(CODE[3]), STR_147(CODE[3]), STR_146(CODE[3]), STR_145(CODE[3]), 
		 -> STR_144(CODE[3]), STR_143(CODE[3]), STR_142(CODE[3]), STR_141(CODE[3]), 
		 -> STR_140(CODE[3]), STR_139(CODE[3]), STR_138(CODE[3]), STR_137(CODE[3]), 
		 -> STR_136(CODE[3]), STR_135(CODE[3]), STR_134(CODE[3]), STR_133(CODE[3]), 
		 -> STR_132(CODE[3]), STR_131(CODE[3]), STR_130(CODE[3]), STR_129(CODE[3]), 
		 -> STR_128(CODE[3]), STR_127(CODE[3]), STR_126(CODE[3]), STR_125(CODE[3]), 
		 -> STR_124(CODE[3]), STR_123(CODE[3]), STR_122(CODE[3]), STR_121(CODE[3]), 
		 -> STR_120(CODE[3]), STR_119(CODE[3]), STR_118(CODE[3]), STR_117(CODE[3]), 
		 -> STR_116(CODE[3]), STR_115(CODE[3]), STR_114(CODE[3]), STR_113(CODE[3]), 
		 -> STR_112(CODE[3]), STR_111(CODE[3]), STR_110(CODE[3]), STR_109(CODE[3]), 
		 -> STR_108(CODE[3]), STR_107(CODE[3]), STR_106(CODE[3]), STR_105(CODE[3]), 
		 -> STR_104(CODE[3]), STR_103(CODE[3]), STR_102(CODE[3]), STR_101(CODE[3]), 
		 -> STR_100(CODE[3]), STR_99(CODE[3]), STR_98(CODE[3]), STR_97(CODE[3]), 
		 -> STR_96(CODE[3]), STR_95(CODE[3]), STR_94(CODE[3]), STR_93(CODE[3]), 
		 -> STR_92(CODE[3]), STR_91(CODE[3]), STR_90(CODE[3]), STR_89(CODE[3]), 
		 -> STR_88(CODE[3]), STR_87(CODE[3]), STR_86(CODE[3]), STR_85(CODE[3]), 
		 -> STR_84(CODE[3]), STR_83(CODE[3]), STR_82(CODE[3]), STR_81(CODE[3]), 
		 -> STR_80(CODE[3]), STR_79(CODE[3]), STR_78(CODE[3]), STR_77(CODE[3]), 
		 -> STR_76(CODE[3]), STR_75(CODE[3]), STR_74(CODE[3]), STR_73(CODE[3]), 
		 -> STR_72(CODE[3]), STR_71(CODE[3]), STR_70(CODE[3]), STR_69(CODE[3]), 
		 -> STR_68(CODE[3]), STR_67(CODE[3]), STR_66(CODE[3]), STR_65(CODE[3]), 
		 -> STR_64(CODE[2]), STR_63(CODE[2]), STR_62(CODE[2]), STR_61(CODE[4]), 
		 -> STR_60(CODE[4]), STR_59(CODE[4]), STR_58(CODE[3]), STR_57(CODE[3]), 
		 -> STR_56(CODE[3]), STR_55(CODE[3]), STR_54(CODE[3]), STR_53(CODE[3]), 
		 -> STR_52(CODE[3]), STR_51(CODE[3]), STR_50(CODE[3]), STR_49(CODE[3]), 
		 -> STR_48(CODE[3]), STR_47(CODE[3]), STR_46(CODE[3]), STR_45(CODE[3]), 
		 -> STR_44(CODE[3]), STR_43(CODE[3]), STR_42(CODE[3]), STR_41(CODE[3]), 
		 -> STR_40(CODE[3]), STR_39(CODE[3]), STR_38(CODE[3]), STR_37(CODE[3]), 
		 -> STR_36(CODE[3]), STR_35(CODE[3]), STR_34(CODE[3]), STR_33(CODE[3]), 
		 -> STR_32(CODE[3]), STR_31(CODE[3]), STR_30(CODE[3]), STR_29(CODE[3]), 
		 -> STR_28(CODE[3]), STR_27(CODE[3]), STR_26(CODE[3]), STR_25(CODE[3]), 
		 -> STR_24(CODE[3]), STR_23(CODE[3]), STR_22(CODE[3]), STR_21(CODE[3]), 
		 -> STR_20(CODE[3]), STR_19(CODE[3]), STR_18(CODE[3]), STR_17(CODE[3]), 
		 -> STR_16(CODE[3]), STR_15(CODE[3]), STR_14(CODE[3]), STR_13(CODE[3]), 
		 -> STR_12(CODE[2]), STR_11(CODE[2]), STR_10(CODE[2]), STR_9(CODE[2]), 
		 -> STR_8(CODE[3]), STR_7(CODE[3]), STR_6(CODE[3]), STR_5(CODE[3]), 
		 -> STR_4(CODE[3]), STR_3(CODE[4]), STR_2(CODE[4]), STR_1(CODE[4]), 


Critical Paths under _main in COMMON

    _main->_transformADC
    _main->_transformcounter
    _main->_transformtemp
    _transformtemp->_LCD_Wstring
    _transformtemp->_LCD_cursor
    _transformcounter->_LCD_Wstring
    _transformcounter->_LCD_cursor
    _transformADC->_LCD_Wstring
    _transformADC->_LCD_cursor
    _LCD_cursor->_LCD_cmd
    _LCD_Wstring->_LCD_Wchar
    _UART_Init->___aldiv
    _LCD_ini->_LCD_cmd
    _LCD_clear->_LCD_cmd

Critical Paths under _ISR in COMMON

    None.

Critical Paths under _main in BANK0

    _transformtemp->_LCD_Wstring
    _transformcounter->_LCD_Wstring
    _transformADC->_LCD_Wstring
    _setup->_UART_Init
    _UART_Init->___aldiv

Critical Paths under _ISR in BANK0

    None.

Critical Paths under _main in BANK1

    None.

Critical Paths under _ISR in BANK1

    None.

Critical Paths under _main in BANK3

    None.

Critical Paths under _ISR in BANK3

    None.

Critical Paths under _main in BANK2

    None.

Critical Paths under _ISR in BANK2

    None.

Call Graph Tables:

 ---------------------------------------------------------------------------------
 (Depth) Function   	        Calls       Base Space   Used Autos Params    Refs
 ---------------------------------------------------------------------------------
 (0) _main                                                 2     2      0  117049
                                             25 BANK0      2     2      0
                        _LCD_Wstring
                          _LCD_clear
                         _LCD_cursor
                         _UART_Write
                              _setup
                            _spiRead
                           _spiWrite
                       _transformADC
                   _transformcounter
                      _transformtemp
 ---------------------------------------------------------------------------------
 (1) _transformtemp                                        2     2      0   27634
                                              9 COMMON     1     1      0
                                              2 BANK0      1     1      0
                        _LCD_Wstring
                         _LCD_cursor
 ---------------------------------------------------------------------------------
 (1) _transformcounter                                     2     2      0   30833
                                              9 COMMON     1     1      0
                                              2 BANK0      1     1      0
                        _LCD_Wstring
                         _LCD_cursor
 ---------------------------------------------------------------------------------
 (1) _transformADC                                         3     3      0   29475
                                              9 COMMON     1     1      0
                                              2 BANK0      2     2      0
                        _LCD_Wstring
                         _LCD_cursor
 ---------------------------------------------------------------------------------
 (2) _LCD_cursor                                           4     3      1   12620
                                              5 COMMON     4     3      1
                            _LCD_cmd
 ---------------------------------------------------------------------------------
 (2) _LCD_Wstring                                          7     5      2   14921
                                              4 COMMON     5     3      2
                                              0 BANK0      2     2      0
                          _LCD_Wchar
 ---------------------------------------------------------------------------------
 (3) _LCD_Wchar                                            2     2      0      31
                                              2 COMMON     2     2      0
 ---------------------------------------------------------------------------------
 (1) _spiWrite                                             1     1      0      22
                                              2 COMMON     1     1      0
 ---------------------------------------------------------------------------------
 (1) _spiRead                                              0     0      0       0
                     _spiReceiveWait
 ---------------------------------------------------------------------------------
 (2) _spiReceiveWait                                       0     0      0       0
 ---------------------------------------------------------------------------------
 (1) _setup                                                0     0      0    1500
                            _LCD_ini
                          _UART_Init
                            _spiInit
 ---------------------------------------------------------------------------------
 (2) _spiInit                                              4     1      3     360
                                              2 COMMON     4     1      3
 ---------------------------------------------------------------------------------
 (2) _UART_Init                                           18    14      4    1118
                                              7 BANK0     18    14      4
                            ___aldiv
 ---------------------------------------------------------------------------------
 (3) ___aldiv                                             15     7      8     805
                                              2 COMMON     8     0      8
                                              0 BANK0      7     7      0
 ---------------------------------------------------------------------------------
 (2) _LCD_ini                                              2     2      0      22
                                              5 COMMON     2     2      0
                            _LCD_cmd
 ---------------------------------------------------------------------------------
 (1) _UART_Write                                           1     1      0      22
                                              2 COMMON     1     1      0
 ---------------------------------------------------------------------------------
 (1) _LCD_clear                                            0     0      0      22
                            _LCD_cmd
 ---------------------------------------------------------------------------------
 (3) _LCD_cmd                                              3     3      0      22
                                              2 COMMON     3     3      0
 ---------------------------------------------------------------------------------
 Estimated maximum stack depth 3
 ---------------------------------------------------------------------------------
 (Depth) Function   	        Calls       Base Space   Used Autos Params    Refs
 ---------------------------------------------------------------------------------
 (4) _ISR                                                  2     2      0       0
                                              0 COMMON     2     2      0
 ---------------------------------------------------------------------------------
 Estimated maximum stack depth 4
 ---------------------------------------------------------------------------------

 Call Graph Graphs:

 _main (ROOT)
   _LCD_Wstring
     _LCD_Wchar
   _LCD_clear
     _LCD_cmd
   _LCD_cursor
     _LCD_cmd
   _UART_Write
   _setup
     _LCD_ini
       _LCD_cmd
     _UART_Init
       ___aldiv
     _spiInit
   _spiRead
     _spiReceiveWait
   _spiWrite
   _transformADC
     _LCD_Wstring
       _LCD_Wchar
     _LCD_cursor
       _LCD_cmd
   _transformcounter
     _LCD_Wstring
       _LCD_Wchar
     _LCD_cursor
       _LCD_cmd
   _transformtemp
     _LCD_Wstring
       _LCD_Wchar
     _LCD_cursor
       _LCD_cmd

 _ISR (ROOT)

 Address spaces:
Name               Size   Autos  Total    Cost      Usage
BITCOMMON            E      0       0       0        0.0%
EEDATA             100      0       0       0        0.0%
NULL                 0      0       0       0        0.0%
CODE                 0      0       0       0        0.0%
COMMON               E      A       C       1       85.7%
BITSFR0              0      0       0       1        0.0%
SFR0                 0      0       0       1        0.0%
BITSFR1              0      0       0       2        0.0%
SFR1                 0      0       0       2        0.0%
STACK                0      0       0       2        0.0%
ABS                  0      0      2C       3        0.0%
BITBANK0            50      0       0       4        0.0%
BITSFR3              0      0       0       4        0.0%
SFR3                 0      0       0       4        0.0%
BANK0               50     1B      20       5       40.0%
BITSFR2              0      0       0       5        0.0%
SFR2                 0      0       0       5        0.0%
BITBANK1            50      0       0       6        0.0%
BANK1               50      0       0       7        0.0%
BITBANK3            60      0       0       8        0.0%
BANK3               60      0       0       9        0.0%
BITBANK2            60      0       0      10        0.0%
BANK2               60      0       0      11        0.0%
DATA                 0      0      2C      12        0.0%


Microchip Technology PIC Macro Assembler V2.31 build 20201012212115 
Symbol Table                                                                                   Wed Feb 24 12:29:40 2021

                        pc 0002                _SSPSTATbits 0094                         l20 0800  
                       l23 0806                         l16 128A                         l17 128F  
                       l34 1259                         l26 1242                         fsr 0004  
                      l113 14EA                        l134 125B                        l137 1265  
                      l501 07A0                        l182 0A88                        _ADC 003E  
                      l520 1250                        l176 0842                        l281 0FFF  
                      l514 1279                        l517 1370                        l526 12B3  
                      l535 12F9                        l287 0FFF                        l295 07F0  
                      l529 07FF                        l495 07A0                        l686 1385  
                      l696 140D                        _ISR 1243                ?_LCD_cursor 0075  
                      fsr0 0004                        indf 0000               ?_LCD_Wstring 0074  
             _transformADC 099B                       ?_ISR 0070            __end_of_LCD_cmd 127A  
          __end_of_LCD_ini 1371                       l4001 0C85                       l4011 0CB7  
                     l4003 0C91                       l4101 0E5B                       l4021 0CE5  
                     l4013 0CBD                       l4005 0C9B                       l2431 126A  
                     l4111 0E89                       l4103 0E61                       l4031 0D11  
                     l4023 0CEF                       l4015 0CC9                       l4007 0CA1  
                     l2433 126C                       l4121 0EB5                       l4113 0E93  
                     l4105 0E6D                       l4041 0D43                       l4033 0D1D  
                     l4025 0CF5                       l4017 0CD3                       l4009 0CAD  
                     l4201 1514                       l2435 1276                       l2531 12A8  
                     l2523 1291                       l4131 0EE7                       l4123 0EC1  
                     l4115 0E99                       l4107 0E77                       l4051 0D71  
                     l4043 0D49                       l4035 0D27                       l4027 0D01  
                     l4019 0CD9                       l4211 153F                       l4203 151E  
                     l2429 1267                       l2621 124A                       l2533 12AD  
                     l2525 1296                       l4141 0F15                       l4133 0EED  
                     l4125 0ECB                       l4117 0EA5                       l4109 0E7D  
                     l4061 0D9D                       l4053 0D7B                       l4045 0D55  
                     l4037 0D2D                       l4029 0D0B                       l4301 17D0  
                     l4221 1569                       l4213 1548                       l4205 1527  
                     l2551 130D                       l2543 12FA                       l2527 129B  
                     l4151 0F41                       l4143 0F1F                       l4135 0EF9  
                     l4127 0ED1                       l4119 0EAF                       l4071 0DCF  
                     l4063 0DA9                       l4055 0D81                       l4047 0D5F  
                     l4039 0D39                       l4311 15F0                       l4303 17DA  
                     l4231 1596                       l4223 1570                       l4207 152F  
                     l4215 154F                       l2561 132E                       l2553 1310  
                     l2545 1300                       l2529 12A2                       l4161 0F73  
                     l4153 0F4D                       l4145 0F25                       l4137 0F03  
                     l4129 0EDD                       l4081 0DFD                       l4073 0DD5  
                     l4065 0DB3                       l4057 0D8D                       l4049 0D65  
                     l4401 009E                       l4321 161C                       l4313 15F6  
                     l4305 17E4                       l4241 15C0                       l4233 15A0  
                     l4225 157A                       l4217 1556                       l4209 1535  
                     l2571 1352                       l2563 1334                       l2555 1316  
                     l2547 1303                       l2491 1286                       l4171 0FA1  
                     l4163 0F79                       l4155 0F57                       l4147 0F31  
                     l4139 0F09                       l4091 0E29                       l4083 0E07  
                     l4075 0DE1                       l4067 0DB9                       l4059 0D97  
                     l4411 00C8                       l4403 00A4                       l4331 1646  
                     l4323 1626                       l4315 1600                       l4307 17EC  
                     l4251 16F8                       l4243 15CA                       l4235 15A6  
                     l4227 1586                       l4219 1560                       l2573 135B  
                     l2565 133D                       l2557 131F                       l2549 1304  
                     l2493 1289                       l2485 127B                       l2581 1251  
                     l4181 0FCD                       l4173 0FAB                       l4165 0F85  
                     l4157 0F5D                       l4149 0F3B                       l4093 0E35  
                     l4085 0E0D                       l4077 0DEB                       l4069 0DC5  
                     l4501 024E                       l4421 00F2                       l4413 00D2  
                     l4405 00AE                       l4341 1674                       l4333 1650  
                     l4325 162C                       l4317 160C                       l4309 17F6  
                     l4261 1724                       l4253 16FE                       l4245 15D4  
                     l4237 15B0                       l4229 158C                       l2575 1361  
                     l2567 1343                       l2559 1325                       l2487 1282  
                     l2495 0800                       l2583 1256                       l3711 07F7  
                     l4183 0FD9                       l4175 0FB1                       l4167 0F8F  
                     l4159 0F69                       l4095 0E3F                       l4087 0E19  
                     l4079 0DF1                       l4511 0278                       l4503 0258  
                     l4431 0120                       l4423 00FC                       l4415 00D8  
                     l4407 00B8                       l4351 169E                       l4343 167A  
                     l4335 165A                       l4327 1636                       l4319 1612  
                     l4271 174E                       l4263 172E                       l4255 1708  
                     l4247 15DC                       l4239 15BA                       l4191 14EE  
                     l2577 136A                       l2569 134C                       l3721 1389  
                     l2489 1284                       l3801 081A                       l3713 07FC  
                     l4185 0FE3                       l4177 0FBD                       l4169 0F95  
                     l4097 0E45                       l4089 0E23                       l4601 03FE  
                     l4521 02A6                       l4513 0282                       l4505 025E  
                     l4441 014A                       l4433 0126                       l4425 0106  
                     l4417 00E2                       l4409 00BE                       l4361 16C8  
                     l4353 16A8                       l4345 1684                       l4337 1660  
                     l4329 1640                       l4281 177C                       l4273 1758  
                     l4265 1734                       l4257 1714                       l4249 15E6  
                     l4193 14F4                       l2587 125B                       l3731 13AB  
                     l3723 1394                       l3715 1371                       l3811 0832  
                     l3803 0829                       l2579 123E                       l3707 07F2  
                     l4187 0FE9                       l4179 0FC7                       l4099 0E51  
                     l4611 042C                       l4603 0408                       l4531 02D0  
                     l4523 02AC                       l4515 028C                       l4507 0268  
                     l4451 0174                       l4443 0154                       l4435 0130  
                     l4427 010C                       l4419 00EC                       l4371 001C  
                     l4363 16D2                       l4355 16AE                       l4347 168E  
                     l4339 166A                       l4291 17A6                       l4283 1782  
                     l4275 1762                       l4267 173E                       l4259 171A  
                     l4195 14FE                       l2589 1261                       l3741 13E5  
                     l3733 13B8                       l3725 1398                       l3717 1374  
                     l3813 0833                       l3805 082C                       l3709 07F5  
                     l4189 0FF5                       l3901 0AB5                       l4701 05B2  
                     l4621 0456                       l4613 0432                       l4605 0412  
                     l4541 02FA                       l4533 02DA                       l4525 02B6  
                     l4517 0292                       l4509 0272                       l4461 01A2  
                     l4453 017E                       l4445 015A                       l4437 013A  
                     l4429 0116                       l4381 0046                       l4373 0022  
                     l4365 16DC                       l4357 16B8                       l4349 1694  
                     l4293 17B0                       l4285 178C                       l4277 1768  
                     l4269 1748                       l4197 1508                       l3821 07A9  
                     l3751 1405                       l3743 13E6                       l3735 13BC  
                     l3727 13A0                       l3719 1378                       l3815 0834  
                     l3807 082F                       l3911 0AE1                       l3903 0ABF  
                     l4711 05DC                       l4703 05B8                       l4631 0480  
                     l4623 0460                       l4615 043C                       l4607 0418  
                     l4551 0328                       l4543 0304                       l4535 02E0  
                     l4527 02C0                       l4519 029C                       l4471 01CC  
                     l4463 01A8                       l4455 0188                       l4447 0164  
                     l4439 0140                       l4391 0070                       l4383 0050  
                     l4375 002C                       l4367 16E4                       l4359 16C2  
                     l4295 17B6                       l4287 1796                       l4279 1772  
                     l4199 150E                       l3831 07D7                       l3823 07B3  
                     l3745 13EF                       l3737 13C5                       l3729 13A8  
                     l3761 14CB                       l3817 083D                       l3809 0831  
                     l3921 0B13                       l3913 0AED                       l3905 0AC5  
                     l3841 09AE                       l4801 0762                       l4721 0606  
                     l4713 05E6                       l4705 05C2                       l4641 04AE  
                     l4633 048A                       l4625 0466                       l4617 0446  
                     l4609 0422                       l4561 0352                       l4553 032E  
                     l4545 030E                       l4537 02EA                       l4529 02C6  
                     l4481 01F6                       l4473 01D6                       l4465 01B2  
                     l4457 018E                       l4449 016E                       l4393 007A  
                     l4385 0056                       l4377 0036                       l4369 16EE  
                     l4297 17C0                       l4289 179C                       l3833 07DD  
                     l3825 07BD                       l3739 13D7                       l3747 13F5  
                     l3771 14E0                       l3763 14CE                       l3755 140E  
                     l3931 0B41                       l3923 0B19                       l3915 0AF7  
                     l3907 0AD1                       l3851 09DA                       l3843 09B7  
                     l4811 078C                       l4803 076C                       l4731 0634  
                     l4723 0610                       l4715 05EC                       l4707 05CC  
                     l4651 04D8                       l4643 04B4                       l4635 0494  
                     l4627 0470                       l4619 044C                       l4571 037C  
                     l4563 035C                       l4555 0338                       l4547 0314  
                     l4539 02F4                       l4491 0224                       l4483 0200  
                     l4475 01DC                       l4467 01BC                       l4459 0198  
                     l4395 0084                       l4387 0060                       l4379 003C  
                     l4299 17CA                       l3835 07E7                       l3827 07C3  
                     l3819 07A4                       l3749 13FA                       l3773 14E3  
                     l3765 14D8                       l3757 1469                       l3781 12B4  
                     l3941 0B6D                       l3933 0B4B                       l3925 0B25  
                     l3917 0AFD                       l3909 0ADB                       l3861 0A01  
                     l3853 09E3                       l3845 09C2                       l3837 099C  
                     l4813 0796                       l4805 0772                       l4741 065E  
                     l4733 063A                       l4725 061A                       l4717 05F6  
                     l4709 05D2                       l4661 0502                       l4653 04E2  
                     l4645 04BE                       l4637 049A                       l4629 047A  
                     l4581 03AA                       l4573 0386                       l4565 0362  
                     l4557 0342                       l4549 031E                       l4493 022A  
                     l4485 020A                       l4477 01E6                       l4469 01C2  
                     l4397 008A                       l4389 006A                       l3829 07CD  
                     l4821 0868                       l3775 14E4                       l3767 14DC  
                     l3759 1472                       l3791 080B                       l3783 12B9  
                     l3951 0B9F                       l3943 0B79                       l3935 0B51  
                     l3927 0B2F                       l3919 0B09                       l3871 0A2E  
                     l3863 0A0D                       l3855 09ED                       l3847 09C8  
                     l3839 09A2                       l4807 077C                       l4751 0688  
                     l4743 0668                       l4735 0644                       l4727 0620  
                     l4719 0600                       l4671 0530                       l4663 050C  
                     l4655 04E8                       l4647 04C8                       l4639 04A4  
                     l4591 03D4                       l4583 03B0                       l4575 0390  
                     l4567 036C                       l4559 0348                       l4495 0234  
                     l4487 0210                       l4479 01F0                       l4399 0094  
                     l4831 0899                       l4823 0870                       l4815 0843  
                     l3777 14E7                       l3769 14DD                       l3793 080E  
                     l3785 12D5                       l3961 0BCD                       l3953 0BA5  
                     l3945 0B83                       l3937 0B5D                       l3929 0B35  
                     l3873 0A34                       l3881 0A5B                       l3865 0A16  
                     l3849 09CE                       l3857 09F5                       l4809 0786  
                     l4761 06B6                       l4753 0692                       l4745 066E  
                     l4737 064E                       l4729 062A                       l4681 055A  
                     l4673 0536                       l4665 0516                       l4657 04F2  
                     l4649 04CE                       l4593 03DE                       l4585 03BA  
                     l4577 0396                       l4569 0376                       l4497 023E  
                     l4489 021A                       l4841 08CC                       l4833 089C  
                     l4825 0883                       l4817 0855                       l3795 0815  
                     l3787 12DD                       l3971 0BF9                       l3963 0BD7  
                     l3955 0BB1                       l3947 0B89                       l3939 0B67  
                     l3883 0A61                       l3875 0A40                       l3867 0A20  
                     l3859 09FB                       l3891 0A88                       l4771 06E0  
                     l4763 06BC                       l4755 069C                       l4747 0678  
                     l4739 0654                       l4691 0584                       l4683 0564  
                     l4675 0540                       l4667 051C                       l4659 04FC  
                     l4595 03E4                       l4587 03C4                       l4579 03A0  
                     l4499 0244                       l4843 08CF                       l4835 08A6  
                     l4851 08E9                       l4827 088B                       l4819 085E  
                     l3797 0816                       l3789 0807                       l3981 0C2B  
                     l3973 0C05                       l3965 0BDD                       l3957 0BBB  
                     l3949 0B95                       l3893 0A8D                       l3885 0A6D  
                     l3877 0A49                       l3869 0A28                       l4781 070A  
                     l4773 06EA                       l4765 06C6                       l4757 06A2  
                     l4749 0682                       l4693 058E                       l4685 056A  
                     l4677 054A                       l4669 0526                       l4597 03EE  
                     l4589 03CA                       l4861 0917                       l4853 08EF  
                     l4845 08D3                       l4837 08AC                       l4829 0894  
                     l3799 0817                       l3991 0C59                       l3983 0C31  
                     l3975 0C0F                       l3967 0BE9                       l3959 0BC1  
                     l3895 0A99                       l3887 0A76                       l3879 0A53  
                     l4791 0738                       l4783 0714                       l4775 06F0  
                     l4767 06D0                       l4759 06AC                       l4695 0598  
                     l4687 0574                       l4679 0550                       l4599 03F8  
                     l4871 0937                       l4863 0922                       l4855 08F2  
                     l4847 08D9                       l4839 08C1                       l3993 0C63  
                     l3985 0C3D                       l3977 0C15                       l3969 0BF3  
                     l3897 0AA3                       l3889 0A80                       l4793 073E  
                     l4785 071E                       l4777 06FA                       l4769 06D6  
                     l4697 059E                       l4689 057E                       l4881 095A  
                     l4865 0925                       l4857 08FC                       l4873 0941  
                     l4849 08DF                       l3995 0C69                       l3987 0C47  
                     l3979 0C21                       l3899 0AA9                       l4795 0748  
                     l4787 0724                       l4779 0704                       l4699 05A8  
                     l4891 0985                       l4883 096F                       l4875 0947  
                     l4867 0929                       l4859 0902                       l3997 0C75  
                     l3989 0C4D                       l4797 0752                       l4789 072E  
                     l4893 098D                       l4885 097A                       l4877 094A  
                     l4869 092F                       l3999 0C7F                       l4799 0758  
                     l4887 097D                       l4879 0954                       l4889 097F  
                     STR_1 1004                       STR_2 1008                       STR_3 100C  
                     STR_4 1018                       STR_5 101B                       STR_6 101E  
                     STR_7 1021                       STR_8 1024                       STR_9 1064  
                     _BRGH 04C2                       _CREN 00C4                       u2230 1261  
                     u2231 1260                       u2080 1282                       u2081 1281  
                     u4010 13F5                       u2090 0806                       u4011 13F4  
                     u2091 0805                       u4020 13FA                       u4100 14D8  
                     u2180 1296                       u4021 13F9                       u4005 13E7  
                     u4101 14D7                       u2181 1295                       u4030 141E  
                     u4110 12C3                       u2190 12A8                       u2191 12A7  
                     u4040 1437                       u4120 12E7                       u4200 09FB  
                     u5000 167A                       u4201 09FA                       u5001 1679  
                     u4130 12F9                       u4210 0A01                       u5010 1694  
                     u4051 1449                       u4035 1419                       u4131 12F8  
                     u4211 0A00                       u5011 1693                       u4060 1472  
                     u4052 144A                       u4300 0B19                       u4220 0A2E  
                     u5100 00A4                       u5020 16AE                       u4140 07A9  
                     u4061 1471                       u4053 144F                       u4045 1432  
                     u4301 0B18                       u4221 0A2D                       u5101 00A3  
                     u5021 16AD                       u4141 07A8                       u4070 1480  
                     u4054 1450                       u4310 0B35                       u4230 0A34  
                     u5110 00BE                       u5030 16C8                       u4150 07C3  
                     u4055 1455                       u4311 0B34                       u4231 0A33  
                     u5111 00BD                       u5031 16C7                       u4151 07C2  
                     u4080 1499                       u4056 1456                       u4400 0C31  
                     u4320 0B51                       u4240 0A61                       u5200 01A8  
                     u5120 00D8                       u5040 16E4                       u4160 07DD  
                     u4401 0C30                       u4321 0B50                       u4241 0A60  
                     u5201 01A7                       u5121 00D7                       u5041 16E1  
                     u4161 07DC                       u4410 0C4D                       u4330 0B6D  
                     u4250 0A8D                       u4170 09A2                       u5210 01C2  
                     u5130 00F2                       u5050 0022                       u4091 14AB  
                     u4075 147B                       u4411 0C4C                       u4331 0B6C  
                     u4251 0A8C                       u4171 09A1                       u5211 01C1  
                     u5131 00F1                       u5051 0021                       u4092 14AC  
                     u4500 0D49                       u4420 0C69                       u4340 0B89  
                     u4260 0AA9                       u4180 09C8                       u5300 02AC  
                     u5220 01DC                       u5140 010C                       u5060 003C  
                     u4093 14B1                       u4085 1494                       u4501 0D48  
                     u4421 0C68                       u4341 0B88                       u4261 0AA8  
                     u4181 09C7                       u5301 02AB                       u5221 01DB  
                     u5141 010B                       u5061 003B                       u4094 14B2  
                     u4510 0D65                       u4430 0C85                       u4350 0BA5  
                     u4270 0AC5                       u4190 09CE                       u5310 02C6  
                     u5230 01F6                       u5150 0126                       u5070 0056  
                     u4095 14B7                       u4511 0D64                       u4431 0C84  
                     u4351 0BA4                       u4271 0AC4                       u6007 0A7C  
                     u4191 09CD                       u5311 02C5                       u5231 01F5  
                     u5151 0125                       u5071 0055                       u4096 14B8  
                     u4600 0E61                       u4520 0D81                       u4440 0CA1  
                     u4360 0BC1                       u4280 0AE1                       u5400 03B0  
                     u5320 02E0                       u5240 0210                       u5160 0140  
                     u5080 0070                       u6017 07FA                       u4601 0E60  
                     u4521 0D80                       u4441 0CA0                       u4361 0BC0  
                     u4281 0AE0                       u5401 03AF                       u5321 02DF  
                     u5241 020F                       u5161 013F                       u5081 006F  
                     u4610 0E7D                       u4530 0D9D                       u4450 0CBD  
                     u4370 0BDD                       u4290 0AFD                       u5410 03CA  
                     u5330 02FA                       u5250 022A                       u5170 015A  
                     u5090 008A                       u6027 1308                       u4611 0E7C  
                     u4531 0D9C                       u4451 0CBC                       u4371 0BDC  
                     u4291 0AFC                       u5411 03C9                       u5331 02F9  
                     u5251 0229                       u5171 0159                       u5091 0089  
                     u4700 0F79                       u4620 0E99                       u4540 0DB9  
                     u4460 0CD9                       u4380 0BF9                       u5500 04B4  
                     u5420 03E4                       u5340 0314                       u5260 0244  
                     u5180 0174                       u6037 131A                       u4701 0F78  
                     u4621 0E98                       u4541 0DB8                       u4461 0CD8  
                     u4381 0BF8                       u5501 04B3                       u5421 03E3  
                     u5341 0313                       u5261 0243                       u5181 0173  
                     u4710 0F95                       u4630 0EB5                       u4550 0DD5  
                     u4470 0CF5                       u4390 0C15                       u5510 04CE  
                     u5430 03FE                       u5350 032E                       u5270 025E  
                     u5190 018E                       u6047 1329                       u4711 0F94  
                     u4631 0EB4                       u4551 0DD4                       u4471 0CF4  
                     u4391 0C14                       u5511 04CD                       u5431 03FD  
                     u5351 032D                       u5271 025D                       u5191 018D  
                     u4720 0FB1                       u4640 0ED1                       u4560 0DF1  
                     u4480 0D11                       u5600 05B8                       u5520 04E8  
                     u5440 0418                       u5360 0348                       u5280 0278  
                     u4800 1570                       u6057 1338                       u4721 0FB0  
                     u4641 0ED0                       u4561 0DF0                       u4481 0D10  
                     u5601 05B7                       u5521 04E7                       u5441 0417  
                     u5361 0347                       u5281 0277                       u4801 156F  
                     u3930 1378                       u4730 0FCD                       u4650 0EED  
                     u4570 0E0D                       u4490 0D2D                       u5610 05D2  
                     u5530 0502                       u5450 0432                       u5370 0362  
                     u5290 0292                       u4810 158C                       u6067 1347  
                     u3931 1377                       u4731 0FCC                       u4651 0EEC  
                     u4571 0E0C                       u4491 0D2C                       u5611 05D1  
                     u5531 0501                       u5451 0431                       u5371 0361  
                     u5291 0291                       u4811 158B                       u3940 1389  
                     u4740 0FE9                       u4660 0F09                       u4580 0E29  
                     u5700 06BC                       u5620 05EC                       u5540 051C  
                     u5460 044C                       u5380 037C                       u4900 1782  
                     u4820 15A6                       _RCIF 0065                       u6077 1356  
                     u3941 1388                       u4741 0FE8                       u4661 0F08  
                     u4581 0E28                       u5701 06BB                       u5621 05EB  
                     u5541 051B                       u5461 044B                       u5381 037B  
                     u4901 1781                       u4821 15A5                       u3950 13A8  
                     u4670 0F25                       u4590 0E45                       u5710 06D6  
                     u5630 0606                       u5550 0536                       u5470 0466  
                     u5390 0396                       u4910 179C                       u4830 15C0  
                     u4750 14F4                       u6087 1365                       u3951 13A7  
                     u4671 0F24                       u4591 0E44                       u5711 06D5  
                     u5631 0605                       u5551 0535                       u5471 0465  
                     u5391 0395                       u4911 179B                       u4831 15BF  
                     u4751 14F3                       u4680 0F41                       u5720 06F0  
                     u5640 0620                       u5560 0550                       u5480 0480  
                     u4920 17B6                       u4840 15DC                       u4760 150E  
                     u5800 08EF                       u6097 1271                       u4681 0F40  
                     u5721 06EF                       u5641 061F                       u5561 054F  
                     u5481 047F                       u4921 17B5                       u4841 15D9  
                     u4761 150D                       u5801 08EE                       u3970 13BC  
                     u4690 0F5D                       u5730 070A                       u5650 063A  
                     u5570 056A                       u5490 049A                       u4930 17D0  
                     u4850 16FE                       u4770 1514                       u5810 0947  
                     u3971 13BB                       u4691 0F5C                       u5731 0709  
                     u5651 0639                       u5571 0569                       u5491 0499  
                     u4931 17CF                       u4851 16FD                       u4771 1513  
                     u5811 0946                       u5740 0724                       u5660 0654  
                     u5580 0584                       u4940 17EC                       u4860 171A  
                     u4780 1535                       u3965 13AD                       u5741 0723  
                     u5661 0653                       u5581 0583                       u4941 17E9  
                     u4861 1719                       u4781 1534                       u3990 13D7  
                     u5750 073E                       u5670 066E                       u5590 059E  
                     u4950 15F6                       u4870 1734                       u4790 1556  
                     u3991 13D6                       u5751 073D                       u5671 066D  
                     u5591 059D                       u4951 15F5                       u4871 1733  
                     u4791 1555                       u5760 0758                       u5680 0688  
                     u4960 1612                       u4880 174E                       u3985 13BE  
                     u5761 0757                       u5681 0687                       u4961 1611  
                     u4881 174D                       u5770 0772                       u5690 06A2  
                     u4970 162C                       u4890 1768                       u3995 13D3  
                     u5771 0771                       u5691 06A1                       u4971 162B  
                     u4891 1767                       u5907 091D                       u5827 0864  
                     u5780 078C                       u4980 1646                       u5781 078B  
                     u4981 1645                       u5917 093D                       u5837 087F  
                     u4990 1660                       u5790 0899                       u4991 165F  
                     u5927 0950                       u5847 08A2                       u5791 0898  
                     u5937 0960                       u5857 08B2                       u5947 0975  
                     u5867 08C7                       u5957 0993                       u5877 08E5  
                     u5967 09BD                       u5887 08F8                       u5977 09E9  
                     u5897 0908                       u5987 0A1C                       u5997 0A4F  
                     _SPEN 00C7                       _TRMT 04C1                       _TXEN 04C5  
                     _SYNC 04C4                       _main 0843                       btemp 007E  
       __size_of_LCD_Wchar 000F                       start 000C         __size_of_LCD_clear 0007  
                    ??_ISR 0070            __end_of___aldiv 140E                      ?_main 0070  
                    STR_10 10A0                      STR_11 10DC                      STR_12 1118  
                    STR_20 10A5                      STR_21 10E1                      STR_13 102A  
                    STR_22 111D                      STR_30 10AB                      STR_14 1066  
                    STR_31 10E7                      STR_15 10A2                      STR_23 1030  
                    STR_32 1123                      STR_16 10DE                      STR_40 10B1  
                    STR_24 106C                      STR_17 111A                      STR_41 10ED  
                    STR_25 10A8                      STR_33 1036                      STR_42 1129  
                    STR_26 10E4                      STR_50 10B7                      STR_34 1072  
                    STR_18 102D                      STR_27 1120                      STR_51 10F3  
                    STR_35 10AE                      STR_19 1069                      STR_43 103C  
                    STR_52 112F                      STR_36 10EA                      STR_44 1078  
                    STR_28 1033                      STR_60 1000                      STR_37 1126  
                    STR_45 10B4                      STR_29 106F                      STR_53 1042  
                    STR_61 1010                      STR_62 1028                      STR_46 10F0  
                    STR_70 10BD                      STR_54 107E                      STR_38 1039  
                    STR_63 1046                      STR_47 112C                      STR_71 10DB  
                    STR_55 10BA                      STR_39 1075                      STR_64 1064  
                    STR_72 10F9                      STR_56 10F6                      STR_80 10C0  
                    STR_48 103F                      STR_81 10DE                      STR_57 1132  
                    STR_73 1117                      STR_49 107B                      STR_65 1027  
                    STR_58 1150                      STR_74 1135                      STR_82 10FC  
                    STR_90 10C3                      STR_66 1045                      STR_75 102A  
                    STR_91 10E1                      STR_83 111A                      STR_67 1063  
                    STR_59 1014                      STR_84 1138                      STR_92 10FF  
                    STR_68 1081                      STR_76 1048                      STR_85 102D  
                    STR_77 1066                      STR_93 111D                      STR_69 109F  
                    STR_94 113B                      STR_78 1084                      STR_86 104B  
                    STR_95 1030                      STR_87 1069                      STR_79 10A2  
                    STR_88 1087                      STR_96 104E                      STR_97 106C  
                    STR_89 10A5                      STR_98 108A                      STR_99 10A8  
                    _ANSEL 0188              _transformtemp 07A1                      i1l162 1243  
                    _RCREG 001A                      _SPBRG 0099                      _PORTB 0006  
                    _PORTD 0008                      _PORTE 0009                      _TRISB 0086  
                    _TRISD 0088                      _TRISE 0089                      _TXREG 0019  
                    _nRBPU 040F                ?_UART_Write 0070         __size_of_UART_Init 00DD  
                    _data1 007A                      _data2 003C                      _data3 003B  
                    _setup 0807                      pclath 000A            __end_of_spiInit 1290  
          __end_of_spiRead 125A                      status 0003                      wtemp0 007E  
      __size_of_LCD_cursor 0024            __initialization 000F                LCD_cursor@a 0078  
              LCD_cursor@x 0077                LCD_cursor@y 0075               __end_of_main 099B  
                   ??_main 0039             ?_transformtemp 0070          __end_of_LCD_Wchar 0800  
                ??_LCD_cmd 0072                  ??_LCD_ini 0075          transformcounter@p 0022  
        __end_of_LCD_clear 1251                     STR_100 10C6                     STR_101 10E4  
                   STR_102 1102                     STR_110 10C9                     STR_111 10E7  
                   STR_103 1120                     STR_104 113E                     STR_112 1105  
                   STR_120 10CC                     STR_105 1033                     STR_121 10EA  
                   STR_113 1123                     STR_114 1141                     STR_122 1108  
                   STR_130 10CF                     STR_106 1051                     STR_115 1036  
                   STR_107 106F                     STR_131 10ED                     STR_123 1126  
                   STR_124 1144                     STR_132 110B                     STR_140 10D2  
                   STR_108 108D                     STR_116 1054                     STR_125 1039  
                   STR_117 1072                     STR_109 10AB                     STR_141 10F0  
                   STR_133 1129                     STR_134 1147                     STR_142 110E  
                   STR_150 10D5                     STR_118 1090                     STR_126 1057  
                   STR_135 103C                     STR_127 1075                     STR_119 10AE  
                   STR_151 10F3                     STR_143 112C                     STR_144 114A  
                   STR_152 1111                     STR_160 10D8                     STR_128 1093  
                   STR_136 105A                     STR_145 103F                     STR_137 1078  
                   STR_129 10B1                     STR_161 10F6                     STR_153 112F  
                   STR_154 114D                     STR_162 1114                     STR_138 1096  
                   STR_146 105D                     STR_155 1042                     STR_147 107B  
                   STR_139 10B4                     STR_163 1132                     STR_164 1150  
                   STR_148 1099                     STR_156 1060                     STR_157 107E  
                   STR_149 10B7                     STR_158 109C                     STR_159 10BA  
                   ?_setup 0070                     _ANSELH 0189                     _TRISC1 0439  
                   _TRISC2 043A                     _TRISC3 043B                     _TRISC5 043D  
                   _TRISC6 043E                     _TRISC7 043F                     _SSPCON 0014  
                   _SSPBUF 0013          __end_of_UART_Init 14EB        __size_of_UART_Write 000C  
                ??___aldiv 0020                     _check0 007B                     _check1 003F  
        ?_transformcounter 0070               LCD_Wstring@i 0020               LCD_Wstring@v 0074  
       ??_transformcounter 0079                     saved_w 007E           __end_of_spiWrite 1243  
                ??_spiInit 0075                  ??_spiRead 0072       __size_of_LCD_Wstring 0046  
  __end_of__initialization 0018             __pcstackCOMMON 0070            ??_transformtemp 0079  
            __end_of_setup 0843               ??_LCD_cursor 0076                    ??_setup 007A  
               __pbssBANK0 003B                 __pmaintext 0843         __end_of_LCD_cursor 12B4  
               __pintentry 0004    __size_of_spiReceiveWait 0007                    _LCD_cmd 1266  
                  _LCD_ini 12FA               ??_UART_Write 0072                    _SSPSTAT 0094  
               __stringtab 1153                  ?_spiWrite 0070                    ___aldiv 1371  
       __end_of_UART_Write 1266                  _ADCresult 003D                    __ptext1 07A1  
                  __ptext2 14EB                    __ptext3 099B                    __ptext4 1290  
                  __ptext5 12B4                    __ptext6 07F1                    __ptext7 123D  
                  __ptext8 1251                    __ptext9 0800               __size_of_ISR 0007  
            transformADC@k 0079           ___aldiv@dividend 0076                    _spiInit 127A  
                  _spiRead 1251                  _LCD_Wchar 07F1                  _LCD_clear 124A  
     end_of_initialization 0018           ___aldiv@quotient 0023                 ??_spiWrite 0072  
                  psplit$0 B001E                    psplit$1 1E001F                    psplit$2 1F0020  
             __pstringtext 1000                  _UART_Init 140E                  _PORTCbits 0007  
                _PORTEbits 0009             UART_Write@data 0072                  _TRISCbits 0087  
               ?_LCD_Wchar 0070                spiWrite@dat 0072                 ?_LCD_clear 0070  
__size_of_transformcounter F2B6                 LCD_Wchar@c 0073             _spiReceiveWait 0800  
               ?_UART_Init 0027                 LCD_cmd@cmd 0074          pnum$text2_split_1 001E  
        pnum$text2_split_2 001F          pnum$text2_split_3 0020        start_initialization 000F  
              __end_of_ISR 124A              ??_LCD_Wstring 0076              ?_transformADC 0070  
   __end_of_spiReceiveWait 0807      __end_of_transformtemp 07F1                   ?_LCD_cmd 0070  
                 ?_LCD_ini 0070                __pbssCOMMON 007A                  ___latbits 0002  
            __pcstackBANK0 0020             ??_transformADC 0022                ??_LCD_Wchar 0072  
              ??_LCD_clear 0075        __end_of_LCD_Wstring 12FA            ?_spiReceiveWait 0070  
                 ?___aldiv 0072                ??_UART_Init 002B          __size_of_spiWrite 0006  
                __pstrings 1153                   ?_spiInit 0072                   ?_spiRead 0070  
               UART_Init@x 0037             __size_of_setup 003C           _transformcounter 14EB  
          ___aldiv@divisor 0072       spiInit@sTransmitEdge 0074          interrupt_function 0004  
          ___aldiv@counter 0021         spiInit@sDataSample 0072          UART_Init@baudrate 0027  
              __stringbase 1165           __size_of_LCD_cmd 0014           __size_of_LCD_ini 0077  
              _LCD_Wstring 12B4       __end_of_transformADC 1000           __size_of___aldiv 009D  
       __end_of__stringtab 1165                   __ptext10 0807                   __ptext11 127A  
                 __ptext12 140E                   __ptext13 1371                   __ptext14 12FA  
                 __ptext15 125A                   __ptext16 124A                   __ptext17 1266  
                 __ptext18 1243           __size_of_spiInit 0016           __size_of_spiRead 0009  
            __size_of_main 0158                  pnum$text2 000B                   _spiWrite 123D  
             spiInit@sType 0075          spiInit@sClockIdle 0073                 _LCD_cursor 1290  
           transformtemp@j 0022                   intlevel1 0000           ??_spiReceiveWait 0072  
                stringcode 115D   __end_of_transformcounter 07A1                   stringtab 1153  
             ___aldiv@sign 0022                 _UART_Write 125A      __size_of_transformADC 0665  
   __size_of_transformtemp 0050  
