

Microchip MPLAB XC8 Assembler V2.31 build 20201012212115 
                                                                                               Tue Feb 23 21:14:33 2021

Microchip MPLAB XC8 C Compiler v2.31 (Free license) build 20201012212115 Og1 
     1                           	processor	16F887
     2                           	pagewidth 120
     3                           	opt	flic
     4                           	psect	nvBANK0,global,class=BANK0,space=1,delta=1,noexec
     5                           	psect	strings,global,class=STRING,delta=2,noexec
     6                           	psect	stringtext,global,reloc=256,class=STRCODE,delta=2,noexec
     7                           	psect	cinit,global,class=CODE,merge=1,delta=2
     8                           	psect	bssCOMMON,global,class=COMMON,space=1,delta=1,noexec
     9                           	psect	bssBANK0,global,class=BANK0,space=1,delta=1,noexec
    10                           	psect	cstackCOMMON,global,class=COMMON,space=1,delta=1,noexec
    11                           	psect	cstackBANK0,global,class=BANK0,space=1,delta=1,noexec
    12                           	psect	maintext,global,class=CODE,split=1,delta=2
    13                           	psect	text1,local,class=CODE,merge=1,delta=2
    14                           	psect	text2,local,class=CODE,merge=1,delta=2
    15                           	psect	text3,local,class=CODE,merge=1,delta=2
    16                           	psect	text4,local,class=CODE,merge=1,delta=2
    17                           	psect	text5,local,class=CODE,merge=1,delta=2
    18                           	psect	text6,local,class=CODE,merge=1,delta=2
    19                           	psect	text7,local,class=CODE,merge=1,delta=2
    20                           	psect	text8,local,class=CODE,merge=1,delta=2
    21                           	psect	text9,local,class=CODE,merge=1,delta=2
    22                           	psect	text10,local,class=CODE,merge=1,delta=2
    23                           	psect	text11,local,class=CODE,merge=1,delta=2
    24                           	psect	text12,local,class=CODE,merge=1,delta=2
    25                           	psect	text13,local,class=CODE,merge=1,delta=2
    26                           	psect	intentry,global,class=CODE,delta=2
    27                           	psect	config,global,abs,ovrld,class=CONFIG,space=4,delta=2,noexec
    28                           	dabs	1,0x7E,2
    29  0000                     
    30                           ; Version 2.20
    31                           ; Generated 12/02/2020 GMT
    32                           ; 
    33                           ; Copyright © 2020, Microchip Technology Inc. and its subsidiaries ("Microchip")
    34                           ; All rights reserved.
    35                           ; 
    36                           ; This software is developed by Microchip Technology Inc. and its subsidiaries ("Microch
      +                          ip").
    37                           ; 
    38                           ; Redistribution and use in source and binary forms, with or without modification, are
    39                           ; permitted provided that the following conditions are met:
    40                           ; 
    41                           ;     1. Redistributions of source code must retain the above copyright notice, this lis
      +                          t of
    42                           ;        conditions and the following disclaimer.
    43                           ; 
    44                           ;     2. Redistributions in binary form must reproduce the above copyright notice, this 
      +                          list
    45                           ;        of conditions and the following disclaimer in the documentation and/or other
    46                           ;        materials provided with the distribution.
    47                           ; 
    48                           ;     3. Microchip's name may not be used to endorse or promote products derived from th
      +                          is
    49                           ;        software without specific prior written permission.
    50                           ; 
    51                           ; THIS SOFTWARE IS PROVIDED BY MICROCHIP "AS IS" AND ANY EXPRESS OR IMPLIED WARRANTIES,
    52                           ; INCLUDING, BUT NOT LIMITED TO, THE IMPLIED WARRANTIES OF MERCHANTABILITY AND FITNESS F
      +                          OR
    53                           ; PURPOSE ARE DISCLAIMED.  IN NO EVENT SHALL MICROCHIP BE LIABLE FOR ANY DIRECT, INDIREC
      +                          T,
    54                           ; INCIDENTAL, SPECIAL, EXEMPLARY, OR CONSEQUENTIAL DAMAGES (INCLUDING BUT NOT LIMITED TO
    55                           ; PROCUREMENT OF SUBSTITUTE GOODS OR SERVICES; LOSS OF USE, DATA OR PROFITS; OR BUSINESS
    56                           ; INTERRUPTION) HOWSOEVER CAUSED AND ON ANY THEORY OF LIABILITY, WHETHER IN CONTRACT, ST
      +                          RICT
    57                           ; LIABILITY, OR TORT (INCLUDING NEGLIGENCE OR OTHERWISE) ARISING IN ANY WAY OUT OF THE U
      +                          SE OF
    58                           ; THIS SOFTWARE, EVEN IF ADVISED OF THE POSSIBILITY OF SUCH DAMAGE.
    59                           ; 
    60                           ; 
    61                           ; Code-generator required, PIC16F887 Definitions
    62                           ; 
    63                           ; SFR Addresses
    64  0000                     	;# 
    65  0001                     	;# 
    66  0002                     	;# 
    67  0003                     	;# 
    68  0004                     	;# 
    69  0005                     	;# 
    70  0006                     	;# 
    71  0007                     	;# 
    72  0008                     	;# 
    73  0009                     	;# 
    74  000A                     	;# 
    75  000B                     	;# 
    76  000C                     	;# 
    77  000D                     	;# 
    78  000E                     	;# 
    79  000E                     	;# 
    80  000F                     	;# 
    81  0010                     	;# 
    82  0011                     	;# 
    83  0012                     	;# 
    84  0013                     	;# 
    85  0014                     	;# 
    86  0015                     	;# 
    87  0015                     	;# 
    88  0016                     	;# 
    89  0017                     	;# 
    90  0018                     	;# 
    91  0019                     	;# 
    92  001A                     	;# 
    93  001B                     	;# 
    94  001B                     	;# 
    95  001C                     	;# 
    96  001D                     	;# 
    97  001E                     	;# 
    98  001F                     	;# 
    99  0081                     	;# 
   100  0085                     	;# 
   101  0086                     	;# 
   102  0087                     	;# 
   103  0088                     	;# 
   104  0089                     	;# 
   105  008C                     	;# 
   106  008D                     	;# 
   107  008E                     	;# 
   108  008F                     	;# 
   109  0090                     	;# 
   110  0091                     	;# 
   111  0092                     	;# 
   112  0093                     	;# 
   113  0093                     	;# 
   114  0093                     	;# 
   115  0094                     	;# 
   116  0095                     	;# 
   117  0096                     	;# 
   118  0097                     	;# 
   119  0098                     	;# 
   120  0099                     	;# 
   121  009A                     	;# 
   122  009B                     	;# 
   123  009C                     	;# 
   124  009D                     	;# 
   125  009E                     	;# 
   126  009F                     	;# 
   127  0105                     	;# 
   128  0107                     	;# 
   129  0108                     	;# 
   130  0109                     	;# 
   131  010C                     	;# 
   132  010C                     	;# 
   133  010D                     	;# 
   134  010E                     	;# 
   135  010F                     	;# 
   136  0185                     	;# 
   137  0187                     	;# 
   138  0188                     	;# 
   139  0189                     	;# 
   140  018C                     	;# 
   141  018D                     	;# 
   142  0000                     	;# 
   143  0001                     	;# 
   144  0002                     	;# 
   145  0003                     	;# 
   146  0004                     	;# 
   147  0005                     	;# 
   148  0006                     	;# 
   149  0007                     	;# 
   150  0008                     	;# 
   151  0009                     	;# 
   152  000A                     	;# 
   153  000B                     	;# 
   154  000C                     	;# 
   155  000D                     	;# 
   156  000E                     	;# 
   157  000E                     	;# 
   158  000F                     	;# 
   159  0010                     	;# 
   160  0011                     	;# 
   161  0012                     	;# 
   162  0013                     	;# 
   163  0014                     	;# 
   164  0015                     	;# 
   165  0015                     	;# 
   166  0016                     	;# 
   167  0017                     	;# 
   168  0018                     	;# 
   169  0019                     	;# 
   170  001A                     	;# 
   171  001B                     	;# 
   172  001B                     	;# 
   173  001C                     	;# 
   174  001D                     	;# 
   175  001E                     	;# 
   176  001F                     	;# 
   177  0081                     	;# 
   178  0085                     	;# 
   179  0086                     	;# 
   180  0087                     	;# 
   181  0088                     	;# 
   182  0089                     	;# 
   183  008C                     	;# 
   184  008D                     	;# 
   185  008E                     	;# 
   186  008F                     	;# 
   187  0090                     	;# 
   188  0091                     	;# 
   189  0092                     	;# 
   190  0093                     	;# 
   191  0093                     	;# 
   192  0093                     	;# 
   193  0094                     	;# 
   194  0095                     	;# 
   195  0096                     	;# 
   196  0097                     	;# 
   197  0098                     	;# 
   198  0099                     	;# 
   199  009A                     	;# 
   200  009B                     	;# 
   201  009C                     	;# 
   202  009D                     	;# 
   203  009E                     	;# 
   204  009F                     	;# 
   205  0105                     	;# 
   206  0107                     	;# 
   207  0108                     	;# 
   208  0109                     	;# 
   209  010C                     	;# 
   210  010C                     	;# 
   211  010D                     	;# 
   212  010E                     	;# 
   213  010F                     	;# 
   214  0185                     	;# 
   215  0187                     	;# 
   216  0188                     	;# 
   217  0189                     	;# 
   218  018C                     	;# 
   219  018D                     	;# 
   220  0000                     	;# 
   221  0001                     	;# 
   222  0002                     	;# 
   223  0003                     	;# 
   224  0004                     	;# 
   225  0005                     	;# 
   226  0006                     	;# 
   227  0007                     	;# 
   228  0008                     	;# 
   229  0009                     	;# 
   230  000A                     	;# 
   231  000B                     	;# 
   232  000C                     	;# 
   233  000D                     	;# 
   234  000E                     	;# 
   235  000E                     	;# 
   236  000F                     	;# 
   237  0010                     	;# 
   238  0011                     	;# 
   239  0012                     	;# 
   240  0013                     	;# 
   241  0014                     	;# 
   242  0015                     	;# 
   243  0015                     	;# 
   244  0016                     	;# 
   245  0017                     	;# 
   246  0018                     	;# 
   247  0019                     	;# 
   248  001A                     	;# 
   249  001B                     	;# 
   250  001B                     	;# 
   251  001C                     	;# 
   252  001D                     	;# 
   253  001E                     	;# 
   254  001F                     	;# 
   255  0081                     	;# 
   256  0085                     	;# 
   257  0086                     	;# 
   258  0087                     	;# 
   259  0088                     	;# 
   260  0089                     	;# 
   261  008C                     	;# 
   262  008D                     	;# 
   263  008E                     	;# 
   264  008F                     	;# 
   265  0090                     	;# 
   266  0091                     	;# 
   267  0092                     	;# 
   268  0093                     	;# 
   269  0093                     	;# 
   270  0093                     	;# 
   271  0094                     	;# 
   272  0095                     	;# 
   273  0096                     	;# 
   274  0097                     	;# 
   275  0098                     	;# 
   276  0099                     	;# 
   277  009A                     	;# 
   278  009B                     	;# 
   279  009C                     	;# 
   280  009D                     	;# 
   281  009E                     	;# 
   282  009F                     	;# 
   283  0105                     	;# 
   284  0107                     	;# 
   285  0108                     	;# 
   286  0109                     	;# 
   287  010C                     	;# 
   288  010C                     	;# 
   289  010D                     	;# 
   290  010E                     	;# 
   291  010F                     	;# 
   292  0185                     	;# 
   293  0187                     	;# 
   294  0188                     	;# 
   295  0189                     	;# 
   296  018C                     	;# 
   297  018D                     	;# 
   298  0000                     	;# 
   299  0001                     	;# 
   300  0002                     	;# 
   301  0003                     	;# 
   302  0004                     	;# 
   303  0005                     	;# 
   304  0006                     	;# 
   305  0007                     	;# 
   306  0008                     	;# 
   307  0009                     	;# 
   308  000A                     	;# 
   309  000B                     	;# 
   310  000C                     	;# 
   311  000D                     	;# 
   312  000E                     	;# 
   313  000E                     	;# 
   314  000F                     	;# 
   315  0010                     	;# 
   316  0011                     	;# 
   317  0012                     	;# 
   318  0013                     	;# 
   319  0014                     	;# 
   320  0015                     	;# 
   321  0015                     	;# 
   322  0016                     	;# 
   323  0017                     	;# 
   324  0018                     	;# 
   325  0019                     	;# 
   326  001A                     	;# 
   327  001B                     	;# 
   328  001B                     	;# 
   329  001C                     	;# 
   330  001D                     	;# 
   331  001E                     	;# 
   332  001F                     	;# 
   333  0081                     	;# 
   334  0085                     	;# 
   335  0086                     	;# 
   336  0087                     	;# 
   337  0088                     	;# 
   338  0089                     	;# 
   339  008C                     	;# 
   340  008D                     	;# 
   341  008E                     	;# 
   342  008F                     	;# 
   343  0090                     	;# 
   344  0091                     	;# 
   345  0092                     	;# 
   346  0093                     	;# 
   347  0093                     	;# 
   348  0093                     	;# 
   349  0094                     	;# 
   350  0095                     	;# 
   351  0096                     	;# 
   352  0097                     	;# 
   353  0098                     	;# 
   354  0099                     	;# 
   355  009A                     	;# 
   356  009B                     	;# 
   357  009C                     	;# 
   358  009D                     	;# 
   359  009E                     	;# 
   360  009F                     	;# 
   361  0105                     	;# 
   362  0107                     	;# 
   363  0108                     	;# 
   364  0109                     	;# 
   365  010C                     	;# 
   366  010C                     	;# 
   367  010D                     	;# 
   368  010E                     	;# 
   369  010F                     	;# 
   370  0185                     	;# 
   371  0187                     	;# 
   372  0188                     	;# 
   373  0189                     	;# 
   374  018C                     	;# 
   375  018D                     	;# 
   376                           
   377                           	psect	nvBANK0
   378  0029                     __pnvBANK0:
   379  0029                     _check0:
   380  0029                     	ds	1
   381  0009                     _PORTE	set	9
   382  0007                     _PORTCbits	set	7
   383  0008                     _PORTD	set	8
   384  0006                     _PORTB	set	6
   385  0009                     _PORTEbits	set	9
   386  0013                     _SSPBUF	set	19
   387  0014                     _SSPCON	set	20
   388  0087                     _TRISCbits	set	135
   389  0089                     _TRISE	set	137
   390  0088                     _TRISD	set	136
   391  0086                     _TRISB	set	134
   392  0094                     _SSPSTATbits	set	148
   393  0094                     _SSPSTAT	set	148
   394  043A                     _TRISC2	set	1082
   395  0439                     _TRISC1	set	1081
   396  043B                     _TRISC3	set	1083
   397  043D                     _TRISC5	set	1085
   398  0189                     _ANSELH	set	393
   399  0188                     _ANSEL	set	392
   400                           
   401                           	psect	strings
   402  06EE                     __pstrings:
   403  06EE                     stringtab:
   404  06EE                     __stringtab:
   405                           
   406                           ;	String table - string pointers are 2 bytes each
   407  06EE  1BFF               	btfsc	btemp+1,7
   408  06EF  2EF8               	ljmp	stringcode
   409  06F0  1383               	bcf	3,7
   410  06F1  187F               	btfsc	btemp+1,0
   411  06F2  1783               	bsf	3,7
   412  06F3  0800               	movf	0,w
   413  06F4  0A84               	incf	4,f
   414  06F5  1903               	skipnz
   415  06F6  0AFF               	incf	btemp+1,f
   416  06F7  0008               	return
   417  06F8                     stringcode:
   418  06F8  087F               	movf	btemp+1,w
   419  06F9  397F               	andlw	127
   420  06FA  008A               	movwf	10
   421  06FB  0804               	movf	4,w
   422  06FC  0A84               	incf	4,f
   423  06FD  1903               	skipnz
   424  06FE  0AFF               	incf	btemp+1,f
   425  06FF  0082               	movwf	2
   426  0700                     __stringbase:
   427  0700                     __end_of__stringtab:
   428                           
   429                           	psect	stringtext
   430  0700                     __pstringtext:
   431  0700                     STR_13:
   432  0700  3409               	retlw	9
   433  0701  3431               	retlw	49	;'1'
   434  0702  3430               	retlw	48	;'0'
   435  0703  3409               	retlw	9
   436  0704  3400               	retlw	0
   437  0705                     STR_18:
   438  0705  3409               	retlw	9
   439  0706  3432               	retlw	50	;'2'
   440  0707  3430               	retlw	48	;'0'
   441  0708  3409               	retlw	9
   442  0709  3400               	retlw	0
   443  070A                     STR_23:
   444  070A  3409               	retlw	9
   445  070B  3433               	retlw	51	;'3'
   446  070C  3430               	retlw	48	;'0'
   447  070D  3409               	retlw	9
   448  070E  3400               	retlw	0
   449  070F                     STR_28:
   450  070F  3409               	retlw	9
   451  0710  3434               	retlw	52	;'4'
   452  0711  3430               	retlw	48	;'0'
   453  0712  3409               	retlw	9
   454  0713  3400               	retlw	0
   455  0714                     STR_33:
   456  0714  3409               	retlw	9
   457  0715  3435               	retlw	53	;'5'
   458  0716  3430               	retlw	48	;'0'
   459  0717  3409               	retlw	9
   460  0718  3400               	retlw	0
   461  0719                     STR_38:
   462  0719  3409               	retlw	9
   463  071A  3436               	retlw	54	;'6'
   464  071B  3430               	retlw	48	;'0'
   465  071C  3409               	retlw	9
   466  071D  3400               	retlw	0
   467  071E                     STR_43:
   468  071E  3409               	retlw	9
   469  071F  3437               	retlw	55	;'7'
   470  0720  3430               	retlw	48	;'0'
   471  0721  3409               	retlw	9
   472  0722  3400               	retlw	0
   473  0723                     STR_48:
   474  0723  3409               	retlw	9
   475  0724  3438               	retlw	56	;'8'
   476  0725  3430               	retlw	48	;'0'
   477  0726  3409               	retlw	9
   478  0727  3400               	retlw	0
   479  0728                     STR_53:
   480  0728  3409               	retlw	9
   481  0729  3439               	retlw	57	;'9'
   482  072A  3430               	retlw	48	;'0'
   483  072B  3409               	retlw	9
   484  072C  3400               	retlw	0
   485  072D                     STR_14:
   486  072D  3409               	retlw	9
   487  072E  3431               	retlw	49	;'1'
   488  072F  3432               	retlw	50	;'2'
   489  0730  3409               	retlw	9
   490  0731  3400               	retlw	0
   491  0732                     STR_19:
   492  0732  3409               	retlw	9
   493  0733  3432               	retlw	50	;'2'
   494  0734  3432               	retlw	50	;'2'
   495  0735  3409               	retlw	9
   496  0736  3400               	retlw	0
   497  0737                     STR_24:
   498  0737  3409               	retlw	9
   499  0738  3433               	retlw	51	;'3'
   500  0739  3432               	retlw	50	;'2'
   501  073A  3409               	retlw	9
   502  073B  3400               	retlw	0
   503  073C                     STR_29:
   504  073C  3409               	retlw	9
   505  073D  3434               	retlw	52	;'4'
   506  073E  3432               	retlw	50	;'2'
   507  073F  3409               	retlw	9
   508  0740  3400               	retlw	0
   509  0741                     STR_34:
   510  0741  3409               	retlw	9
   511  0742  3435               	retlw	53	;'5'
   512  0743  3432               	retlw	50	;'2'
   513  0744  3409               	retlw	9
   514  0745  3400               	retlw	0
   515  0746                     STR_39:
   516  0746  3409               	retlw	9
   517  0747  3436               	retlw	54	;'6'
   518  0748  3432               	retlw	50	;'2'
   519  0749  3409               	retlw	9
   520  074A  3400               	retlw	0
   521  074B                     STR_44:
   522  074B  3409               	retlw	9
   523  074C  3437               	retlw	55	;'7'
   524  074D  3432               	retlw	50	;'2'
   525  074E  3409               	retlw	9
   526  074F  3400               	retlw	0
   527  0750                     STR_49:
   528  0750  3409               	retlw	9
   529  0751  3438               	retlw	56	;'8'
   530  0752  3432               	retlw	50	;'2'
   531  0753  3409               	retlw	9
   532  0754  3400               	retlw	0
   533  0755                     STR_54:
   534  0755  3409               	retlw	9
   535  0756  3439               	retlw	57	;'9'
   536  0757  3432               	retlw	50	;'2'
   537  0758  3409               	retlw	9
   538  0759  3400               	retlw	0
   539  075A                     STR_15:
   540  075A  3409               	retlw	9
   541  075B  3431               	retlw	49	;'1'
   542  075C  3434               	retlw	52	;'4'
   543  075D  3409               	retlw	9
   544  075E  3400               	retlw	0
   545  075F                     STR_20:
   546  075F  3409               	retlw	9
   547  0760  3432               	retlw	50	;'2'
   548  0761  3434               	retlw	52	;'4'
   549  0762  3409               	retlw	9
   550  0763  3400               	retlw	0
   551  0764                     STR_25:
   552  0764  3409               	retlw	9
   553  0765  3433               	retlw	51	;'3'
   554  0766  3434               	retlw	52	;'4'
   555  0767  3409               	retlw	9
   556  0768  3400               	retlw	0
   557  0769                     STR_30:
   558  0769  3409               	retlw	9
   559  076A  3434               	retlw	52	;'4'
   560  076B  3434               	retlw	52	;'4'
   561  076C  3409               	retlw	9
   562  076D  3400               	retlw	0
   563  076E                     STR_35:
   564  076E  3409               	retlw	9
   565  076F  3435               	retlw	53	;'5'
   566  0770  3434               	retlw	52	;'4'
   567  0771  3409               	retlw	9
   568  0772  3400               	retlw	0
   569  0773                     STR_40:
   570  0773  3409               	retlw	9
   571  0774  3436               	retlw	54	;'6'
   572  0775  3434               	retlw	52	;'4'
   573  0776  3409               	retlw	9
   574  0777  3400               	retlw	0
   575  0778                     STR_45:
   576  0778  3409               	retlw	9
   577  0779  3437               	retlw	55	;'7'
   578  077A  3434               	retlw	52	;'4'
   579  077B  3409               	retlw	9
   580  077C  3400               	retlw	0
   581  077D                     STR_50:
   582  077D  3409               	retlw	9
   583  077E  3438               	retlw	56	;'8'
   584  077F  3434               	retlw	52	;'4'
   585  0780  3409               	retlw	9
   586  0781  3400               	retlw	0
   587  0782                     STR_55:
   588  0782  3409               	retlw	9
   589  0783  3439               	retlw	57	;'9'
   590  0784  3434               	retlw	52	;'4'
   591  0785  3409               	retlw	9
   592  0786  3400               	retlw	0
   593  0787                     STR_16:
   594  0787  3409               	retlw	9
   595  0788  3431               	retlw	49	;'1'
   596  0789  3436               	retlw	54	;'6'
   597  078A  3409               	retlw	9
   598  078B  3400               	retlw	0
   599  078C                     STR_21:
   600  078C  3409               	retlw	9
   601  078D  3432               	retlw	50	;'2'
   602  078E  3436               	retlw	54	;'6'
   603  078F  3409               	retlw	9
   604  0790  3400               	retlw	0
   605  0791                     STR_26:
   606  0791  3409               	retlw	9
   607  0792  3433               	retlw	51	;'3'
   608  0793  3436               	retlw	54	;'6'
   609  0794  3409               	retlw	9
   610  0795  3400               	retlw	0
   611  0796                     STR_31:
   612  0796  3409               	retlw	9
   613  0797  3434               	retlw	52	;'4'
   614  0798  3436               	retlw	54	;'6'
   615  0799  3409               	retlw	9
   616  079A  3400               	retlw	0
   617  079B                     STR_36:
   618  079B  3409               	retlw	9
   619  079C  3435               	retlw	53	;'5'
   620  079D  3436               	retlw	54	;'6'
   621  079E  3409               	retlw	9
   622  079F  3400               	retlw	0
   623  07A0                     STR_41:
   624  07A0  3409               	retlw	9
   625  07A1  3436               	retlw	54	;'6'
   626  07A2  3436               	retlw	54	;'6'
   627  07A3  3409               	retlw	9
   628  07A4  3400               	retlw	0
   629  07A5                     STR_46:
   630  07A5  3409               	retlw	9
   631  07A6  3437               	retlw	55	;'7'
   632  07A7  3436               	retlw	54	;'6'
   633  07A8  3409               	retlw	9
   634  07A9  3400               	retlw	0
   635  07AA                     STR_51:
   636  07AA  3409               	retlw	9
   637  07AB  3438               	retlw	56	;'8'
   638  07AC  3436               	retlw	54	;'6'
   639  07AD  3409               	retlw	9
   640  07AE  3400               	retlw	0
   641  07AF                     STR_56:
   642  07AF  3409               	retlw	9
   643  07B0  3439               	retlw	57	;'9'
   644  07B1  3436               	retlw	54	;'6'
   645  07B2  3409               	retlw	9
   646  07B3  3400               	retlw	0
   647  07B4                     STR_17:
   648  07B4  3409               	retlw	9
   649  07B5  3431               	retlw	49	;'1'
   650  07B6  3438               	retlw	56	;'8'
   651  07B7  3409               	retlw	9
   652  07B8  3400               	retlw	0
   653  07B9                     STR_22:
   654  07B9  3409               	retlw	9
   655  07BA  3432               	retlw	50	;'2'
   656  07BB  3438               	retlw	56	;'8'
   657  07BC  3409               	retlw	9
   658  07BD  3400               	retlw	0
   659  07BE                     STR_27:
   660  07BE  3409               	retlw	9
   661  07BF  3433               	retlw	51	;'3'
   662  07C0  3438               	retlw	56	;'8'
   663  07C1  3409               	retlw	9
   664  07C2  3400               	retlw	0
   665  07C3                     STR_32:
   666  07C3  3409               	retlw	9
   667  07C4  3434               	retlw	52	;'4'
   668  07C5  3438               	retlw	56	;'8'
   669  07C6  3409               	retlw	9
   670  07C7  3400               	retlw	0
   671  07C8                     STR_37:
   672  07C8  3409               	retlw	9
   673  07C9  3435               	retlw	53	;'5'
   674  07CA  3438               	retlw	56	;'8'
   675  07CB  3409               	retlw	9
   676  07CC  3400               	retlw	0
   677  07CD                     STR_42:
   678  07CD  3409               	retlw	9
   679  07CE  3436               	retlw	54	;'6'
   680  07CF  3438               	retlw	56	;'8'
   681  07D0  3409               	retlw	9
   682  07D1  3400               	retlw	0
   683  07D2                     STR_47:
   684  07D2  3409               	retlw	9
   685  07D3  3437               	retlw	55	;'7'
   686  07D4  3438               	retlw	56	;'8'
   687  07D5  3409               	retlw	9
   688  07D6  3400               	retlw	0
   689  07D7                     STR_52:
   690  07D7  3409               	retlw	9
   691  07D8  3438               	retlw	56	;'8'
   692  07D9  3438               	retlw	56	;'8'
   693  07DA  3409               	retlw	9
   694  07DB  3400               	retlw	0
   695  07DC                     STR_57:
   696  07DC  3409               	retlw	9
   697  07DD  3439               	retlw	57	;'9'
   698  07DE  3438               	retlw	56	;'8'
   699  07DF  3409               	retlw	9
   700  07E0  3400               	retlw	0
   701  07E1                     STR_58:
   702  07E1  3409               	retlw	9
   703  07E2  3439               	retlw	57	;'9'
   704  07E3  3439               	retlw	57	;'9'
   705  07E4  3409               	retlw	9
   706  07E5  3400               	retlw	0
   707  07E6                     STR_9:
   708  07E6  3409               	retlw	9
   709  07E7  3432               	retlw	50	;'2'
   710  07E8  3409               	retlw	9
   711  07E9  3400               	retlw	0
   712  07EA                     STR_10:
   713  07EA  3409               	retlw	9
   714  07EB  3434               	retlw	52	;'4'
   715  07EC  3409               	retlw	9
   716  07ED  3400               	retlw	0
   717  07EE                     STR_11:
   718  07EE  3409               	retlw	9
   719  07EF  3436               	retlw	54	;'6'
   720  07F0  3409               	retlw	9
   721  07F1  3400               	retlw	0
   722  07F2                     STR_12:
   723  07F2  3409               	retlw	9
   724  07F3  3438               	retlw	56	;'8'
   725  07F4  3409               	retlw	9
   726  07F5  3400               	retlw	0
   727  07F6                     STR_1:
   728  07F6  3453               	retlw	83	;'S'
   729  07F7  3431               	retlw	49	;'1'
   730  07F8  343A               	retlw	58	;':'
   731  07F9  3400               	retlw	0
   732  07FA                     STR_2:
   733  07FA  3453               	retlw	83	;'S'
   734  07FB  3432               	retlw	50	;'2'
   735  07FC  343A               	retlw	58	;':'
   736  07FD  3400               	retlw	0
   737  07FE                     STR_3:
   738  07FE  3453               	retlw	83	;'S'
   739  07FF  3433               	retlw	51	;'3'
   740  0800  343A               	retlw	58	;':'
   741  0801  3400               	retlw	0
   742  0802                     STR_4:
   743  0802  3430               	retlw	48	;'0'
   744  0803  342E               	retlw	46	;'.'
   745  0804  3400               	retlw	0
   746  0805                     STR_5:
   747  0805  3431               	retlw	49	;'1'
   748  0806  342E               	retlw	46	;'.'
   749  0807  3400               	retlw	0
   750  0808                     STR_6:
   751  0808  3432               	retlw	50	;'2'
   752  0809  342E               	retlw	46	;'.'
   753  080A  3400               	retlw	0
   754  080B                     STR_7:
   755  080B  3433               	retlw	51	;'3'
   756  080C  342E               	retlw	46	;'.'
   757  080D  3400               	retlw	0
   758  080E                     STR_8:
   759  080E  3434               	retlw	52	;'4'
   760  080F  342E               	retlw	46	;'.'
   761  0810  3400               	retlw	0
   762                           
   763                           	psect	cinit
   764  000F                     start_initialization:	
   765                           ; #config settings
   766                           
   767  000F                     __initialization:
   768                           
   769                           ; Clear objects allocated to COMMON
   770  000F  01FA               	clrf	__pbssCOMMON& (0+127)
   771  0010  01FB               	clrf	(__pbssCOMMON+1)& (0+127)
   772                           
   773                           ; Clear objects allocated to BANK0
   774  0011  1283               	bcf	3,5	;RP0=0, select bank0
   775  0012  1303               	bcf	3,6	;RP1=0, select bank0
   776  0013  01A5               	clrf	__pbssBANK0& (0+127)
   777  0014  01A6               	clrf	(__pbssBANK0+1)& (0+127)
   778  0015  01A7               	clrf	(__pbssBANK0+2)& (0+127)
   779  0016  01A8               	clrf	(__pbssBANK0+3)& (0+127)
   780  0017                     end_of_initialization:	
   781                           ;End of C runtime variable initialization code
   782                           
   783  0017                     __end_of__initialization:
   784  0017  0183               	clrf	3
   785  0018  120A  158A  2EF2   	ljmp	_main	;jump to C main() function
   786                           
   787                           	psect	bssCOMMON
   788  007A                     __pbssCOMMON:
   789  007A                     _data2:
   790  007A                     	ds	1
   791  007B                     _check1:
   792  007B                     	ds	1
   793                           
   794                           	psect	bssBANK0
   795  0025                     __pbssBANK0:
   796  0025                     _data3:
   797  0025                     	ds	1
   798  0026                     _data1:
   799  0026                     	ds	1
   800  0027                     _ADCresult:
   801  0027                     	ds	1
   802  0028                     _ADC:
   803  0028                     	ds	1
   804                           
   805                           	psect	cstackCOMMON
   806  0070                     __pcstackCOMMON:
   807  0070                     ?_setup:
   808  0070                     ?_LCD_clear:	
   809                           ; 1 bytes @ 0x0
   810                           
   811  0070                     ?_transformADC:	
   812                           ; 1 bytes @ 0x0
   813                           
   814  0070                     ?_LCD_ini:	
   815                           ; 1 bytes @ 0x0
   816                           
   817  0070                     ?_spiReceiveWait:	
   818                           ; 1 bytes @ 0x0
   819                           
   820  0070                     ?_spiWrite:	
   821                           ; 1 bytes @ 0x0
   822                           
   823  0070                     ?_spiRead:	
   824                           ; 1 bytes @ 0x0
   825                           
   826  0070                     ?_ISR:	
   827                           ; 1 bytes @ 0x0
   828                           
   829  0070                     ??_ISR:	
   830                           ; 1 bytes @ 0x0
   831                           
   832  0070                     ?_main:	
   833                           ; 1 bytes @ 0x0
   834                           
   835  0070                     ?_LCD_cmd:	
   836                           ; 1 bytes @ 0x0
   837                           
   838  0070                     ?_LCD_Wchar:	
   839                           ; 1 bytes @ 0x0
   840                           
   841                           
   842                           ; 1 bytes @ 0x0
   843  0070                     	ds	2
   844  0072                     ?_spiInit:
   845  0072                     ??_spiReceiveWait:	
   846                           ; 1 bytes @ 0x2
   847                           
   848  0072                     ??_spiWrite:	
   849                           ; 1 bytes @ 0x2
   850                           
   851  0072                     ??_spiRead:	
   852                           ; 1 bytes @ 0x2
   853                           
   854  0072                     ??_LCD_cmd:	
   855                           ; 1 bytes @ 0x2
   856                           
   857  0072                     ??_LCD_Wchar:	
   858                           ; 1 bytes @ 0x2
   859                           
   860  0072                     spiInit@sDataSample:	
   861                           ; 1 bytes @ 0x2
   862                           
   863  0072                     spiWrite@dat:	
   864                           ; 1 bytes @ 0x2
   865                           
   866                           
   867                           ; 1 bytes @ 0x2
   868  0072                     	ds	1
   869  0073                     spiInit@sClockIdle:
   870  0073                     LCD_Wchar@c:	
   871                           ; 1 bytes @ 0x3
   872                           
   873                           
   874                           ; 1 bytes @ 0x3
   875  0073                     	ds	1
   876  0074                     ?_LCD_Wstring:
   877  0074                     spiInit@sTransmitEdge:	
   878                           ; 1 bytes @ 0x4
   879                           
   880  0074                     LCD_cmd@cmd:	
   881                           ; 1 bytes @ 0x4
   882                           
   883  0074                     LCD_Wstring@v:	
   884                           ; 1 bytes @ 0x4
   885                           
   886                           
   887                           ; 2 bytes @ 0x4
   888  0074                     	ds	1
   889  0075                     ??_LCD_clear:
   890  0075                     ?_LCD_cursor:	
   891                           ; 1 bytes @ 0x5
   892                           
   893  0075                     ??_LCD_ini:	
   894                           ; 1 bytes @ 0x5
   895                           
   896  0075                     ??_spiInit:	
   897                           ; 1 bytes @ 0x5
   898                           
   899  0075                     spiInit@sType:	
   900                           ; 1 bytes @ 0x5
   901                           
   902  0075                     LCD_cursor@y:	
   903                           ; 1 bytes @ 0x5
   904                           
   905                           
   906                           ; 1 bytes @ 0x5
   907  0075                     	ds	1
   908  0076                     ??_LCD_cursor:
   909  0076                     ??_LCD_Wstring:	
   910                           ; 1 bytes @ 0x6
   911                           
   912                           
   913                           ; 1 bytes @ 0x6
   914  0076                     	ds	1
   915  0077                     ??_setup:
   916  0077                     LCD_cursor@x:	
   917                           ; 1 bytes @ 0x7
   918                           
   919                           
   920                           ; 1 bytes @ 0x7
   921  0077                     	ds	1
   922  0078                     LCD_cursor@a:
   923                           
   924                           ; 1 bytes @ 0x8
   925  0078                     	ds	1
   926  0079                     ??_transformADC:
   927                           
   928                           ; 1 bytes @ 0x9
   929  0079                     	ds	1
   930                           
   931                           	psect	cstackBANK0
   932  0020                     __pcstackBANK0:
   933  0020                     LCD_Wstring@i:
   934                           
   935                           ; 2 bytes @ 0x0
   936  0020                     	ds	2
   937  0022                     transformADC@k:
   938                           
   939                           ; 1 bytes @ 0x2
   940  0022                     	ds	1
   941  0023                     ??_main:
   942                           
   943                           ; 1 bytes @ 0x3
   944  0023                     	ds	2
   945                           
   946                           	psect	maintext
   947  0EF2                     __pmaintext:	
   948 ;;
   949 ;;Main: autosize = 0, tempsize = 2, incstack = 0, save=0
   950 ;;
   951 ;; *************** function _main *****************
   952 ;; Defined at:
   953 ;;		line 75 in file "MASTERsrc.c"
   954 ;; Parameters:    Size  Location     Type
   955 ;;		None
   956 ;; Auto vars:     Size  Location     Type
   957 ;;		None
   958 ;; Return value:  Size  Location     Type
   959 ;;                  1    wreg      void 
   960 ;; Registers used:
   961 ;;		wreg, fsr0l, fsr0h, status,2, status,0, btemp+1, pclath, cstack
   962 ;; Tracked objects:
   963 ;;		On entry : B00/0
   964 ;;		On exit  : 0/0
   965 ;;		Unchanged: 0/0
   966 ;; Data sizes:     COMMON   BANK0   BANK1   BANK3   BANK2
   967 ;;      Params:         0       0       0       0       0
   968 ;;      Locals:         0       0       0       0       0
   969 ;;      Temps:          0       2       0       0       0
   970 ;;      Totals:         0       2       0       0       0
   971 ;;Total ram usage:        2 bytes
   972 ;; Hardware stack levels required when called:    4
   973 ;; This function calls:
   974 ;;		_LCD_Wstring
   975 ;;		_LCD_clear
   976 ;;		_LCD_cursor
   977 ;;		_setup
   978 ;;		_spiRead
   979 ;;		_spiWrite
   980 ;;		_transformADC
   981 ;; This function is called by:
   982 ;;		Startup code after reset
   983 ;; This function uses a non-reentrant model
   984 ;;
   985                           
   986                           
   987                           ;psect for function _main
   988  0EF2                     _main:
   989  0EF2                     l2296:	
   990                           ;incstack = 0
   991                           ; Regs used in _main: [wreg-fsr0h+status,2+status,0+btemp+1+pclath+cstack]
   992                           
   993                           
   994                           ;MASTERsrc.c: 77:     setup();
   995  0EF2  120A  118A  26C4  120A  158A  	fcall	_setup
   996                           
   997                           ;MASTERsrc.c: 78:     LCD_clear();
   998  0EF7  120A  158A  267E  120A  158A  	fcall	_LCD_clear
   999                           
  1000                           ;MASTERsrc.c: 79:     LCD_cursor(1,1);
  1001  0EFC  01F5               	clrf	LCD_cursor@y
  1002  0EFD  0AF5               	incf	LCD_cursor@y,f
  1003  0EFE  3001               	movlw	1
  1004  0EFF  120A  158A  26CE  120A  158A  	fcall	_LCD_cursor
  1005  0F04                     l2298:
  1006                           
  1007                           ;MASTERsrc.c: 80:     LCD_Wstring("S1:");
  1008  0F04  30F6               	movlw	low (STR_1| (0+32768))
  1009  0F05  00F4               	movwf	LCD_Wstring@v
  1010  0F06  3087               	movlw	high (STR_1| (0+32768))
  1011  0F07  00F5               	movwf	LCD_Wstring@v+1
  1012  0F08  120A  118A  267E  120A  158A  	fcall	_LCD_Wstring
  1013  0F0D                     l2300:
  1014                           
  1015                           ;MASTERsrc.c: 81:     _delay((unsigned long)((1)*(4000000/4000.0)));
  1016  0F0D  30C7               	movlw	199
  1017  0F0E  1283               	bcf	3,5	;RP0=0, select bank0
  1018  0F0F  1303               	bcf	3,6	;RP1=0, select bank0
  1019  0F10  00A3               	movwf	??_main
  1020  0F11                     u2017:
  1021  0F11  2F12               	nop2
  1022  0F12  0BA3               	decfsz	??_main,f
  1023  0F13  2F11               	goto	u2017
  1024  0F14  2F15               	nop2
  1025  0F15                     l2302:
  1026                           
  1027                           ;MASTERsrc.c: 82:     LCD_cursor(6,1);
  1028  0F15  01F5               	clrf	LCD_cursor@y
  1029  0F16  0AF5               	incf	LCD_cursor@y,f
  1030  0F17  3006               	movlw	6
  1031  0F18  120A  158A  26CE  120A  158A  	fcall	_LCD_cursor
  1032  0F1D                     l2304:
  1033                           
  1034                           ;MASTERsrc.c: 83:     LCD_Wstring("S2:");
  1035  0F1D  30FA               	movlw	low (STR_2| (0+32768))
  1036  0F1E  00F4               	movwf	LCD_Wstring@v
  1037  0F1F  3087               	movlw	high (STR_2| (0+32768))
  1038  0F20  00F5               	movwf	LCD_Wstring@v+1
  1039  0F21  120A  118A  267E  120A  158A  	fcall	_LCD_Wstring
  1040                           
  1041                           ;MASTERsrc.c: 84:     _delay((unsigned long)((1)*(4000000/4000.0)));
  1042  0F26  30C7               	movlw	199
  1043  0F27  1283               	bcf	3,5	;RP0=0, select bank0
  1044  0F28  1303               	bcf	3,6	;RP1=0, select bank0
  1045  0F29  00A3               	movwf	??_main
  1046  0F2A                     u2027:
  1047  0F2A  2F2B               	nop2
  1048  0F2B  0BA3               	decfsz	??_main,f
  1049  0F2C  2F2A               	goto	u2027
  1050  0F2D  2F2E               	nop2
  1051  0F2E                     l2306:
  1052                           
  1053                           ;MASTERsrc.c: 85:     LCD_cursor(12,1);
  1054  0F2E  01F5               	clrf	LCD_cursor@y
  1055  0F2F  0AF5               	incf	LCD_cursor@y,f
  1056  0F30  300C               	movlw	12
  1057  0F31  120A  158A  26CE  120A  158A  	fcall	_LCD_cursor
  1058  0F36                     l2308:
  1059                           
  1060                           ;MASTERsrc.c: 86:     LCD_Wstring("S3:");
  1061  0F36  30FE               	movlw	low (STR_3| (0+32768))
  1062  0F37  00F4               	movwf	LCD_Wstring@v
  1063  0F38  3087               	movlw	high (STR_3| (0+32768))
  1064  0F39  00F5               	movwf	LCD_Wstring@v+1
  1065  0F3A  120A  118A  267E  120A  158A  	fcall	_LCD_Wstring
  1066  0F3F                     l2310:
  1067                           
  1068                           ;MASTERsrc.c: 90:         if (check0 == 1){
  1069  0F3F  1283               	bcf	3,5	;RP0=0, select bank0
  1070  0F40  1303               	bcf	3,6	;RP1=0, select bank0
  1071  0F41  0329               	decf	_check0,w
  1072  0F42  1D03               	btfss	3,2
  1073  0F43  2F45               	goto	u1981
  1074  0F44  2F46               	goto	u1980
  1075  0F45                     u1981:
  1076  0F45  2F7A               	goto	l2326
  1077  0F46                     u1980:
  1078  0F46                     l2312:
  1079                           
  1080                           ;MASTERsrc.c: 91:             PORTEbits.RE0 = 0;
  1081  0F46  1009               	bcf	9,0	;volatile
  1082  0F47                     l2314:
  1083                           
  1084                           ;MASTERsrc.c: 92:             _delay((unsigned long)((1)*(4000000/4000.0)));
  1085  0F47  30C7               	movlw	199
  1086  0F48  1283               	bcf	3,5	;RP0=0, select bank0
  1087  0F49  1303               	bcf	3,6	;RP1=0, select bank0
  1088  0F4A  00A3               	movwf	??_main
  1089  0F4B                     u2037:
  1090  0F4B  2F4C               	nop2
  1091  0F4C  0BA3               	decfsz	??_main,f
  1092  0F4D  2F4B               	goto	u2037
  1093  0F4E  2F4F               	nop2
  1094  0F4F                     l2316:
  1095                           
  1096                           ;MASTERsrc.c: 93:             spiWrite(1);
  1097  0F4F  3001               	movlw	1
  1098  0F50  120A  158A  2671  120A  158A  	fcall	_spiWrite
  1099  0F55                     l2318:
  1100                           
  1101                           ;MASTERsrc.c: 94:             _delay((unsigned long)((2)*(4000000/4000.0)));
  1102  0F55  3003               	movlw	3
  1103  0F56  1283               	bcf	3,5	;RP0=0, select bank0
  1104  0F57  1303               	bcf	3,6	;RP1=0, select bank0
  1105  0F58  00A4               	movwf	??_main+1
  1106  0F59  3097               	movlw	151
  1107  0F5A  00A3               	movwf	??_main
  1108  0F5B                     u2047:
  1109  0F5B  0BA3               	decfsz	??_main,f
  1110  0F5C  2F5B               	goto	u2047
  1111  0F5D  0BA4               	decfsz	??_main+1,f
  1112  0F5E  2F5B               	goto	u2047
  1113                           
  1114                           ;MASTERsrc.c: 95:             data1 = spiRead();
  1115  0F5F  120A  158A  268C  120A  158A  	fcall	_spiRead
  1116  0F64  1283               	bcf	3,5	;RP0=0, select bank0
  1117  0F65  1303               	bcf	3,6	;RP1=0, select bank0
  1118  0F66  00A3               	movwf	??_main
  1119  0F67  0823               	movf	??_main,w
  1120  0F68  00A6               	movwf	_data1
  1121  0F69                     l2320:
  1122                           
  1123                           ;MASTERsrc.c: 96:             _delay((unsigned long)((2)*(4000000/4000.0)));
  1124  0F69  3003               	movlw	3
  1125  0F6A  1283               	bcf	3,5	;RP0=0, select bank0
  1126  0F6B  1303               	bcf	3,6	;RP1=0, select bank0
  1127  0F6C  00A4               	movwf	??_main+1
  1128  0F6D  3097               	movlw	151
  1129  0F6E  00A3               	movwf	??_main
  1130  0F6F                     u2057:
  1131  0F6F  0BA3               	decfsz	??_main,f
  1132  0F70  2F6F               	goto	u2057
  1133  0F71  0BA4               	decfsz	??_main+1,f
  1134  0F72  2F6F               	goto	u2057
  1135  0F73                     l2322:
  1136                           
  1137                           ;MASTERsrc.c: 97:             PORTEbits.RE0 = 1;
  1138  0F73  1283               	bcf	3,5	;RP0=0, select bank0
  1139  0F74  1303               	bcf	3,6	;RP1=0, select bank0
  1140  0F75  1409               	bsf	9,0	;volatile
  1141  0F76                     l2324:
  1142                           
  1143                           ;MASTERsrc.c: 99:             check0 = 2;
  1144  0F76  3002               	movlw	2
  1145  0F77  00A3               	movwf	??_main
  1146  0F78  0823               	movf	??_main,w
  1147  0F79  00A9               	movwf	_check0
  1148  0F7A                     l2326:
  1149                           
  1150                           ;MASTERsrc.c: 102:         if (check0 == 2){
  1151  0F7A  3002               	movlw	2
  1152  0F7B  0629               	xorwf	_check0,w
  1153  0F7C  1D03               	btfss	3,2
  1154  0F7D  2F7F               	goto	u1991
  1155  0F7E  2F80               	goto	u1990
  1156  0F7F                     u1991:
  1157  0F7F  2FC2               	goto	l2346
  1158  0F80                     u1990:
  1159  0F80                     l2328:
  1160                           
  1161                           ;MASTERsrc.c: 103:             PORTEbits.RE1 = 0;
  1162  0F80  1089               	bcf	9,1	;volatile
  1163  0F81                     l2330:
  1164                           
  1165                           ;MASTERsrc.c: 104:             _delay((unsigned long)((1)*(4000000/4000.0)));
  1166  0F81  30C7               	movlw	199
  1167  0F82  1283               	bcf	3,5	;RP0=0, select bank0
  1168  0F83  1303               	bcf	3,6	;RP1=0, select bank0
  1169  0F84  00A3               	movwf	??_main
  1170  0F85                     u2067:
  1171  0F85  2F86               	nop2
  1172  0F86  0BA3               	decfsz	??_main,f
  1173  0F87  2F85               	goto	u2067
  1174  0F88  2F89               	nop2
  1175  0F89                     l2332:
  1176                           
  1177                           ;MASTERsrc.c: 105:             spiWrite(1);
  1178  0F89  3001               	movlw	1
  1179  0F8A  120A  158A  2671  120A  158A  	fcall	_spiWrite
  1180  0F8F                     l2334:
  1181                           
  1182                           ;MASTERsrc.c: 106:             _delay((unsigned long)((2)*(4000000/4000.0)));
  1183  0F8F  3003               	movlw	3
  1184  0F90  1283               	bcf	3,5	;RP0=0, select bank0
  1185  0F91  1303               	bcf	3,6	;RP1=0, select bank0
  1186  0F92  00A4               	movwf	??_main+1
  1187  0F93  3097               	movlw	151
  1188  0F94  00A3               	movwf	??_main
  1189  0F95                     u2077:
  1190  0F95  0BA3               	decfsz	??_main,f
  1191  0F96  2F95               	goto	u2077
  1192  0F97  0BA4               	decfsz	??_main+1,f
  1193  0F98  2F95               	goto	u2077
  1194                           
  1195                           ;MASTERsrc.c: 107:             data2 = spiRead();
  1196  0F99  120A  158A  268C  120A  158A  	fcall	_spiRead
  1197  0F9E  1283               	bcf	3,5	;RP0=0, select bank0
  1198  0F9F  1303               	bcf	3,6	;RP1=0, select bank0
  1199  0FA0  00A3               	movwf	??_main
  1200  0FA1  0823               	movf	??_main,w
  1201  0FA2  00FA               	movwf	_data2
  1202  0FA3                     l2336:
  1203                           
  1204                           ;MASTERsrc.c: 108:             _delay((unsigned long)((2)*(4000000/4000.0)));
  1205  0FA3  3003               	movlw	3
  1206  0FA4  1283               	bcf	3,5	;RP0=0, select bank0
  1207  0FA5  1303               	bcf	3,6	;RP1=0, select bank0
  1208  0FA6  00A4               	movwf	??_main+1
  1209  0FA7  3097               	movlw	151
  1210  0FA8  00A3               	movwf	??_main
  1211  0FA9                     u2087:
  1212  0FA9  0BA3               	decfsz	??_main,f
  1213  0FAA  2FA9               	goto	u2087
  1214  0FAB  0BA4               	decfsz	??_main+1,f
  1215  0FAC  2FA9               	goto	u2087
  1216  0FAD                     l2338:
  1217                           
  1218                           ;MASTERsrc.c: 109:             PORTEbits.RE1 = 1;
  1219  0FAD  1283               	bcf	3,5	;RP0=0, select bank0
  1220  0FAE  1303               	bcf	3,6	;RP1=0, select bank0
  1221  0FAF  1489               	bsf	9,1	;volatile
  1222  0FB0                     l2340:
  1223                           
  1224                           ;MASTERsrc.c: 111:             check0 = 3;
  1225  0FB0  3003               	movlw	3
  1226  0FB1  00A3               	movwf	??_main
  1227  0FB2  0823               	movf	??_main,w
  1228  0FB3  00A9               	movwf	_check0
  1229  0FB4                     l2342:
  1230                           
  1231                           ;MASTERsrc.c: 114:             transformADC(data2);
  1232  0FB4  087A               	movf	_data2,w
  1233  0FB5  120A  118A  201B  120A  158A  	fcall	_transformADC
  1234  0FBA                     l2344:
  1235                           
  1236                           ;MASTERsrc.c: 115:             _delay((unsigned long)((1)*(4000000/4000.0)));
  1237  0FBA  30C7               	movlw	199
  1238  0FBB  1283               	bcf	3,5	;RP0=0, select bank0
  1239  0FBC  1303               	bcf	3,6	;RP1=0, select bank0
  1240  0FBD  00A3               	movwf	??_main
  1241  0FBE                     u2097:
  1242  0FBE  2FBF               	nop2
  1243  0FBF  0BA3               	decfsz	??_main,f
  1244  0FC0  2FBE               	goto	u2097
  1245  0FC1  2FC2               	nop2
  1246  0FC2                     l2346:
  1247                           
  1248                           ;MASTERsrc.c: 118:         if (check0 == 3){
  1249  0FC2  3003               	movlw	3
  1250  0FC3  1283               	bcf	3,5	;RP0=0, select bank0
  1251  0FC4  1303               	bcf	3,6	;RP1=0, select bank0
  1252  0FC5  0629               	xorwf	_check0,w
  1253  0FC6  1D03               	btfss	3,2
  1254  0FC7  2FC9               	goto	u2001
  1255  0FC8  2FCA               	goto	u2000
  1256  0FC9                     u2001:
  1257  0FC9  2F3F               	goto	l2310
  1258  0FCA                     u2000:
  1259  0FCA                     l2348:
  1260                           
  1261                           ;MASTERsrc.c: 119:             PORTEbits.RE2 = 0;
  1262  0FCA  1109               	bcf	9,2	;volatile
  1263  0FCB                     l2350:
  1264                           
  1265                           ;MASTERsrc.c: 120:             _delay((unsigned long)((1)*(4000000/4000.0)));
  1266  0FCB  30C7               	movlw	199
  1267  0FCC  1283               	bcf	3,5	;RP0=0, select bank0
  1268  0FCD  1303               	bcf	3,6	;RP1=0, select bank0
  1269  0FCE  00A3               	movwf	??_main
  1270  0FCF                     u2107:
  1271  0FCF  2FD0               	nop2
  1272  0FD0  0BA3               	decfsz	??_main,f
  1273  0FD1  2FCF               	goto	u2107
  1274  0FD2  2FD3               	nop2
  1275  0FD3                     l2352:
  1276                           
  1277                           ;MASTERsrc.c: 121:             spiWrite(1);
  1278  0FD3  3001               	movlw	1
  1279  0FD4  120A  158A  2671  120A  158A  	fcall	_spiWrite
  1280  0FD9                     l2354:
  1281                           
  1282                           ;MASTERsrc.c: 122:             _delay((unsigned long)((2)*(4000000/4000.0)));
  1283  0FD9  3003               	movlw	3
  1284  0FDA  1283               	bcf	3,5	;RP0=0, select bank0
  1285  0FDB  1303               	bcf	3,6	;RP1=0, select bank0
  1286  0FDC  00A4               	movwf	??_main+1
  1287  0FDD  3097               	movlw	151
  1288  0FDE  00A3               	movwf	??_main
  1289  0FDF                     u2117:
  1290  0FDF  0BA3               	decfsz	??_main,f
  1291  0FE0  2FDF               	goto	u2117
  1292  0FE1  0BA4               	decfsz	??_main+1,f
  1293  0FE2  2FDF               	goto	u2117
  1294                           
  1295                           ;MASTERsrc.c: 123:             data3 = spiRead();
  1296  0FE3  120A  158A  268C  120A  158A  	fcall	_spiRead
  1297  0FE8  1283               	bcf	3,5	;RP0=0, select bank0
  1298  0FE9  1303               	bcf	3,6	;RP1=0, select bank0
  1299  0FEA  00A3               	movwf	??_main
  1300  0FEB  0823               	movf	??_main,w
  1301  0FEC  00A5               	movwf	_data3
  1302  0FED                     l2356:
  1303                           
  1304                           ;MASTERsrc.c: 124:             _delay((unsigned long)((2)*(4000000/4000.0)));
  1305  0FED  3003               	movlw	3
  1306  0FEE  1283               	bcf	3,5	;RP0=0, select bank0
  1307  0FEF  1303               	bcf	3,6	;RP1=0, select bank0
  1308  0FF0  00A4               	movwf	??_main+1
  1309  0FF1  3097               	movlw	151
  1310  0FF2  00A3               	movwf	??_main
  1311  0FF3                     u2127:
  1312  0FF3  0BA3               	decfsz	??_main,f
  1313  0FF4  2FF3               	goto	u2127
  1314  0FF5  0BA4               	decfsz	??_main+1,f
  1315  0FF6  2FF3               	goto	u2127
  1316  0FF7                     l2358:
  1317                           
  1318                           ;MASTERsrc.c: 125:             PORTEbits.RE2 = 1;
  1319  0FF7  1283               	bcf	3,5	;RP0=0, select bank0
  1320  0FF8  1303               	bcf	3,6	;RP1=0, select bank0
  1321  0FF9  1509               	bsf	9,2	;volatile
  1322  0FFA                     l2360:
  1323                           
  1324                           ;MASTERsrc.c: 127:             check0 = 1;
  1325  0FFA  01A9               	clrf	_check0
  1326  0FFB  0AA9               	incf	_check0,f
  1327  0FFC  2F3F               	goto	l2310
  1328  0FFD  120A  118A  280C   	ljmp	start
  1329  1000                     __end_of_main:
  1330                           
  1331                           	psect	text1
  1332  001B                     __ptext1:	
  1333 ;; *************** function _transformADC *****************
  1334 ;; Defined at:
  1335 ;;		line 171 in file "MASTERsrc.c"
  1336 ;; Parameters:    Size  Location     Type
  1337 ;;  k               1    wreg     unsigned char 
  1338 ;; Auto vars:     Size  Location     Type
  1339 ;;  k               1    2[BANK0 ] unsigned char 
  1340 ;; Return value:  Size  Location     Type
  1341 ;;                  1    wreg      void 
  1342 ;; Registers used:
  1343 ;;		wreg, fsr0l, fsr0h, status,2, status,0, btemp+1, pclath, cstack
  1344 ;; Tracked objects:
  1345 ;;		On entry : 0/0
  1346 ;;		On exit  : 0/0
  1347 ;;		Unchanged: 0/0
  1348 ;; Data sizes:     COMMON   BANK0   BANK1   BANK3   BANK2
  1349 ;;      Params:         0       0       0       0       0
  1350 ;;      Locals:         0       1       0       0       0
  1351 ;;      Temps:          1       0       0       0       0
  1352 ;;      Totals:         1       1       0       0       0
  1353 ;;Total ram usage:        2 bytes
  1354 ;; Hardware stack levels used:    1
  1355 ;; Hardware stack levels required when called:    3
  1356 ;; This function calls:
  1357 ;;		_LCD_Wstring
  1358 ;;		_LCD_cursor
  1359 ;; This function is called by:
  1360 ;;		_main
  1361 ;; This function uses a non-reentrant model
  1362 ;;
  1363                           
  1364                           
  1365                           ;psect for function _transformADC
  1366  001B                     _transformADC:
  1367                           
  1368                           ;incstack = 0
  1369                           ; Regs used in _transformADC: [wreg-fsr0h+status,2+status,0+btemp+1+pclath+cstack]
  1370                           ;transformADC@k stored from wreg
  1371  001B  1283               	bcf	3,5	;RP0=0, select bank0
  1372  001C  1303               	bcf	3,6	;RP1=0, select bank0
  1373  001D  00A2               	movwf	transformADC@k
  1374  001E                     l1942:
  1375                           
  1376                           ;MASTERsrc.c: 173:     if (k<51){
  1377  001E  3033               	movlw	51
  1378  001F  0222               	subwf	transformADC@k,w
  1379  0020  1803               	skipnc
  1380  0021  2823               	goto	u1401
  1381  0022  2824               	goto	u1400
  1382  0023                     u1401:
  1383  0023  283F               	goto	l1950
  1384  0024                     u1400:
  1385  0024                     l1944:
  1386                           
  1387                           ;MASTERsrc.c: 174:         LCD_cursor(1,2);
  1388  0024  3002               	movlw	2
  1389  0025  00F9               	movwf	??_transformADC
  1390  0026  0879               	movf	??_transformADC,w
  1391  0027  00F5               	movwf	LCD_cursor@y
  1392  0028  3001               	movlw	1
  1393  0029  120A  158A  26CE  120A  118A  	fcall	_LCD_cursor
  1394  002E                     l1946:
  1395                           
  1396                           ;MASTERsrc.c: 175:         LCD_Wstring("0.");
  1397  002E  3002               	movlw	low (STR_4| (0+32768))
  1398  002F  00F4               	movwf	LCD_Wstring@v
  1399  0030  3088               	movlw	high (STR_4| (0+32768))
  1400  0031  00F5               	movwf	LCD_Wstring@v+1
  1401  0032  120A  118A  267E  120A  118A  	fcall	_LCD_Wstring
  1402  0037                     l1948:
  1403                           
  1404                           ;MASTERsrc.c: 176:         _delay((unsigned long)((1)*(4000000/4000.0)));
  1405  0037  30C7               	movlw	199
  1406  0038  00F9               	movwf	??_transformADC
  1407  0039                     u2137:
  1408  0039  283A               	nop2
  1409  003A  0BF9               	decfsz	??_transformADC,f
  1410  003B  2839               	goto	u2137
  1411  003C  283D               	nop2
  1412  003D  283E               	nop2
  1413                           
  1414                           ;MASTERsrc.c: 177:     }
  1415  003E  28F1               	goto	l1996
  1416  003F                     l1950:
  1417  003F  3033               	movlw	51
  1418  0040  0222               	subwf	transformADC@k,w
  1419  0041  1C03               	skipc
  1420  0042  2844               	goto	u1411
  1421  0043  2845               	goto	u1410
  1422  0044                     u1411:
  1423  0044  286D               	goto	l1962
  1424  0045                     u1410:
  1425  0045                     l1952:
  1426  0045  3067               	movlw	103
  1427  0046  0222               	subwf	transformADC@k,w
  1428  0047  1803               	skipnc
  1429  0048  284A               	goto	u1421
  1430  0049  284B               	goto	u1420
  1431  004A                     u1421:
  1432  004A  286D               	goto	l1962
  1433  004B                     u1420:
  1434  004B                     l1954:
  1435                           
  1436                           ;MASTERsrc.c: 180:         LCD_cursor(1,2);
  1437  004B  3002               	movlw	2
  1438  004C  00F9               	movwf	??_transformADC
  1439  004D  0879               	movf	??_transformADC,w
  1440  004E  00F5               	movwf	LCD_cursor@y
  1441  004F  3001               	movlw	1
  1442  0050  120A  158A  26CE  120A  118A  	fcall	_LCD_cursor
  1443  0055                     l1956:
  1444                           
  1445                           ;MASTERsrc.c: 181:         LCD_Wstring("1.");
  1446  0055  3005               	movlw	low (STR_5| (0+32768))
  1447  0056  00F4               	movwf	LCD_Wstring@v
  1448  0057  3088               	movlw	high (STR_5| (0+32768))
  1449  0058  00F5               	movwf	LCD_Wstring@v+1
  1450  0059  120A  118A  267E  120A  118A  	fcall	_LCD_Wstring
  1451  005E                     l1958:
  1452                           
  1453                           ;MASTERsrc.c: 182:         _delay((unsigned long)((1)*(4000000/4000.0)));
  1454  005E  30C7               	movlw	199
  1455  005F  00F9               	movwf	??_transformADC
  1456  0060                     u2147:
  1457  0060  2861               	nop2
  1458  0061  0BF9               	decfsz	??_transformADC,f
  1459  0062  2860               	goto	u2147
  1460  0063  2864               	nop2
  1461  0064  2865               	nop2
  1462  0065                     l1960:
  1463                           
  1464                           ;MASTERsrc.c: 183:         k = k - 51;
  1465  0065  1283               	bcf	3,5	;RP0=0, select bank0
  1466  0066  1303               	bcf	3,6	;RP1=0, select bank0
  1467  0067  0822               	movf	transformADC@k,w
  1468  0068  3ECD               	addlw	205
  1469  0069  00F9               	movwf	??_transformADC
  1470  006A  0879               	movf	??_transformADC,w
  1471  006B  00A2               	movwf	transformADC@k
  1472                           
  1473                           ;MASTERsrc.c: 184:     }
  1474  006C  28F1               	goto	l1996
  1475  006D                     l1962:
  1476  006D  3067               	movlw	103
  1477  006E  0222               	subwf	transformADC@k,w
  1478  006F  1C03               	skipc
  1479  0070  2872               	goto	u1431
  1480  0071  2873               	goto	u1430
  1481  0072                     u1431:
  1482  0072  289B               	goto	l1974
  1483  0073                     u1430:
  1484  0073                     l1964:
  1485  0073  309A               	movlw	154
  1486  0074  0222               	subwf	transformADC@k,w
  1487  0075  1803               	skipnc
  1488  0076  2878               	goto	u1441
  1489  0077  2879               	goto	u1440
  1490  0078                     u1441:
  1491  0078  289B               	goto	l1974
  1492  0079                     u1440:
  1493  0079                     l1966:
  1494                           
  1495                           ;MASTERsrc.c: 187:         LCD_cursor(1,2);
  1496  0079  3002               	movlw	2
  1497  007A  00F9               	movwf	??_transformADC
  1498  007B  0879               	movf	??_transformADC,w
  1499  007C  00F5               	movwf	LCD_cursor@y
  1500  007D  3001               	movlw	1
  1501  007E  120A  158A  26CE  120A  118A  	fcall	_LCD_cursor
  1502  0083                     l1968:
  1503                           
  1504                           ;MASTERsrc.c: 188:         LCD_Wstring("2.");
  1505  0083  3008               	movlw	low (STR_6| (0+32768))
  1506  0084  00F4               	movwf	LCD_Wstring@v
  1507  0085  3088               	movlw	high (STR_6| (0+32768))
  1508  0086  00F5               	movwf	LCD_Wstring@v+1
  1509  0087  120A  118A  267E  120A  118A  	fcall	_LCD_Wstring
  1510  008C                     l1970:
  1511                           
  1512                           ;MASTERsrc.c: 189:         _delay((unsigned long)((1)*(4000000/4000.0)));
  1513  008C  30C7               	movlw	199
  1514  008D  00F9               	movwf	??_transformADC
  1515  008E                     u2157:
  1516  008E  288F               	nop2
  1517  008F  0BF9               	decfsz	??_transformADC,f
  1518  0090  288E               	goto	u2157
  1519  0091  2892               	nop2
  1520  0092  2893               	nop2
  1521  0093                     l1972:
  1522                           
  1523                           ;MASTERsrc.c: 190:         k = k - 102;
  1524  0093  1283               	bcf	3,5	;RP0=0, select bank0
  1525  0094  1303               	bcf	3,6	;RP1=0, select bank0
  1526  0095  0822               	movf	transformADC@k,w
  1527  0096  3E9A               	addlw	154
  1528  0097  00F9               	movwf	??_transformADC
  1529  0098  0879               	movf	??_transformADC,w
  1530  0099  00A2               	movwf	transformADC@k
  1531                           
  1532                           ;MASTERsrc.c: 192:     }
  1533  009A  28F1               	goto	l1996
  1534  009B                     l1974:
  1535  009B  309A               	movlw	154
  1536  009C  0222               	subwf	transformADC@k,w
  1537  009D  1C03               	skipc
  1538  009E  28A0               	goto	u1451
  1539  009F  28A1               	goto	u1450
  1540  00A0                     u1451:
  1541  00A0  28C9               	goto	l1986
  1542  00A1                     u1450:
  1543  00A1                     l1976:
  1544  00A1  30CD               	movlw	205
  1545  00A2  0222               	subwf	transformADC@k,w
  1546  00A3  1803               	skipnc
  1547  00A4  28A6               	goto	u1461
  1548  00A5  28A7               	goto	u1460
  1549  00A6                     u1461:
  1550  00A6  28C9               	goto	l1986
  1551  00A7                     u1460:
  1552  00A7                     l1978:
  1553                           
  1554                           ;MASTERsrc.c: 195:         LCD_cursor(1,2);
  1555  00A7  3002               	movlw	2
  1556  00A8  00F9               	movwf	??_transformADC
  1557  00A9  0879               	movf	??_transformADC,w
  1558  00AA  00F5               	movwf	LCD_cursor@y
  1559  00AB  3001               	movlw	1
  1560  00AC  120A  158A  26CE  120A  118A  	fcall	_LCD_cursor
  1561  00B1                     l1980:
  1562                           
  1563                           ;MASTERsrc.c: 196:         LCD_Wstring("3.");
  1564  00B1  300B               	movlw	low (STR_7| (0+32768))
  1565  00B2  00F4               	movwf	LCD_Wstring@v
  1566  00B3  3088               	movlw	high (STR_7| (0+32768))
  1567  00B4  00F5               	movwf	LCD_Wstring@v+1
  1568  00B5  120A  118A  267E  120A  118A  	fcall	_LCD_Wstring
  1569  00BA                     l1982:
  1570                           
  1571                           ;MASTERsrc.c: 197:         _delay((unsigned long)((1)*(4000000/4000.0)));
  1572  00BA  30C7               	movlw	199
  1573  00BB  00F9               	movwf	??_transformADC
  1574  00BC                     u2167:
  1575  00BC  28BD               	nop2
  1576  00BD  0BF9               	decfsz	??_transformADC,f
  1577  00BE  28BC               	goto	u2167
  1578  00BF  28C0               	nop2
  1579  00C0  28C1               	nop2
  1580  00C1                     l1984:
  1581                           
  1582                           ;MASTERsrc.c: 198:         k = k - 153;
  1583  00C1  1283               	bcf	3,5	;RP0=0, select bank0
  1584  00C2  1303               	bcf	3,6	;RP1=0, select bank0
  1585  00C3  0822               	movf	transformADC@k,w
  1586  00C4  3E67               	addlw	103
  1587  00C5  00F9               	movwf	??_transformADC
  1588  00C6  0879               	movf	??_transformADC,w
  1589  00C7  00A2               	movwf	transformADC@k
  1590                           
  1591                           ;MASTERsrc.c: 200:     }
  1592  00C8  28F1               	goto	l1996
  1593  00C9                     l1986:
  1594  00C9  30CD               	movlw	205
  1595  00CA  0222               	subwf	transformADC@k,w
  1596  00CB  1C03               	skipc
  1597  00CC  28CE               	goto	u1471
  1598  00CD  28CF               	goto	u1470
  1599  00CE                     u1471:
  1600  00CE  28F1               	goto	l117
  1601  00CF                     u1470:
  1602  00CF                     l1988:
  1603                           
  1604                           ;MASTERsrc.c: 203:         LCD_cursor(1,2);
  1605  00CF  3002               	movlw	2
  1606  00D0  00F9               	movwf	??_transformADC
  1607  00D1  0879               	movf	??_transformADC,w
  1608  00D2  00F5               	movwf	LCD_cursor@y
  1609  00D3  3001               	movlw	1
  1610  00D4  120A  158A  26CE  120A  118A  	fcall	_LCD_cursor
  1611  00D9                     l1990:
  1612                           
  1613                           ;MASTERsrc.c: 204:         LCD_Wstring("4.");
  1614  00D9  300E               	movlw	low (STR_8| (0+32768))
  1615  00DA  00F4               	movwf	LCD_Wstring@v
  1616  00DB  3088               	movlw	high (STR_8| (0+32768))
  1617  00DC  00F5               	movwf	LCD_Wstring@v+1
  1618  00DD  120A  118A  267E  120A  118A  	fcall	_LCD_Wstring
  1619  00E2                     l1992:
  1620                           
  1621                           ;MASTERsrc.c: 205:         _delay((unsigned long)((1)*(4000000/4000.0)));
  1622  00E2  30C7               	movlw	199
  1623  00E3  00F9               	movwf	??_transformADC
  1624  00E4                     u2177:
  1625  00E4  28E5               	nop2
  1626  00E5  0BF9               	decfsz	??_transformADC,f
  1627  00E6  28E4               	goto	u2177
  1628  00E7  28E8               	nop2
  1629  00E8  28E9               	nop2
  1630  00E9                     l1994:
  1631                           
  1632                           ;MASTERsrc.c: 206:         k = k - 204;
  1633  00E9  1283               	bcf	3,5	;RP0=0, select bank0
  1634  00EA  1303               	bcf	3,6	;RP1=0, select bank0
  1635  00EB  0822               	movf	transformADC@k,w
  1636  00EC  3E34               	addlw	52
  1637  00ED  00F9               	movwf	??_transformADC
  1638  00EE  0879               	movf	??_transformADC,w
  1639  00EF  00A2               	movwf	transformADC@k
  1640  00F0  28F1               	goto	l1996
  1641  00F1                     l117:
  1642  00F1                     l1996:
  1643                           
  1644                           ;MASTERsrc.c: 211:     if(k == 1 ){LCD_cursor(3,2); LCD_Wstring("	2	");}
  1645  00F1  1283               	bcf	3,5	;RP0=0, select bank0
  1646  00F2  1303               	bcf	3,6	;RP1=0, select bank0
  1647  00F3  0322               	decf	transformADC@k,w
  1648  00F4  1D03               	btfss	3,2
  1649  00F5  28F7               	goto	u1481
  1650  00F6  28F8               	goto	u1480
  1651  00F7                     u1481:
  1652  00F7  290C               	goto	l2002
  1653  00F8                     u1480:
  1654  00F8                     l1998:
  1655  00F8  3002               	movlw	2
  1656  00F9  00F9               	movwf	??_transformADC
  1657  00FA  0879               	movf	??_transformADC,w
  1658  00FB  00F5               	movwf	LCD_cursor@y
  1659  00FC  3003               	movlw	3
  1660  00FD  120A  158A  26CE  120A  118A  	fcall	_LCD_cursor
  1661  0102                     l2000:
  1662  0102  30E6               	movlw	low (STR_9| (0+32768))
  1663  0103  00F4               	movwf	LCD_Wstring@v
  1664  0104  3087               	movlw	high (STR_9| (0+32768))
  1665  0105  00F5               	movwf	LCD_Wstring@v+1
  1666  0106  120A  118A  267E  120A  118A  	fcall	_LCD_Wstring
  1667  010B  2E06               	goto	l222
  1668  010C                     l2002:
  1669  010C  3002               	movlw	2
  1670  010D  0622               	xorwf	transformADC@k,w
  1671  010E  1D03               	btfss	3,2
  1672  010F  2911               	goto	u1491
  1673  0110  2912               	goto	u1490
  1674  0111                     u1491:
  1675  0111  2926               	goto	l2008
  1676  0112                     u1490:
  1677  0112                     l2004:
  1678  0112  3002               	movlw	2
  1679  0113  00F9               	movwf	??_transformADC
  1680  0114  0879               	movf	??_transformADC,w
  1681  0115  00F5               	movwf	LCD_cursor@y
  1682  0116  3003               	movlw	3
  1683  0117  120A  158A  26CE  120A  118A  	fcall	_LCD_cursor
  1684  011C                     l2006:
  1685  011C  30EA               	movlw	low (STR_10| (0+32768))
  1686  011D  00F4               	movwf	LCD_Wstring@v
  1687  011E  3087               	movlw	high (STR_10| (0+32768))
  1688  011F  00F5               	movwf	LCD_Wstring@v+1
  1689  0120  120A  118A  267E  120A  118A  	fcall	_LCD_Wstring
  1690  0125  2E06               	goto	l222
  1691  0126                     l2008:
  1692  0126  3003               	movlw	3
  1693  0127  0622               	xorwf	transformADC@k,w
  1694  0128  1D03               	btfss	3,2
  1695  0129  292B               	goto	u1501
  1696  012A  292C               	goto	u1500
  1697  012B                     u1501:
  1698  012B  2940               	goto	l2014
  1699  012C                     u1500:
  1700  012C                     l2010:
  1701  012C  3002               	movlw	2
  1702  012D  00F9               	movwf	??_transformADC
  1703  012E  0879               	movf	??_transformADC,w
  1704  012F  00F5               	movwf	LCD_cursor@y
  1705  0130  3003               	movlw	3
  1706  0131  120A  158A  26CE  120A  118A  	fcall	_LCD_cursor
  1707  0136                     l2012:
  1708  0136  30EE               	movlw	low (STR_11| (0+32768))
  1709  0137  00F4               	movwf	LCD_Wstring@v
  1710  0138  3087               	movlw	high (STR_11| (0+32768))
  1711  0139  00F5               	movwf	LCD_Wstring@v+1
  1712  013A  120A  118A  267E  120A  118A  	fcall	_LCD_Wstring
  1713  013F  2E06               	goto	l222
  1714  0140                     l2014:
  1715  0140  3004               	movlw	4
  1716  0141  0622               	xorwf	transformADC@k,w
  1717  0142  1D03               	btfss	3,2
  1718  0143  2945               	goto	u1511
  1719  0144  2946               	goto	u1510
  1720  0145                     u1511:
  1721  0145  295A               	goto	l2020
  1722  0146                     u1510:
  1723  0146                     l2016:
  1724  0146  3002               	movlw	2
  1725  0147  00F9               	movwf	??_transformADC
  1726  0148  0879               	movf	??_transformADC,w
  1727  0149  00F5               	movwf	LCD_cursor@y
  1728  014A  3003               	movlw	3
  1729  014B  120A  158A  26CE  120A  118A  	fcall	_LCD_cursor
  1730  0150                     l2018:
  1731  0150  30F2               	movlw	low (STR_12| (0+32768))
  1732  0151  00F4               	movwf	LCD_Wstring@v
  1733  0152  3087               	movlw	high (STR_12| (0+32768))
  1734  0153  00F5               	movwf	LCD_Wstring@v+1
  1735  0154  120A  118A  267E  120A  118A  	fcall	_LCD_Wstring
  1736  0159  2E06               	goto	l222
  1737  015A                     l2020:
  1738  015A  3005               	movlw	5
  1739  015B  0622               	xorwf	transformADC@k,w
  1740  015C  1D03               	btfss	3,2
  1741  015D  295F               	goto	u1521
  1742  015E  2960               	goto	u1520
  1743  015F                     u1521:
  1744  015F  2974               	goto	l2026
  1745  0160                     u1520:
  1746  0160                     l2022:
  1747  0160  3002               	movlw	2
  1748  0161  00F9               	movwf	??_transformADC
  1749  0162  0879               	movf	??_transformADC,w
  1750  0163  00F5               	movwf	LCD_cursor@y
  1751  0164  3003               	movlw	3
  1752  0165  120A  158A  26CE  120A  118A  	fcall	_LCD_cursor
  1753  016A                     l2024:
  1754  016A  3000               	movlw	low (STR_13| (0+32768))
  1755  016B  00F4               	movwf	LCD_Wstring@v
  1756  016C  3087               	movlw	high (STR_13| (0+32768))
  1757  016D  00F5               	movwf	LCD_Wstring@v+1
  1758  016E  120A  118A  267E  120A  118A  	fcall	_LCD_Wstring
  1759  0173  2E06               	goto	l222
  1760  0174                     l2026:
  1761  0174  3006               	movlw	6
  1762  0175  0622               	xorwf	transformADC@k,w
  1763  0176  1D03               	btfss	3,2
  1764  0177  2979               	goto	u1531
  1765  0178  297A               	goto	u1530
  1766  0179                     u1531:
  1767  0179  298E               	goto	l2032
  1768  017A                     u1530:
  1769  017A                     l2028:
  1770  017A  3002               	movlw	2
  1771  017B  00F9               	movwf	??_transformADC
  1772  017C  0879               	movf	??_transformADC,w
  1773  017D  00F5               	movwf	LCD_cursor@y
  1774  017E  3003               	movlw	3
  1775  017F  120A  158A  26CE  120A  118A  	fcall	_LCD_cursor
  1776  0184                     l2030:
  1777  0184  302D               	movlw	low (STR_14| (0+32768))
  1778  0185  00F4               	movwf	LCD_Wstring@v
  1779  0186  3087               	movlw	high (STR_14| (0+32768))
  1780  0187  00F5               	movwf	LCD_Wstring@v+1
  1781  0188  120A  118A  267E  120A  118A  	fcall	_LCD_Wstring
  1782  018D  2E06               	goto	l222
  1783  018E                     l2032:
  1784  018E  3007               	movlw	7
  1785  018F  0622               	xorwf	transformADC@k,w
  1786  0190  1D03               	btfss	3,2
  1787  0191  2993               	goto	u1541
  1788  0192  2994               	goto	u1540
  1789  0193                     u1541:
  1790  0193  29A8               	goto	l2038
  1791  0194                     u1540:
  1792  0194                     l2034:
  1793  0194  3002               	movlw	2
  1794  0195  00F9               	movwf	??_transformADC
  1795  0196  0879               	movf	??_transformADC,w
  1796  0197  00F5               	movwf	LCD_cursor@y
  1797  0198  3003               	movlw	3
  1798  0199  120A  158A  26CE  120A  118A  	fcall	_LCD_cursor
  1799  019E                     l2036:
  1800  019E  305A               	movlw	low (STR_15| (0+32768))
  1801  019F  00F4               	movwf	LCD_Wstring@v
  1802  01A0  3087               	movlw	high (STR_15| (0+32768))
  1803  01A1  00F5               	movwf	LCD_Wstring@v+1
  1804  01A2  120A  118A  267E  120A  118A  	fcall	_LCD_Wstring
  1805  01A7  2E06               	goto	l222
  1806  01A8                     l2038:
  1807  01A8  3008               	movlw	8
  1808  01A9  0622               	xorwf	transformADC@k,w
  1809  01AA  1D03               	btfss	3,2
  1810  01AB  29AD               	goto	u1551
  1811  01AC  29AE               	goto	u1550
  1812  01AD                     u1551:
  1813  01AD  29C2               	goto	l2044
  1814  01AE                     u1550:
  1815  01AE                     l2040:
  1816  01AE  3002               	movlw	2
  1817  01AF  00F9               	movwf	??_transformADC
  1818  01B0  0879               	movf	??_transformADC,w
  1819  01B1  00F5               	movwf	LCD_cursor@y
  1820  01B2  3003               	movlw	3
  1821  01B3  120A  158A  26CE  120A  118A  	fcall	_LCD_cursor
  1822  01B8                     l2042:
  1823  01B8  3087               	movlw	low (STR_16| (0+32768))
  1824  01B9  00F4               	movwf	LCD_Wstring@v
  1825  01BA  3087               	movlw	high (STR_16| (0+32768))
  1826  01BB  00F5               	movwf	LCD_Wstring@v+1
  1827  01BC  120A  118A  267E  120A  118A  	fcall	_LCD_Wstring
  1828  01C1  2E06               	goto	l222
  1829  01C2                     l2044:
  1830  01C2  3009               	movlw	9
  1831  01C3  0622               	xorwf	transformADC@k,w
  1832  01C4  1D03               	btfss	3,2
  1833  01C5  29C7               	goto	u1561
  1834  01C6  29C8               	goto	u1560
  1835  01C7                     u1561:
  1836  01C7  29DC               	goto	l2050
  1837  01C8                     u1560:
  1838  01C8                     l2046:
  1839  01C8  3002               	movlw	2
  1840  01C9  00F9               	movwf	??_transformADC
  1841  01CA  0879               	movf	??_transformADC,w
  1842  01CB  00F5               	movwf	LCD_cursor@y
  1843  01CC  3003               	movlw	3
  1844  01CD  120A  158A  26CE  120A  118A  	fcall	_LCD_cursor
  1845  01D2                     l2048:
  1846  01D2  30B4               	movlw	low (STR_17| (0+32768))
  1847  01D3  00F4               	movwf	LCD_Wstring@v
  1848  01D4  3087               	movlw	high (STR_17| (0+32768))
  1849  01D5  00F5               	movwf	LCD_Wstring@v+1
  1850  01D6  120A  118A  267E  120A  118A  	fcall	_LCD_Wstring
  1851  01DB  2E06               	goto	l222
  1852  01DC                     l2050:
  1853  01DC  300A               	movlw	10
  1854  01DD  0622               	xorwf	transformADC@k,w
  1855  01DE  1D03               	btfss	3,2
  1856  01DF  29E1               	goto	u1571
  1857  01E0  29E2               	goto	u1570
  1858  01E1                     u1571:
  1859  01E1  29F6               	goto	l2056
  1860  01E2                     u1570:
  1861  01E2                     l2052:
  1862  01E2  3002               	movlw	2
  1863  01E3  00F9               	movwf	??_transformADC
  1864  01E4  0879               	movf	??_transformADC,w
  1865  01E5  00F5               	movwf	LCD_cursor@y
  1866  01E6  3003               	movlw	3
  1867  01E7  120A  158A  26CE  120A  118A  	fcall	_LCD_cursor
  1868  01EC                     l2054:
  1869  01EC  3005               	movlw	low (STR_18| (0+32768))
  1870  01ED  00F4               	movwf	LCD_Wstring@v
  1871  01EE  3087               	movlw	high (STR_18| (0+32768))
  1872  01EF  00F5               	movwf	LCD_Wstring@v+1
  1873  01F0  120A  118A  267E  120A  118A  	fcall	_LCD_Wstring
  1874  01F5  2E06               	goto	l222
  1875  01F6                     l2056:
  1876  01F6  300B               	movlw	11
  1877  01F7  0622               	xorwf	transformADC@k,w
  1878  01F8  1D03               	btfss	3,2
  1879  01F9  29FB               	goto	u1581
  1880  01FA  29FC               	goto	u1580
  1881  01FB                     u1581:
  1882  01FB  2A10               	goto	l2062
  1883  01FC                     u1580:
  1884  01FC                     l2058:
  1885  01FC  3002               	movlw	2
  1886  01FD  00F9               	movwf	??_transformADC
  1887  01FE  0879               	movf	??_transformADC,w
  1888  01FF  00F5               	movwf	LCD_cursor@y
  1889  0200  3003               	movlw	3
  1890  0201  120A  158A  26CE  120A  118A  	fcall	_LCD_cursor
  1891  0206                     l2060:
  1892  0206  3032               	movlw	low (STR_19| (0+32768))
  1893  0207  00F4               	movwf	LCD_Wstring@v
  1894  0208  3087               	movlw	high (STR_19| (0+32768))
  1895  0209  00F5               	movwf	LCD_Wstring@v+1
  1896  020A  120A  118A  267E  120A  118A  	fcall	_LCD_Wstring
  1897  020F  2E06               	goto	l222
  1898  0210                     l2062:
  1899  0210  300C               	movlw	12
  1900  0211  0622               	xorwf	transformADC@k,w
  1901  0212  1D03               	btfss	3,2
  1902  0213  2A15               	goto	u1591
  1903  0214  2A16               	goto	u1590
  1904  0215                     u1591:
  1905  0215  2A2A               	goto	l2068
  1906  0216                     u1590:
  1907  0216                     l2064:
  1908  0216  3002               	movlw	2
  1909  0217  00F9               	movwf	??_transformADC
  1910  0218  0879               	movf	??_transformADC,w
  1911  0219  00F5               	movwf	LCD_cursor@y
  1912  021A  3003               	movlw	3
  1913  021B  120A  158A  26CE  120A  118A  	fcall	_LCD_cursor
  1914  0220                     l2066:
  1915  0220  305F               	movlw	low (STR_20| (0+32768))
  1916  0221  00F4               	movwf	LCD_Wstring@v
  1917  0222  3087               	movlw	high (STR_20| (0+32768))
  1918  0223  00F5               	movwf	LCD_Wstring@v+1
  1919  0224  120A  118A  267E  120A  118A  	fcall	_LCD_Wstring
  1920  0229  2E06               	goto	l222
  1921  022A                     l2068:
  1922  022A  300D               	movlw	13
  1923  022B  0622               	xorwf	transformADC@k,w
  1924  022C  1D03               	btfss	3,2
  1925  022D  2A2F               	goto	u1601
  1926  022E  2A30               	goto	u1600
  1927  022F                     u1601:
  1928  022F  2A44               	goto	l2074
  1929  0230                     u1600:
  1930  0230                     l2070:
  1931  0230  3002               	movlw	2
  1932  0231  00F9               	movwf	??_transformADC
  1933  0232  0879               	movf	??_transformADC,w
  1934  0233  00F5               	movwf	LCD_cursor@y
  1935  0234  3003               	movlw	3
  1936  0235  120A  158A  26CE  120A  118A  	fcall	_LCD_cursor
  1937  023A                     l2072:
  1938  023A  308C               	movlw	low (STR_21| (0+32768))
  1939  023B  00F4               	movwf	LCD_Wstring@v
  1940  023C  3087               	movlw	high (STR_21| (0+32768))
  1941  023D  00F5               	movwf	LCD_Wstring@v+1
  1942  023E  120A  118A  267E  120A  118A  	fcall	_LCD_Wstring
  1943  0243  2E06               	goto	l222
  1944  0244                     l2074:
  1945  0244  300E               	movlw	14
  1946  0245  0622               	xorwf	transformADC@k,w
  1947  0246  1D03               	btfss	3,2
  1948  0247  2A49               	goto	u1611
  1949  0248  2A4A               	goto	u1610
  1950  0249                     u1611:
  1951  0249  2A5E               	goto	l2080
  1952  024A                     u1610:
  1953  024A                     l2076:
  1954  024A  3002               	movlw	2
  1955  024B  00F9               	movwf	??_transformADC
  1956  024C  0879               	movf	??_transformADC,w
  1957  024D  00F5               	movwf	LCD_cursor@y
  1958  024E  3003               	movlw	3
  1959  024F  120A  158A  26CE  120A  118A  	fcall	_LCD_cursor
  1960  0254                     l2078:
  1961  0254  30B9               	movlw	low (STR_22| (0+32768))
  1962  0255  00F4               	movwf	LCD_Wstring@v
  1963  0256  3087               	movlw	high (STR_22| (0+32768))
  1964  0257  00F5               	movwf	LCD_Wstring@v+1
  1965  0258  120A  118A  267E  120A  118A  	fcall	_LCD_Wstring
  1966  025D  2E06               	goto	l222
  1967  025E                     l2080:
  1968  025E  300F               	movlw	15
  1969  025F  0622               	xorwf	transformADC@k,w
  1970  0260  1D03               	btfss	3,2
  1971  0261  2A63               	goto	u1621
  1972  0262  2A64               	goto	u1620
  1973  0263                     u1621:
  1974  0263  2A78               	goto	l2086
  1975  0264                     u1620:
  1976  0264                     l2082:
  1977  0264  3002               	movlw	2
  1978  0265  00F9               	movwf	??_transformADC
  1979  0266  0879               	movf	??_transformADC,w
  1980  0267  00F5               	movwf	LCD_cursor@y
  1981  0268  3003               	movlw	3
  1982  0269  120A  158A  26CE  120A  118A  	fcall	_LCD_cursor
  1983  026E                     l2084:
  1984  026E  300A               	movlw	low (STR_23| (0+32768))
  1985  026F  00F4               	movwf	LCD_Wstring@v
  1986  0270  3087               	movlw	high (STR_23| (0+32768))
  1987  0271  00F5               	movwf	LCD_Wstring@v+1
  1988  0272  120A  118A  267E  120A  118A  	fcall	_LCD_Wstring
  1989  0277  2E06               	goto	l222
  1990  0278                     l2086:
  1991  0278  3010               	movlw	16
  1992  0279  0622               	xorwf	transformADC@k,w
  1993  027A  1D03               	btfss	3,2
  1994  027B  2A7D               	goto	u1631
  1995  027C  2A7E               	goto	u1630
  1996  027D                     u1631:
  1997  027D  2A92               	goto	l2092
  1998  027E                     u1630:
  1999  027E                     l2088:
  2000  027E  3002               	movlw	2
  2001  027F  00F9               	movwf	??_transformADC
  2002  0280  0879               	movf	??_transformADC,w
  2003  0281  00F5               	movwf	LCD_cursor@y
  2004  0282  3003               	movlw	3
  2005  0283  120A  158A  26CE  120A  118A  	fcall	_LCD_cursor
  2006  0288                     l2090:
  2007  0288  3037               	movlw	low (STR_24| (0+32768))
  2008  0289  00F4               	movwf	LCD_Wstring@v
  2009  028A  3087               	movlw	high (STR_24| (0+32768))
  2010  028B  00F5               	movwf	LCD_Wstring@v+1
  2011  028C  120A  118A  267E  120A  118A  	fcall	_LCD_Wstring
  2012  0291  2E06               	goto	l222
  2013  0292                     l2092:
  2014  0292  3011               	movlw	17
  2015  0293  0622               	xorwf	transformADC@k,w
  2016  0294  1D03               	btfss	3,2
  2017  0295  2A97               	goto	u1641
  2018  0296  2A98               	goto	u1640
  2019  0297                     u1641:
  2020  0297  2AAC               	goto	l2098
  2021  0298                     u1640:
  2022  0298                     l2094:
  2023  0298  3002               	movlw	2
  2024  0299  00F9               	movwf	??_transformADC
  2025  029A  0879               	movf	??_transformADC,w
  2026  029B  00F5               	movwf	LCD_cursor@y
  2027  029C  3003               	movlw	3
  2028  029D  120A  158A  26CE  120A  118A  	fcall	_LCD_cursor
  2029  02A2                     l2096:
  2030  02A2  3064               	movlw	low (STR_25| (0+32768))
  2031  02A3  00F4               	movwf	LCD_Wstring@v
  2032  02A4  3087               	movlw	high (STR_25| (0+32768))
  2033  02A5  00F5               	movwf	LCD_Wstring@v+1
  2034  02A6  120A  118A  267E  120A  118A  	fcall	_LCD_Wstring
  2035  02AB  2E06               	goto	l222
  2036  02AC                     l2098:
  2037  02AC  3012               	movlw	18
  2038  02AD  0622               	xorwf	transformADC@k,w
  2039  02AE  1D03               	btfss	3,2
  2040  02AF  2AB1               	goto	u1651
  2041  02B0  2AB2               	goto	u1650
  2042  02B1                     u1651:
  2043  02B1  2AC6               	goto	l2104
  2044  02B2                     u1650:
  2045  02B2                     l2100:
  2046  02B2  3002               	movlw	2
  2047  02B3  00F9               	movwf	??_transformADC
  2048  02B4  0879               	movf	??_transformADC,w
  2049  02B5  00F5               	movwf	LCD_cursor@y
  2050  02B6  3003               	movlw	3
  2051  02B7  120A  158A  26CE  120A  118A  	fcall	_LCD_cursor
  2052  02BC                     l2102:
  2053  02BC  3091               	movlw	low (STR_26| (0+32768))
  2054  02BD  00F4               	movwf	LCD_Wstring@v
  2055  02BE  3087               	movlw	high (STR_26| (0+32768))
  2056  02BF  00F5               	movwf	LCD_Wstring@v+1
  2057  02C0  120A  118A  267E  120A  118A  	fcall	_LCD_Wstring
  2058  02C5  2E06               	goto	l222
  2059  02C6                     l2104:
  2060  02C6  3013               	movlw	19
  2061  02C7  0622               	xorwf	transformADC@k,w
  2062  02C8  1D03               	btfss	3,2
  2063  02C9  2ACB               	goto	u1661
  2064  02CA  2ACC               	goto	u1660
  2065  02CB                     u1661:
  2066  02CB  2AE0               	goto	l2110
  2067  02CC                     u1660:
  2068  02CC                     l2106:
  2069  02CC  3002               	movlw	2
  2070  02CD  00F9               	movwf	??_transformADC
  2071  02CE  0879               	movf	??_transformADC,w
  2072  02CF  00F5               	movwf	LCD_cursor@y
  2073  02D0  3003               	movlw	3
  2074  02D1  120A  158A  26CE  120A  118A  	fcall	_LCD_cursor
  2075  02D6                     l2108:
  2076  02D6  30BE               	movlw	low (STR_27| (0+32768))
  2077  02D7  00F4               	movwf	LCD_Wstring@v
  2078  02D8  3087               	movlw	high (STR_27| (0+32768))
  2079  02D9  00F5               	movwf	LCD_Wstring@v+1
  2080  02DA  120A  118A  267E  120A  118A  	fcall	_LCD_Wstring
  2081  02DF  2E06               	goto	l222
  2082  02E0                     l2110:
  2083  02E0  3014               	movlw	20
  2084  02E1  0622               	xorwf	transformADC@k,w
  2085  02E2  1D03               	btfss	3,2
  2086  02E3  2AE5               	goto	u1671
  2087  02E4  2AE6               	goto	u1670
  2088  02E5                     u1671:
  2089  02E5  2AFA               	goto	l2116
  2090  02E6                     u1670:
  2091  02E6                     l2112:
  2092  02E6  3002               	movlw	2
  2093  02E7  00F9               	movwf	??_transformADC
  2094  02E8  0879               	movf	??_transformADC,w
  2095  02E9  00F5               	movwf	LCD_cursor@y
  2096  02EA  3003               	movlw	3
  2097  02EB  120A  158A  26CE  120A  118A  	fcall	_LCD_cursor
  2098  02F0                     l2114:
  2099  02F0  300F               	movlw	low (STR_28| (0+32768))
  2100  02F1  00F4               	movwf	LCD_Wstring@v
  2101  02F2  3087               	movlw	high (STR_28| (0+32768))
  2102  02F3  00F5               	movwf	LCD_Wstring@v+1
  2103  02F4  120A  118A  267E  120A  118A  	fcall	_LCD_Wstring
  2104  02F9  2E06               	goto	l222
  2105  02FA                     l2116:
  2106  02FA  3015               	movlw	21
  2107  02FB  0622               	xorwf	transformADC@k,w
  2108  02FC  1D03               	btfss	3,2
  2109  02FD  2AFF               	goto	u1681
  2110  02FE  2B00               	goto	u1680
  2111  02FF                     u1681:
  2112  02FF  2B14               	goto	l2122
  2113  0300                     u1680:
  2114  0300                     l2118:
  2115  0300  3002               	movlw	2
  2116  0301  00F9               	movwf	??_transformADC
  2117  0302  0879               	movf	??_transformADC,w
  2118  0303  00F5               	movwf	LCD_cursor@y
  2119  0304  3003               	movlw	3
  2120  0305  120A  158A  26CE  120A  118A  	fcall	_LCD_cursor
  2121  030A                     l2120:
  2122  030A  303C               	movlw	low (STR_29| (0+32768))
  2123  030B  00F4               	movwf	LCD_Wstring@v
  2124  030C  3087               	movlw	high (STR_29| (0+32768))
  2125  030D  00F5               	movwf	LCD_Wstring@v+1
  2126  030E  120A  118A  267E  120A  118A  	fcall	_LCD_Wstring
  2127  0313  2E06               	goto	l222
  2128  0314                     l2122:
  2129  0314  3016               	movlw	22
  2130  0315  0622               	xorwf	transformADC@k,w
  2131  0316  1D03               	btfss	3,2
  2132  0317  2B19               	goto	u1691
  2133  0318  2B1A               	goto	u1690
  2134  0319                     u1691:
  2135  0319  2B2E               	goto	l2128
  2136  031A                     u1690:
  2137  031A                     l2124:
  2138  031A  3002               	movlw	2
  2139  031B  00F9               	movwf	??_transformADC
  2140  031C  0879               	movf	??_transformADC,w
  2141  031D  00F5               	movwf	LCD_cursor@y
  2142  031E  3003               	movlw	3
  2143  031F  120A  158A  26CE  120A  118A  	fcall	_LCD_cursor
  2144  0324                     l2126:
  2145  0324  3069               	movlw	low (STR_30| (0+32768))
  2146  0325  00F4               	movwf	LCD_Wstring@v
  2147  0326  3087               	movlw	high (STR_30| (0+32768))
  2148  0327  00F5               	movwf	LCD_Wstring@v+1
  2149  0328  120A  118A  267E  120A  118A  	fcall	_LCD_Wstring
  2150  032D  2E06               	goto	l222
  2151  032E                     l2128:
  2152  032E  3017               	movlw	23
  2153  032F  0622               	xorwf	transformADC@k,w
  2154  0330  1D03               	btfss	3,2
  2155  0331  2B33               	goto	u1701
  2156  0332  2B34               	goto	u1700
  2157  0333                     u1701:
  2158  0333  2B48               	goto	l2134
  2159  0334                     u1700:
  2160  0334                     l2130:
  2161  0334  3002               	movlw	2
  2162  0335  00F9               	movwf	??_transformADC
  2163  0336  0879               	movf	??_transformADC,w
  2164  0337  00F5               	movwf	LCD_cursor@y
  2165  0338  3003               	movlw	3
  2166  0339  120A  158A  26CE  120A  118A  	fcall	_LCD_cursor
  2167  033E                     l2132:
  2168  033E  3096               	movlw	low (STR_31| (0+32768))
  2169  033F  00F4               	movwf	LCD_Wstring@v
  2170  0340  3087               	movlw	high (STR_31| (0+32768))
  2171  0341  00F5               	movwf	LCD_Wstring@v+1
  2172  0342  120A  118A  267E  120A  118A  	fcall	_LCD_Wstring
  2173  0347  2E06               	goto	l222
  2174  0348                     l2134:
  2175  0348  3018               	movlw	24
  2176  0349  0622               	xorwf	transformADC@k,w
  2177  034A  1D03               	btfss	3,2
  2178  034B  2B4D               	goto	u1711
  2179  034C  2B4E               	goto	u1710
  2180  034D                     u1711:
  2181  034D  2B62               	goto	l2140
  2182  034E                     u1710:
  2183  034E                     l2136:
  2184  034E  3002               	movlw	2
  2185  034F  00F9               	movwf	??_transformADC
  2186  0350  0879               	movf	??_transformADC,w
  2187  0351  00F5               	movwf	LCD_cursor@y
  2188  0352  3003               	movlw	3
  2189  0353  120A  158A  26CE  120A  118A  	fcall	_LCD_cursor
  2190  0358                     l2138:
  2191  0358  30C3               	movlw	low (STR_32| (0+32768))
  2192  0359  00F4               	movwf	LCD_Wstring@v
  2193  035A  3087               	movlw	high (STR_32| (0+32768))
  2194  035B  00F5               	movwf	LCD_Wstring@v+1
  2195  035C  120A  118A  267E  120A  118A  	fcall	_LCD_Wstring
  2196  0361  2E06               	goto	l222
  2197  0362                     l2140:
  2198  0362  3019               	movlw	25
  2199  0363  0622               	xorwf	transformADC@k,w
  2200  0364  1D03               	btfss	3,2
  2201  0365  2B67               	goto	u1721
  2202  0366  2B68               	goto	u1720
  2203  0367                     u1721:
  2204  0367  2B7C               	goto	l2146
  2205  0368                     u1720:
  2206  0368                     l2142:
  2207  0368  3002               	movlw	2
  2208  0369  00F9               	movwf	??_transformADC
  2209  036A  0879               	movf	??_transformADC,w
  2210  036B  00F5               	movwf	LCD_cursor@y
  2211  036C  3003               	movlw	3
  2212  036D  120A  158A  26CE  120A  118A  	fcall	_LCD_cursor
  2213  0372                     l2144:
  2214  0372  3014               	movlw	low (STR_33| (0+32768))
  2215  0373  00F4               	movwf	LCD_Wstring@v
  2216  0374  3087               	movlw	high (STR_33| (0+32768))
  2217  0375  00F5               	movwf	LCD_Wstring@v+1
  2218  0376  120A  118A  267E  120A  118A  	fcall	_LCD_Wstring
  2219  037B  2E06               	goto	l222
  2220  037C                     l2146:
  2221  037C  301A               	movlw	26
  2222  037D  0622               	xorwf	transformADC@k,w
  2223  037E  1D03               	btfss	3,2
  2224  037F  2B81               	goto	u1731
  2225  0380  2B82               	goto	u1730
  2226  0381                     u1731:
  2227  0381  2B96               	goto	l2152
  2228  0382                     u1730:
  2229  0382                     l2148:
  2230  0382  3002               	movlw	2
  2231  0383  00F9               	movwf	??_transformADC
  2232  0384  0879               	movf	??_transformADC,w
  2233  0385  00F5               	movwf	LCD_cursor@y
  2234  0386  3003               	movlw	3
  2235  0387  120A  158A  26CE  120A  118A  	fcall	_LCD_cursor
  2236  038C                     l2150:
  2237  038C  3041               	movlw	low (STR_34| (0+32768))
  2238  038D  00F4               	movwf	LCD_Wstring@v
  2239  038E  3087               	movlw	high (STR_34| (0+32768))
  2240  038F  00F5               	movwf	LCD_Wstring@v+1
  2241  0390  120A  118A  267E  120A  118A  	fcall	_LCD_Wstring
  2242  0395  2E06               	goto	l222
  2243  0396                     l2152:
  2244  0396  301B               	movlw	27
  2245  0397  0622               	xorwf	transformADC@k,w
  2246  0398  1D03               	btfss	3,2
  2247  0399  2B9B               	goto	u1741
  2248  039A  2B9C               	goto	u1740
  2249  039B                     u1741:
  2250  039B  2BB0               	goto	l2158
  2251  039C                     u1740:
  2252  039C                     l2154:
  2253  039C  3002               	movlw	2
  2254  039D  00F9               	movwf	??_transformADC
  2255  039E  0879               	movf	??_transformADC,w
  2256  039F  00F5               	movwf	LCD_cursor@y
  2257  03A0  3003               	movlw	3
  2258  03A1  120A  158A  26CE  120A  118A  	fcall	_LCD_cursor
  2259  03A6                     l2156:
  2260  03A6  306E               	movlw	low (STR_35| (0+32768))
  2261  03A7  00F4               	movwf	LCD_Wstring@v
  2262  03A8  3087               	movlw	high (STR_35| (0+32768))
  2263  03A9  00F5               	movwf	LCD_Wstring@v+1
  2264  03AA  120A  118A  267E  120A  118A  	fcall	_LCD_Wstring
  2265  03AF  2E06               	goto	l222
  2266  03B0                     l2158:
  2267  03B0  301C               	movlw	28
  2268  03B1  0622               	xorwf	transformADC@k,w
  2269  03B2  1D03               	btfss	3,2
  2270  03B3  2BB5               	goto	u1751
  2271  03B4  2BB6               	goto	u1750
  2272  03B5                     u1751:
  2273  03B5  2BCA               	goto	l2164
  2274  03B6                     u1750:
  2275  03B6                     l2160:
  2276  03B6  3002               	movlw	2
  2277  03B7  00F9               	movwf	??_transformADC
  2278  03B8  0879               	movf	??_transformADC,w
  2279  03B9  00F5               	movwf	LCD_cursor@y
  2280  03BA  3003               	movlw	3
  2281  03BB  120A  158A  26CE  120A  118A  	fcall	_LCD_cursor
  2282  03C0                     l2162:
  2283  03C0  309B               	movlw	low (STR_36| (0+32768))
  2284  03C1  00F4               	movwf	LCD_Wstring@v
  2285  03C2  3087               	movlw	high (STR_36| (0+32768))
  2286  03C3  00F5               	movwf	LCD_Wstring@v+1
  2287  03C4  120A  118A  267E  120A  118A  	fcall	_LCD_Wstring
  2288  03C9  2E06               	goto	l222
  2289  03CA                     l2164:
  2290  03CA  301D               	movlw	29
  2291  03CB  0622               	xorwf	transformADC@k,w
  2292  03CC  1D03               	btfss	3,2
  2293  03CD  2BCF               	goto	u1761
  2294  03CE  2BD0               	goto	u1760
  2295  03CF                     u1761:
  2296  03CF  2BE4               	goto	l2170
  2297  03D0                     u1760:
  2298  03D0                     l2166:
  2299  03D0  3002               	movlw	2
  2300  03D1  00F9               	movwf	??_transformADC
  2301  03D2  0879               	movf	??_transformADC,w
  2302  03D3  00F5               	movwf	LCD_cursor@y
  2303  03D4  3003               	movlw	3
  2304  03D5  120A  158A  26CE  120A  118A  	fcall	_LCD_cursor
  2305  03DA                     l2168:
  2306  03DA  30C8               	movlw	low (STR_37| (0+32768))
  2307  03DB  00F4               	movwf	LCD_Wstring@v
  2308  03DC  3087               	movlw	high (STR_37| (0+32768))
  2309  03DD  00F5               	movwf	LCD_Wstring@v+1
  2310  03DE  120A  118A  267E  120A  118A  	fcall	_LCD_Wstring
  2311  03E3  2E06               	goto	l222
  2312  03E4                     l2170:
  2313  03E4  301E               	movlw	30
  2314  03E5  0622               	xorwf	transformADC@k,w
  2315  03E6  1D03               	btfss	3,2
  2316  03E7  2BE9               	goto	u1771
  2317  03E8  2BEA               	goto	u1770
  2318  03E9                     u1771:
  2319  03E9  2BFE               	goto	l2176
  2320  03EA                     u1770:
  2321  03EA                     l2172:
  2322  03EA  3002               	movlw	2
  2323  03EB  00F9               	movwf	??_transformADC
  2324  03EC  0879               	movf	??_transformADC,w
  2325  03ED  00F5               	movwf	LCD_cursor@y
  2326  03EE  3003               	movlw	3
  2327  03EF  120A  158A  26CE  120A  118A  	fcall	_LCD_cursor
  2328  03F4                     l2174:
  2329  03F4  3019               	movlw	low (STR_38| (0+32768))
  2330  03F5  00F4               	movwf	LCD_Wstring@v
  2331  03F6  3087               	movlw	high (STR_38| (0+32768))
  2332  03F7  00F5               	movwf	LCD_Wstring@v+1
  2333  03F8  120A  118A  267E  120A  118A  	fcall	_LCD_Wstring
  2334  03FD  2E06               	goto	l222
  2335  03FE                     l2176:
  2336  03FE  301F               	movlw	31
  2337  03FF  0622               	xorwf	transformADC@k,w
  2338  0400  1D03               	btfss	3,2
  2339  0401  2C03               	goto	u1781
  2340  0402  2C04               	goto	u1780
  2341  0403                     u1781:
  2342  0403  2C18               	goto	l2182
  2343  0404                     u1780:
  2344  0404                     l2178:
  2345  0404  3002               	movlw	2
  2346  0405  00F9               	movwf	??_transformADC
  2347  0406  0879               	movf	??_transformADC,w
  2348  0407  00F5               	movwf	LCD_cursor@y
  2349  0408  3003               	movlw	3
  2350  0409  120A  158A  26CE  120A  118A  	fcall	_LCD_cursor
  2351  040E                     l2180:
  2352  040E  3046               	movlw	low (STR_39| (0+32768))
  2353  040F  00F4               	movwf	LCD_Wstring@v
  2354  0410  3087               	movlw	high (STR_39| (0+32768))
  2355  0411  00F5               	movwf	LCD_Wstring@v+1
  2356  0412  120A  118A  267E  120A  118A  	fcall	_LCD_Wstring
  2357  0417  2E06               	goto	l222
  2358  0418                     l2182:
  2359  0418  3020               	movlw	32
  2360  0419  0622               	xorwf	transformADC@k,w
  2361  041A  1D03               	btfss	3,2
  2362  041B  2C1D               	goto	u1791
  2363  041C  2C1E               	goto	u1790
  2364  041D                     u1791:
  2365  041D  2C32               	goto	l2188
  2366  041E                     u1790:
  2367  041E                     l2184:
  2368  041E  3002               	movlw	2
  2369  041F  00F9               	movwf	??_transformADC
  2370  0420  0879               	movf	??_transformADC,w
  2371  0421  00F5               	movwf	LCD_cursor@y
  2372  0422  3003               	movlw	3
  2373  0423  120A  158A  26CE  120A  118A  	fcall	_LCD_cursor
  2374  0428                     l2186:
  2375  0428  3073               	movlw	low (STR_40| (0+32768))
  2376  0429  00F4               	movwf	LCD_Wstring@v
  2377  042A  3087               	movlw	high (STR_40| (0+32768))
  2378  042B  00F5               	movwf	LCD_Wstring@v+1
  2379  042C  120A  118A  267E  120A  118A  	fcall	_LCD_Wstring
  2380  0431  2E06               	goto	l222
  2381  0432                     l2188:
  2382  0432  3021               	movlw	33
  2383  0433  0622               	xorwf	transformADC@k,w
  2384  0434  1D03               	btfss	3,2
  2385  0435  2C37               	goto	u1801
  2386  0436  2C38               	goto	u1800
  2387  0437                     u1801:
  2388  0437  2C4C               	goto	l2194
  2389  0438                     u1800:
  2390  0438                     l2190:
  2391  0438  3002               	movlw	2
  2392  0439  00F9               	movwf	??_transformADC
  2393  043A  0879               	movf	??_transformADC,w
  2394  043B  00F5               	movwf	LCD_cursor@y
  2395  043C  3003               	movlw	3
  2396  043D  120A  158A  26CE  120A  118A  	fcall	_LCD_cursor
  2397  0442                     l2192:
  2398  0442  30A0               	movlw	low (STR_41| (0+32768))
  2399  0443  00F4               	movwf	LCD_Wstring@v
  2400  0444  3087               	movlw	high (STR_41| (0+32768))
  2401  0445  00F5               	movwf	LCD_Wstring@v+1
  2402  0446  120A  118A  267E  120A  118A  	fcall	_LCD_Wstring
  2403  044B  2E06               	goto	l222
  2404  044C                     l2194:
  2405  044C  3022               	movlw	34
  2406  044D  0622               	xorwf	transformADC@k,w
  2407  044E  1D03               	btfss	3,2
  2408  044F  2C51               	goto	u1811
  2409  0450  2C52               	goto	u1810
  2410  0451                     u1811:
  2411  0451  2C66               	goto	l2200
  2412  0452                     u1810:
  2413  0452                     l2196:
  2414  0452  3002               	movlw	2
  2415  0453  00F9               	movwf	??_transformADC
  2416  0454  0879               	movf	??_transformADC,w
  2417  0455  00F5               	movwf	LCD_cursor@y
  2418  0456  3003               	movlw	3
  2419  0457  120A  158A  26CE  120A  118A  	fcall	_LCD_cursor
  2420  045C                     l2198:
  2421  045C  30CD               	movlw	low (STR_42| (0+32768))
  2422  045D  00F4               	movwf	LCD_Wstring@v
  2423  045E  3087               	movlw	high (STR_42| (0+32768))
  2424  045F  00F5               	movwf	LCD_Wstring@v+1
  2425  0460  120A  118A  267E  120A  118A  	fcall	_LCD_Wstring
  2426  0465  2E06               	goto	l222
  2427  0466                     l2200:
  2428  0466  3023               	movlw	35
  2429  0467  0622               	xorwf	transformADC@k,w
  2430  0468  1D03               	btfss	3,2
  2431  0469  2C6B               	goto	u1821
  2432  046A  2C6C               	goto	u1820
  2433  046B                     u1821:
  2434  046B  2C80               	goto	l2206
  2435  046C                     u1820:
  2436  046C                     l2202:
  2437  046C  3002               	movlw	2
  2438  046D  00F9               	movwf	??_transformADC
  2439  046E  0879               	movf	??_transformADC,w
  2440  046F  00F5               	movwf	LCD_cursor@y
  2441  0470  3003               	movlw	3
  2442  0471  120A  158A  26CE  120A  118A  	fcall	_LCD_cursor
  2443  0476                     l2204:
  2444  0476  301E               	movlw	low (STR_43| (0+32768))
  2445  0477  00F4               	movwf	LCD_Wstring@v
  2446  0478  3087               	movlw	high (STR_43| (0+32768))
  2447  0479  00F5               	movwf	LCD_Wstring@v+1
  2448  047A  120A  118A  267E  120A  118A  	fcall	_LCD_Wstring
  2449  047F  2E06               	goto	l222
  2450  0480                     l2206:
  2451  0480  3024               	movlw	36
  2452  0481  0622               	xorwf	transformADC@k,w
  2453  0482  1D03               	btfss	3,2
  2454  0483  2C85               	goto	u1831
  2455  0484  2C86               	goto	u1830
  2456  0485                     u1831:
  2457  0485  2C9A               	goto	l2212
  2458  0486                     u1830:
  2459  0486                     l2208:
  2460  0486  3002               	movlw	2
  2461  0487  00F9               	movwf	??_transformADC
  2462  0488  0879               	movf	??_transformADC,w
  2463  0489  00F5               	movwf	LCD_cursor@y
  2464  048A  3003               	movlw	3
  2465  048B  120A  158A  26CE  120A  118A  	fcall	_LCD_cursor
  2466  0490                     l2210:
  2467  0490  304B               	movlw	low (STR_44| (0+32768))
  2468  0491  00F4               	movwf	LCD_Wstring@v
  2469  0492  3087               	movlw	high (STR_44| (0+32768))
  2470  0493  00F5               	movwf	LCD_Wstring@v+1
  2471  0494  120A  118A  267E  120A  118A  	fcall	_LCD_Wstring
  2472  0499  2E06               	goto	l222
  2473  049A                     l2212:
  2474  049A  3025               	movlw	37
  2475  049B  0622               	xorwf	transformADC@k,w
  2476  049C  1D03               	btfss	3,2
  2477  049D  2C9F               	goto	u1841
  2478  049E  2CA0               	goto	u1840
  2479  049F                     u1841:
  2480  049F  2CB4               	goto	l2218
  2481  04A0                     u1840:
  2482  04A0                     l2214:
  2483  04A0  3002               	movlw	2
  2484  04A1  00F9               	movwf	??_transformADC
  2485  04A2  0879               	movf	??_transformADC,w
  2486  04A3  00F5               	movwf	LCD_cursor@y
  2487  04A4  3003               	movlw	3
  2488  04A5  120A  158A  26CE  120A  118A  	fcall	_LCD_cursor
  2489  04AA                     l2216:
  2490  04AA  3078               	movlw	low (STR_45| (0+32768))
  2491  04AB  00F4               	movwf	LCD_Wstring@v
  2492  04AC  3087               	movlw	high (STR_45| (0+32768))
  2493  04AD  00F5               	movwf	LCD_Wstring@v+1
  2494  04AE  120A  118A  267E  120A  118A  	fcall	_LCD_Wstring
  2495  04B3  2E06               	goto	l222
  2496  04B4                     l2218:
  2497  04B4  3026               	movlw	38
  2498  04B5  0622               	xorwf	transformADC@k,w
  2499  04B6  1D03               	btfss	3,2
  2500  04B7  2CB9               	goto	u1851
  2501  04B8  2CBA               	goto	u1850
  2502  04B9                     u1851:
  2503  04B9  2CCE               	goto	l2224
  2504  04BA                     u1850:
  2505  04BA                     l2220:
  2506  04BA  3002               	movlw	2
  2507  04BB  00F9               	movwf	??_transformADC
  2508  04BC  0879               	movf	??_transformADC,w
  2509  04BD  00F5               	movwf	LCD_cursor@y
  2510  04BE  3003               	movlw	3
  2511  04BF  120A  158A  26CE  120A  118A  	fcall	_LCD_cursor
  2512  04C4                     l2222:
  2513  04C4  30A5               	movlw	low (STR_46| (0+32768))
  2514  04C5  00F4               	movwf	LCD_Wstring@v
  2515  04C6  3087               	movlw	high (STR_46| (0+32768))
  2516  04C7  00F5               	movwf	LCD_Wstring@v+1
  2517  04C8  120A  118A  267E  120A  118A  	fcall	_LCD_Wstring
  2518  04CD  2E06               	goto	l222
  2519  04CE                     l2224:
  2520  04CE  3027               	movlw	39
  2521  04CF  0622               	xorwf	transformADC@k,w
  2522  04D0  1D03               	btfss	3,2
  2523  04D1  2CD3               	goto	u1861
  2524  04D2  2CD4               	goto	u1860
  2525  04D3                     u1861:
  2526  04D3  2CE8               	goto	l2230
  2527  04D4                     u1860:
  2528  04D4                     l2226:
  2529  04D4  3002               	movlw	2
  2530  04D5  00F9               	movwf	??_transformADC
  2531  04D6  0879               	movf	??_transformADC,w
  2532  04D7  00F5               	movwf	LCD_cursor@y
  2533  04D8  3003               	movlw	3
  2534  04D9  120A  158A  26CE  120A  118A  	fcall	_LCD_cursor
  2535  04DE                     l2228:
  2536  04DE  30D2               	movlw	low (STR_47| (0+32768))
  2537  04DF  00F4               	movwf	LCD_Wstring@v
  2538  04E0  3087               	movlw	high (STR_47| (0+32768))
  2539  04E1  00F5               	movwf	LCD_Wstring@v+1
  2540  04E2  120A  118A  267E  120A  118A  	fcall	_LCD_Wstring
  2541  04E7  2E06               	goto	l222
  2542  04E8                     l2230:
  2543  04E8  3028               	movlw	40
  2544  04E9  0622               	xorwf	transformADC@k,w
  2545  04EA  1D03               	btfss	3,2
  2546  04EB  2CED               	goto	u1871
  2547  04EC  2CEE               	goto	u1870
  2548  04ED                     u1871:
  2549  04ED  2D02               	goto	l2236
  2550  04EE                     u1870:
  2551  04EE                     l2232:
  2552  04EE  3002               	movlw	2
  2553  04EF  00F9               	movwf	??_transformADC
  2554  04F0  0879               	movf	??_transformADC,w
  2555  04F1  00F5               	movwf	LCD_cursor@y
  2556  04F2  3003               	movlw	3
  2557  04F3  120A  158A  26CE  120A  118A  	fcall	_LCD_cursor
  2558  04F8                     l2234:
  2559  04F8  3023               	movlw	low (STR_48| (0+32768))
  2560  04F9  00F4               	movwf	LCD_Wstring@v
  2561  04FA  3087               	movlw	high (STR_48| (0+32768))
  2562  04FB  00F5               	movwf	LCD_Wstring@v+1
  2563  04FC  120A  118A  267E  120A  118A  	fcall	_LCD_Wstring
  2564  0501  2E06               	goto	l222
  2565  0502                     l2236:
  2566  0502  3029               	movlw	41
  2567  0503  0622               	xorwf	transformADC@k,w
  2568  0504  1D03               	btfss	3,2
  2569  0505  2D07               	goto	u1881
  2570  0506  2D08               	goto	u1880
  2571  0507                     u1881:
  2572  0507  2D1C               	goto	l2242
  2573  0508                     u1880:
  2574  0508                     l2238:
  2575  0508  3002               	movlw	2
  2576  0509  00F9               	movwf	??_transformADC
  2577  050A  0879               	movf	??_transformADC,w
  2578  050B  00F5               	movwf	LCD_cursor@y
  2579  050C  3003               	movlw	3
  2580  050D  120A  158A  26CE  120A  118A  	fcall	_LCD_cursor
  2581  0512                     l2240:
  2582  0512  3050               	movlw	low (STR_49| (0+32768))
  2583  0513  00F4               	movwf	LCD_Wstring@v
  2584  0514  3087               	movlw	high (STR_49| (0+32768))
  2585  0515  00F5               	movwf	LCD_Wstring@v+1
  2586  0516  120A  118A  267E  120A  118A  	fcall	_LCD_Wstring
  2587  051B  2E06               	goto	l222
  2588  051C                     l2242:
  2589  051C  302A               	movlw	42
  2590  051D  0622               	xorwf	transformADC@k,w
  2591  051E  1D03               	btfss	3,2
  2592  051F  2D21               	goto	u1891
  2593  0520  2D22               	goto	u1890
  2594  0521                     u1891:
  2595  0521  2D36               	goto	l2248
  2596  0522                     u1890:
  2597  0522                     l2244:
  2598  0522  3002               	movlw	2
  2599  0523  00F9               	movwf	??_transformADC
  2600  0524  0879               	movf	??_transformADC,w
  2601  0525  00F5               	movwf	LCD_cursor@y
  2602  0526  3003               	movlw	3
  2603  0527  120A  158A  26CE  120A  118A  	fcall	_LCD_cursor
  2604  052C                     l2246:
  2605  052C  307D               	movlw	low (STR_50| (0+32768))
  2606  052D  00F4               	movwf	LCD_Wstring@v
  2607  052E  3087               	movlw	high (STR_50| (0+32768))
  2608  052F  00F5               	movwf	LCD_Wstring@v+1
  2609  0530  120A  118A  267E  120A  118A  	fcall	_LCD_Wstring
  2610  0535  2E06               	goto	l222
  2611  0536                     l2248:
  2612  0536  302B               	movlw	43
  2613  0537  0622               	xorwf	transformADC@k,w
  2614  0538  1D03               	btfss	3,2
  2615  0539  2D3B               	goto	u1901
  2616  053A  2D3C               	goto	u1900
  2617  053B                     u1901:
  2618  053B  2D50               	goto	l2254
  2619  053C                     u1900:
  2620  053C                     l2250:
  2621  053C  3002               	movlw	2
  2622  053D  00F9               	movwf	??_transformADC
  2623  053E  0879               	movf	??_transformADC,w
  2624  053F  00F5               	movwf	LCD_cursor@y
  2625  0540  3003               	movlw	3
  2626  0541  120A  158A  26CE  120A  118A  	fcall	_LCD_cursor
  2627  0546                     l2252:
  2628  0546  30AA               	movlw	low (STR_51| (0+32768))
  2629  0547  00F4               	movwf	LCD_Wstring@v
  2630  0548  3087               	movlw	high (STR_51| (0+32768))
  2631  0549  00F5               	movwf	LCD_Wstring@v+1
  2632  054A  120A  118A  267E  120A  118A  	fcall	_LCD_Wstring
  2633  054F  2E06               	goto	l222
  2634  0550                     l2254:
  2635  0550  302C               	movlw	44
  2636  0551  0622               	xorwf	transformADC@k,w
  2637  0552  1D03               	btfss	3,2
  2638  0553  2D55               	goto	u1911
  2639  0554  2D56               	goto	u1910
  2640  0555                     u1911:
  2641  0555  2D6A               	goto	l2260
  2642  0556                     u1910:
  2643  0556                     l2256:
  2644  0556  3002               	movlw	2
  2645  0557  00F9               	movwf	??_transformADC
  2646  0558  0879               	movf	??_transformADC,w
  2647  0559  00F5               	movwf	LCD_cursor@y
  2648  055A  3003               	movlw	3
  2649  055B  120A  158A  26CE  120A  118A  	fcall	_LCD_cursor
  2650  0560                     l2258:
  2651  0560  30D7               	movlw	low (STR_52| (0+32768))
  2652  0561  00F4               	movwf	LCD_Wstring@v
  2653  0562  3087               	movlw	high (STR_52| (0+32768))
  2654  0563  00F5               	movwf	LCD_Wstring@v+1
  2655  0564  120A  118A  267E  120A  118A  	fcall	_LCD_Wstring
  2656  0569  2E06               	goto	l222
  2657  056A                     l2260:
  2658  056A  302D               	movlw	45
  2659  056B  0622               	xorwf	transformADC@k,w
  2660  056C  1D03               	btfss	3,2
  2661  056D  2D6F               	goto	u1921
  2662  056E  2D70               	goto	u1920
  2663  056F                     u1921:
  2664  056F  2D84               	goto	l2266
  2665  0570                     u1920:
  2666  0570                     l2262:
  2667  0570  3002               	movlw	2
  2668  0571  00F9               	movwf	??_transformADC
  2669  0572  0879               	movf	??_transformADC,w
  2670  0573  00F5               	movwf	LCD_cursor@y
  2671  0574  3003               	movlw	3
  2672  0575  120A  158A  26CE  120A  118A  	fcall	_LCD_cursor
  2673  057A                     l2264:
  2674  057A  3028               	movlw	low (STR_53| (0+32768))
  2675  057B  00F4               	movwf	LCD_Wstring@v
  2676  057C  3087               	movlw	high (STR_53| (0+32768))
  2677  057D  00F5               	movwf	LCD_Wstring@v+1
  2678  057E  120A  118A  267E  120A  118A  	fcall	_LCD_Wstring
  2679  0583  2E06               	goto	l222
  2680  0584                     l2266:
  2681  0584  302E               	movlw	46
  2682  0585  0622               	xorwf	transformADC@k,w
  2683  0586  1D03               	btfss	3,2
  2684  0587  2D89               	goto	u1931
  2685  0588  2D8A               	goto	u1930
  2686  0589                     u1931:
  2687  0589  2D9E               	goto	l2272
  2688  058A                     u1930:
  2689  058A                     l2268:
  2690  058A  3002               	movlw	2
  2691  058B  00F9               	movwf	??_transformADC
  2692  058C  0879               	movf	??_transformADC,w
  2693  058D  00F5               	movwf	LCD_cursor@y
  2694  058E  3003               	movlw	3
  2695  058F  120A  158A  26CE  120A  118A  	fcall	_LCD_cursor
  2696  0594                     l2270:
  2697  0594  3055               	movlw	low (STR_54| (0+32768))
  2698  0595  00F4               	movwf	LCD_Wstring@v
  2699  0596  3087               	movlw	high (STR_54| (0+32768))
  2700  0597  00F5               	movwf	LCD_Wstring@v+1
  2701  0598  120A  118A  267E  120A  118A  	fcall	_LCD_Wstring
  2702  059D  2E06               	goto	l222
  2703  059E                     l2272:
  2704  059E  302F               	movlw	47
  2705  059F  0622               	xorwf	transformADC@k,w
  2706  05A0  1D03               	btfss	3,2
  2707  05A1  2DA3               	goto	u1941
  2708  05A2  2DA4               	goto	u1940
  2709  05A3                     u1941:
  2710  05A3  2DB8               	goto	l2278
  2711  05A4                     u1940:
  2712  05A4                     l2274:
  2713  05A4  3002               	movlw	2
  2714  05A5  00F9               	movwf	??_transformADC
  2715  05A6  0879               	movf	??_transformADC,w
  2716  05A7  00F5               	movwf	LCD_cursor@y
  2717  05A8  3003               	movlw	3
  2718  05A9  120A  158A  26CE  120A  118A  	fcall	_LCD_cursor
  2719  05AE                     l2276:
  2720  05AE  3082               	movlw	low (STR_55| (0+32768))
  2721  05AF  00F4               	movwf	LCD_Wstring@v
  2722  05B0  3087               	movlw	high (STR_55| (0+32768))
  2723  05B1  00F5               	movwf	LCD_Wstring@v+1
  2724  05B2  120A  118A  267E  120A  118A  	fcall	_LCD_Wstring
  2725  05B7  2E06               	goto	l222
  2726  05B8                     l2278:
  2727  05B8  3030               	movlw	48
  2728  05B9  0622               	xorwf	transformADC@k,w
  2729  05BA  1D03               	btfss	3,2
  2730  05BB  2DBD               	goto	u1951
  2731  05BC  2DBE               	goto	u1950
  2732  05BD                     u1951:
  2733  05BD  2DD2               	goto	l2284
  2734  05BE                     u1950:
  2735  05BE                     l2280:
  2736  05BE  3002               	movlw	2
  2737  05BF  00F9               	movwf	??_transformADC
  2738  05C0  0879               	movf	??_transformADC,w
  2739  05C1  00F5               	movwf	LCD_cursor@y
  2740  05C2  3003               	movlw	3
  2741  05C3  120A  158A  26CE  120A  118A  	fcall	_LCD_cursor
  2742  05C8                     l2282:
  2743  05C8  30AF               	movlw	low (STR_56| (0+32768))
  2744  05C9  00F4               	movwf	LCD_Wstring@v
  2745  05CA  3087               	movlw	high (STR_56| (0+32768))
  2746  05CB  00F5               	movwf	LCD_Wstring@v+1
  2747  05CC  120A  118A  267E  120A  118A  	fcall	_LCD_Wstring
  2748  05D1  2E06               	goto	l222
  2749  05D2                     l2284:
  2750  05D2  3031               	movlw	49
  2751  05D3  0622               	xorwf	transformADC@k,w
  2752  05D4  1D03               	btfss	3,2
  2753  05D5  2DD7               	goto	u1961
  2754  05D6  2DD8               	goto	u1960
  2755  05D7                     u1961:
  2756  05D7  2DEC               	goto	l2290
  2757  05D8                     u1960:
  2758  05D8                     l2286:
  2759  05D8  3002               	movlw	2
  2760  05D9  00F9               	movwf	??_transformADC
  2761  05DA  0879               	movf	??_transformADC,w
  2762  05DB  00F5               	movwf	LCD_cursor@y
  2763  05DC  3003               	movlw	3
  2764  05DD  120A  158A  26CE  120A  118A  	fcall	_LCD_cursor
  2765  05E2                     l2288:
  2766  05E2  30DC               	movlw	low (STR_57| (0+32768))
  2767  05E3  00F4               	movwf	LCD_Wstring@v
  2768  05E4  3087               	movlw	high (STR_57| (0+32768))
  2769  05E5  00F5               	movwf	LCD_Wstring@v+1
  2770  05E6  120A  118A  267E  120A  118A  	fcall	_LCD_Wstring
  2771  05EB  2E06               	goto	l222
  2772  05EC                     l2290:
  2773  05EC  3032               	movlw	50
  2774  05ED  0622               	xorwf	transformADC@k,w
  2775  05EE  1D03               	btfss	3,2
  2776  05EF  2DF1               	goto	u1971
  2777  05F0  2DF2               	goto	u1970
  2778  05F1                     u1971:
  2779  05F1  2E06               	goto	l216
  2780  05F2                     u1970:
  2781  05F2                     l2292:
  2782  05F2  3002               	movlw	2
  2783  05F3  00F9               	movwf	??_transformADC
  2784  05F4  0879               	movf	??_transformADC,w
  2785  05F5  00F5               	movwf	LCD_cursor@y
  2786  05F6  3003               	movlw	3
  2787  05F7  120A  158A  26CE  120A  118A  	fcall	_LCD_cursor
  2788  05FC                     l2294:
  2789  05FC  30E1               	movlw	low (STR_58| (0+32768))
  2790  05FD  00F4               	movwf	LCD_Wstring@v
  2791  05FE  3087               	movlw	high (STR_58| (0+32768))
  2792  05FF  00F5               	movwf	LCD_Wstring@v+1
  2793  0600  120A  118A  267E  120A  118A  	fcall	_LCD_Wstring
  2794  0605  2E06               	goto	l222
  2795  0606                     l216:
  2796  0606                     l222:
  2797  0606  0008               	return
  2798  0607                     __end_of_transformADC:
  2799                           
  2800                           	psect	text2
  2801  0ECE                     __ptext2:	
  2802 ;; *************** function _LCD_cursor *****************
  2803 ;; Defined at:
  2804 ;;		line 62 in file "LCD.c"
  2805 ;; Parameters:    Size  Location     Type
  2806 ;;  x               1    wreg     unsigned char 
  2807 ;;  y               1    5[COMMON] unsigned char 
  2808 ;; Auto vars:     Size  Location     Type
  2809 ;;  x               1    7[COMMON] unsigned char 
  2810 ;;  a               1    8[COMMON] unsigned char 
  2811 ;; Return value:  Size  Location     Type
  2812 ;;                  1    wreg      void 
  2813 ;; Registers used:
  2814 ;;		wreg, status,2, status,0, pclath, cstack
  2815 ;; Tracked objects:
  2816 ;;		On entry : 0/0
  2817 ;;		On exit  : 0/0
  2818 ;;		Unchanged: 0/0
  2819 ;; Data sizes:     COMMON   BANK0   BANK1   BANK3   BANK2
  2820 ;;      Params:         1       0       0       0       0
  2821 ;;      Locals:         2       0       0       0       0
  2822 ;;      Temps:          1       0       0       0       0
  2823 ;;      Totals:         4       0       0       0       0
  2824 ;;Total ram usage:        4 bytes
  2825 ;; Hardware stack levels used:    1
  2826 ;; Hardware stack levels required when called:    2
  2827 ;; This function calls:
  2828 ;;		_LCD_cmd
  2829 ;; This function is called by:
  2830 ;;		_main
  2831 ;;		_transformADC
  2832 ;; This function uses a non-reentrant model
  2833 ;;
  2834                           
  2835                           
  2836                           ;psect for function _LCD_cursor
  2837  0ECE                     _LCD_cursor:
  2838                           
  2839                           ;incstack = 0
  2840                           ; Regs used in _LCD_cursor: [wreg+status,2+status,0+pclath+cstack]
  2841                           ;LCD_cursor@x stored from wreg
  2842  0ECE  00F7               	movwf	LCD_cursor@x
  2843  0ECF                     l1418:
  2844                           
  2845                           ;LCD.c: 63:     uint8_t a;;LCD.c: 64:  if(y == 1)
  2846  0ECF  0375               	decf	LCD_cursor@y,w
  2847  0ED0  1D03               	btfss	3,2
  2848  0ED1  2ED3               	goto	u711
  2849  0ED2  2ED4               	goto	u710
  2850  0ED3                     u711:
  2851  0ED3  2EE0               	goto	l1424
  2852  0ED4                     u710:
  2853  0ED4                     l1420:
  2854                           
  2855                           ;LCD.c: 65:  {;LCD.c: 66:    a = 0x80 + x - 1;
  2856  0ED4  0877               	movf	LCD_cursor@x,w
  2857  0ED5  3E7F               	addlw	127
  2858  0ED6  00F6               	movwf	??_LCD_cursor
  2859  0ED7  0876               	movf	??_LCD_cursor,w
  2860  0ED8  00F8               	movwf	LCD_cursor@a
  2861  0ED9                     l1422:
  2862                           
  2863                           ;LCD.c: 67:   LCD_cmd(a);
  2864  0ED9  0878               	movf	LCD_cursor@a,w
  2865  0EDA  120A  158A  26A4  120A  158A  	fcall	_LCD_cmd
  2866                           
  2867                           ;LCD.c: 68:  }
  2868  0EDF  2EF1               	goto	l247
  2869  0EE0                     l1424:
  2870  0EE0  3002               	movlw	2
  2871  0EE1  0675               	xorwf	LCD_cursor@y,w
  2872  0EE2  1D03               	btfss	3,2
  2873  0EE3  2EE5               	goto	u721
  2874  0EE4  2EE6               	goto	u720
  2875  0EE5                     u721:
  2876  0EE5  2EF1               	goto	l247
  2877  0EE6                     u720:
  2878  0EE6                     l1426:
  2879                           
  2880                           ;LCD.c: 70:  {;LCD.c: 71:   a = 0xC0 + x - 1;
  2881  0EE6  0877               	movf	LCD_cursor@x,w
  2882  0EE7  3EBF               	addlw	191
  2883  0EE8  00F6               	movwf	??_LCD_cursor
  2884  0EE9  0876               	movf	??_LCD_cursor,w
  2885  0EEA  00F8               	movwf	LCD_cursor@a
  2886  0EEB                     l1428:
  2887                           
  2888                           ;LCD.c: 72:   LCD_cmd(a);
  2889  0EEB  0878               	movf	LCD_cursor@a,w
  2890  0EEC  120A  158A  26A4  120A  158A  	fcall	_LCD_cmd
  2891  0EF1                     l247:
  2892  0EF1  0008               	return
  2893  0EF2                     __end_of_LCD_cursor:
  2894                           
  2895                           	psect	text3
  2896  067E                     __ptext3:	
  2897 ;; *************** function _LCD_Wstring *****************
  2898 ;; Defined at:
  2899 ;;		line 85 in file "LCD.c"
  2900 ;; Parameters:    Size  Location     Type
  2901 ;;  v               2    4[COMMON] PTR unsigned char 
  2902 ;;		 -> STR_58(5), STR_57(5), STR_56(5), STR_55(5), 
  2903 ;;		 -> STR_54(5), STR_53(5), STR_52(5), STR_51(5), 
  2904 ;;		 -> STR_50(5), STR_49(5), STR_48(5), STR_47(5), 
  2905 ;;		 -> STR_46(5), STR_45(5), STR_44(5), STR_43(5), 
  2906 ;;		 -> STR_42(5), STR_41(5), STR_40(5), STR_39(5), 
  2907 ;;		 -> STR_38(5), STR_37(5), STR_36(5), STR_35(5), 
  2908 ;;		 -> STR_34(5), STR_33(5), STR_32(5), STR_31(5), 
  2909 ;;		 -> STR_30(5), STR_29(5), STR_28(5), STR_27(5), 
  2910 ;;		 -> STR_26(5), STR_25(5), STR_24(5), STR_23(5), 
  2911 ;;		 -> STR_22(5), STR_21(5), STR_20(5), STR_19(5), 
  2912 ;;		 -> STR_18(5), STR_17(5), STR_16(5), STR_15(5), 
  2913 ;;		 -> STR_14(5), STR_13(5), STR_12(4), STR_11(4), 
  2914 ;;		 -> STR_10(4), STR_9(4), STR_8(3), STR_7(3), 
  2915 ;;		 -> STR_6(3), STR_5(3), STR_4(3), STR_3(4), 
  2916 ;;		 -> STR_2(4), STR_1(4), 
  2917 ;; Auto vars:     Size  Location     Type
  2918 ;;  i               2    0[BANK0 ] int 
  2919 ;; Return value:  Size  Location     Type
  2920 ;;                  1    wreg      void 
  2921 ;; Registers used:
  2922 ;;		wreg, fsr0l, fsr0h, status,2, status,0, btemp+1, pclath, cstack
  2923 ;; Tracked objects:
  2924 ;;		On entry : 0/0
  2925 ;;		On exit  : 0/0
  2926 ;;		Unchanged: 0/0
  2927 ;; Data sizes:     COMMON   BANK0   BANK1   BANK3   BANK2
  2928 ;;      Params:         2       0       0       0       0
  2929 ;;      Locals:         0       2       0       0       0
  2930 ;;      Temps:          3       0       0       0       0
  2931 ;;      Totals:         5       2       0       0       0
  2932 ;;Total ram usage:        7 bytes
  2933 ;; Hardware stack levels used:    1
  2934 ;; Hardware stack levels required when called:    2
  2935 ;; This function calls:
  2936 ;;		_LCD_Wchar
  2937 ;; This function is called by:
  2938 ;;		_main
  2939 ;;		_transformADC
  2940 ;; This function uses a non-reentrant model
  2941 ;;
  2942                           
  2943                           
  2944                           ;psect for function _LCD_Wstring
  2945  067E                     _LCD_Wstring:
  2946  067E                     l1934:	
  2947                           ;incstack = 0
  2948                           ; Regs used in _LCD_Wstring: [wreg-fsr0h+status,2+status,0+btemp+1+pclath+cstack]
  2949                           
  2950                           
  2951                           ;LCD.c: 86:     int i;;LCD.c: 87:  for(i=0;v[i]!='\0';i++)
  2952  067E  1283               	bcf	3,5	;RP0=0, select bank0
  2953  067F  1303               	bcf	3,6	;RP1=0, select bank0
  2954  0680  01A0               	clrf	LCD_Wstring@i
  2955  0681  01A1               	clrf	LCD_Wstring@i+1
  2956  0682  2EA7               	goto	l1940
  2957  0683                     l1936:
  2958                           
  2959                           ;LCD.c: 88:     LCD_Wchar(v[i]);
  2960  0683  0820               	movf	LCD_Wstring@i,w
  2961  0684  0774               	addwf	LCD_Wstring@v,w
  2962  0685  00F7               	movwf	??_LCD_Wstring+1
  2963  0686  0875               	movf	LCD_Wstring@v+1,w
  2964  0687  00F6               	movwf	??_LCD_Wstring
  2965  0688  1803               	skipnc
  2966  0689  0AF6               	incf	??_LCD_Wstring,f
  2967  068A  1FA0               	btfss	LCD_Wstring@i,7
  2968  068B  2E8D               	goto	u1370
  2969  068C  03F6               	decf	??_LCD_Wstring,f
  2970  068D                     u1370:
  2971  068D  0876               	movf	??_LCD_Wstring,w
  2972  068E  00F8               	movwf	??_LCD_Wstring+2
  2973  068F  0878               	movf	??_LCD_Wstring+2,w
  2974  0690  1283               	bcf	3,5	;RP0=0, select bank0
  2975  0691  1303               	bcf	3,6	;RP1=0, select bank0
  2976  0692  00FF               	movwf	btemp+1
  2977  0693  0877               	movf	??_LCD_Wstring+1,w
  2978  0694  0084               	movwf	4
  2979  0695  120A  118A  26EE  120A  118A  	fcall	stringtab
  2980  069A  120A  158A  2695  120A  118A  	fcall	_LCD_Wchar
  2981  069F                     l1938:
  2982  069F  3001               	movlw	1
  2983  06A0  1283               	bcf	3,5	;RP0=0, select bank0
  2984  06A1  1303               	bcf	3,6	;RP1=0, select bank0
  2985  06A2  07A0               	addwf	LCD_Wstring@i,f
  2986  06A3  1803               	skipnc
  2987  06A4  0AA1               	incf	LCD_Wstring@i+1,f
  2988  06A5  3000               	movlw	0
  2989  06A6  07A1               	addwf	LCD_Wstring@i+1,f
  2990  06A7                     l1940:
  2991  06A7  0820               	movf	LCD_Wstring@i,w
  2992  06A8  0774               	addwf	LCD_Wstring@v,w
  2993  06A9  00F7               	movwf	??_LCD_Wstring+1
  2994  06AA  0875               	movf	LCD_Wstring@v+1,w
  2995  06AB  00F6               	movwf	??_LCD_Wstring
  2996  06AC  1803               	skipnc
  2997  06AD  0AF6               	incf	??_LCD_Wstring,f
  2998  06AE  1FA0               	btfss	LCD_Wstring@i,7
  2999  06AF  2EB1               	goto	u1380
  3000  06B0  03F6               	decf	??_LCD_Wstring,f
  3001  06B1                     u1380:
  3002  06B1  0876               	movf	??_LCD_Wstring,w
  3003  06B2  00F8               	movwf	??_LCD_Wstring+2
  3004  06B3  0878               	movf	??_LCD_Wstring+2,w
  3005  06B4  1283               	bcf	3,5	;RP0=0, select bank0
  3006  06B5  1303               	bcf	3,6	;RP1=0, select bank0
  3007  06B6  00FF               	movwf	btemp+1
  3008  06B7  0877               	movf	??_LCD_Wstring+1,w
  3009  06B8  0084               	movwf	4
  3010  06B9  120A  118A  26EE  120A  118A  	fcall	stringtab
  3011  06BE  3A00               	xorlw	0
  3012  06BF  1D03               	skipz
  3013  06C0  2EC2               	goto	u1391
  3014  06C1  2EC3               	goto	u1390
  3015  06C2                     u1391:
  3016  06C2  2E83               	goto	l1936
  3017  06C3                     u1390:
  3018  06C3                     l256:
  3019  06C3  0008               	return
  3020  06C4                     __end_of_LCD_Wstring:
  3021                           
  3022                           	psect	text4
  3023  0E95                     __ptext4:	
  3024 ;; *************** function _LCD_Wchar *****************
  3025 ;; Defined at:
  3026 ;;		line 76 in file "LCD.c"
  3027 ;; Parameters:    Size  Location     Type
  3028 ;;  c               1    wreg     unsigned char 
  3029 ;; Auto vars:     Size  Location     Type
  3030 ;;  c               1    3[COMMON] unsigned char 
  3031 ;; Return value:  Size  Location     Type
  3032 ;;                  1    wreg      void 
  3033 ;; Registers used:
  3034 ;;		wreg
  3035 ;; Tracked objects:
  3036 ;;		On entry : 0/0
  3037 ;;		On exit  : 0/0
  3038 ;;		Unchanged: 0/0
  3039 ;; Data sizes:     COMMON   BANK0   BANK1   BANK3   BANK2
  3040 ;;      Params:         0       0       0       0       0
  3041 ;;      Locals:         1       0       0       0       0
  3042 ;;      Temps:          1       0       0       0       0
  3043 ;;      Totals:         2       0       0       0       0
  3044 ;;Total ram usage:        2 bytes
  3045 ;; Hardware stack levels used:    1
  3046 ;; Hardware stack levels required when called:    1
  3047 ;; This function calls:
  3048 ;;		Nothing
  3049 ;; This function is called by:
  3050 ;;		_LCD_Wstring
  3051 ;; This function uses a non-reentrant model
  3052 ;;
  3053                           
  3054                           
  3055                           ;psect for function _LCD_Wchar
  3056  0E95                     _LCD_Wchar:
  3057                           
  3058                           ;incstack = 0
  3059                           ; Regs used in _LCD_Wchar: [wreg]
  3060                           ;LCD_Wchar@c stored from wreg
  3061  0E95  00F3               	movwf	LCD_Wchar@c
  3062  0E96                     l1926:
  3063                           
  3064                           ;LCD.c: 77:    PORTCbits.RC0 = 1;
  3065  0E96  1283               	bcf	3,5	;RP0=0, select bank0
  3066  0E97  1303               	bcf	3,6	;RP1=0, select bank0
  3067  0E98  1407               	bsf	7,0	;volatile
  3068  0E99                     l1928:
  3069                           
  3070                           ;LCD.c: 78:    PORTD = c;
  3071  0E99  0873               	movf	LCD_Wchar@c,w
  3072  0E9A  0088               	movwf	8	;volatile
  3073  0E9B                     l1930:
  3074                           
  3075                           ;LCD.c: 80:    PORTCbits.RC1 = 1;
  3076  0E9B  1487               	bsf	7,1	;volatile
  3077                           
  3078                           ;LCD.c: 81:    _delay((unsigned long)((40)*(4000000/4000000.0)));
  3079  0E9C  300D               	movlw	13
  3080  0E9D  00F2               	movwf	??_LCD_Wchar
  3081  0E9E                     u2187:
  3082  0E9E  0BF2               	decfsz	??_LCD_Wchar,f
  3083  0E9F  2E9E               	goto	u2187
  3084  0EA0                     l1932:
  3085                           
  3086                           ;LCD.c: 82:    PORTCbits.RC1 = 0;
  3087  0EA0  1283               	bcf	3,5	;RP0=0, select bank0
  3088  0EA1  1303               	bcf	3,6	;RP1=0, select bank0
  3089  0EA2  1087               	bcf	7,1	;volatile
  3090  0EA3                     l250:
  3091  0EA3  0008               	return
  3092  0EA4                     __end_of_LCD_Wchar:
  3093                           
  3094                           	psect	text5
  3095  0E71                     __ptext5:	
  3096 ;; *************** function _spiWrite *****************
  3097 ;; Defined at:
  3098 ;;		line 34 in file "SPI.c"
  3099 ;; Parameters:    Size  Location     Type
  3100 ;;  dat             1    wreg     unsigned char 
  3101 ;; Auto vars:     Size  Location     Type
  3102 ;;  dat             1    2[COMMON] unsigned char 
  3103 ;; Return value:  Size  Location     Type
  3104 ;;                  1    wreg      void 
  3105 ;; Registers used:
  3106 ;;		wreg
  3107 ;; Tracked objects:
  3108 ;;		On entry : 0/0
  3109 ;;		On exit  : 0/0
  3110 ;;		Unchanged: 0/0
  3111 ;; Data sizes:     COMMON   BANK0   BANK1   BANK3   BANK2
  3112 ;;      Params:         0       0       0       0       0
  3113 ;;      Locals:         1       0       0       0       0
  3114 ;;      Temps:          0       0       0       0       0
  3115 ;;      Totals:         1       0       0       0       0
  3116 ;;Total ram usage:        1 bytes
  3117 ;; Hardware stack levels used:    1
  3118 ;; Hardware stack levels required when called:    1
  3119 ;; This function calls:
  3120 ;;		Nothing
  3121 ;; This function is called by:
  3122 ;;		_main
  3123 ;; This function uses a non-reentrant model
  3124 ;;
  3125                           
  3126                           
  3127                           ;psect for function _spiWrite
  3128  0E71                     _spiWrite:
  3129                           
  3130                           ;incstack = 0
  3131                           ; Regs used in _spiWrite: [wreg]
  3132                           ;spiWrite@dat stored from wreg
  3133  0E71  00F2               	movwf	spiWrite@dat
  3134  0E72                     l1474:
  3135                           
  3136                           ;SPI.c: 34: void spiWrite(char dat);SPI.c: 35: {;SPI.c: 36:     SSPBUF = dat;
  3137  0E72  0872               	movf	spiWrite@dat,w
  3138  0E73  1283               	bcf	3,5	;RP0=0, select bank0
  3139  0E74  1303               	bcf	3,6	;RP1=0, select bank0
  3140  0E75  0093               	movwf	19	;volatile
  3141  0E76                     l26:
  3142  0E76  0008               	return
  3143  0E77                     __end_of_spiWrite:
  3144                           
  3145                           	psect	text6
  3146  0E8C                     __ptext6:	
  3147 ;; *************** function _spiRead *****************
  3148 ;; Defined at:
  3149 ;;		line 47 in file "SPI.c"
  3150 ;; Parameters:    Size  Location     Type
  3151 ;;		None
  3152 ;; Auto vars:     Size  Location     Type
  3153 ;;		None
  3154 ;; Return value:  Size  Location     Type
  3155 ;;                  1    wreg      unsigned char 
  3156 ;; Registers used:
  3157 ;;		wreg, status,2, status,0, pclath, cstack
  3158 ;; Tracked objects:
  3159 ;;		On entry : 0/0
  3160 ;;		On exit  : 0/0
  3161 ;;		Unchanged: 0/0
  3162 ;; Data sizes:     COMMON   BANK0   BANK1   BANK3   BANK2
  3163 ;;      Params:         0       0       0       0       0
  3164 ;;      Locals:         0       0       0       0       0
  3165 ;;      Temps:          0       0       0       0       0
  3166 ;;      Totals:         0       0       0       0       0
  3167 ;;Total ram usage:        0 bytes
  3168 ;; Hardware stack levels used:    1
  3169 ;; Hardware stack levels required when called:    2
  3170 ;; This function calls:
  3171 ;;		_spiReceiveWait
  3172 ;; This function is called by:
  3173 ;;		_main
  3174 ;; This function uses a non-reentrant model
  3175 ;;
  3176                           
  3177                           
  3178                           ;psect for function _spiRead
  3179  0E8C                     _spiRead:
  3180  0E8C                     l1476:	
  3181                           ;incstack = 0
  3182                           ; Regs used in _spiRead: [wreg+status,2+status,0+pclath+cstack]
  3183                           
  3184                           
  3185                           ;SPI.c: 49:     spiReceiveWait();
  3186  0E8C  120A  158A  2685  120A  158A  	fcall	_spiReceiveWait
  3187  0E91                     l1478:
  3188                           
  3189                           ;SPI.c: 50:     return(SSPBUF);
  3190  0E91  1283               	bcf	3,5	;RP0=0, select bank0
  3191  0E92  1303               	bcf	3,6	;RP1=0, select bank0
  3192  0E93  0813               	movf	19,w	;volatile
  3193  0E94                     l34:
  3194  0E94  0008               	return
  3195  0E95                     __end_of_spiRead:
  3196                           
  3197                           	psect	text7
  3198  0E85                     __ptext7:	
  3199 ;; *************** function _spiReceiveWait *****************
  3200 ;; Defined at:
  3201 ;;		line 29 in file "SPI.c"
  3202 ;; Parameters:    Size  Location     Type
  3203 ;;		None
  3204 ;; Auto vars:     Size  Location     Type
  3205 ;;		None
  3206 ;; Return value:  Size  Location     Type
  3207 ;;                  1    wreg      void 
  3208 ;; Registers used:
  3209 ;;		None
  3210 ;; Tracked objects:
  3211 ;;		On entry : 0/0
  3212 ;;		On exit  : 0/0
  3213 ;;		Unchanged: 0/0
  3214 ;; Data sizes:     COMMON   BANK0   BANK1   BANK3   BANK2
  3215 ;;      Params:         0       0       0       0       0
  3216 ;;      Locals:         0       0       0       0       0
  3217 ;;      Temps:          0       0       0       0       0
  3218 ;;      Totals:         0       0       0       0       0
  3219 ;;Total ram usage:        0 bytes
  3220 ;; Hardware stack levels used:    1
  3221 ;; Hardware stack levels required when called:    1
  3222 ;; This function calls:
  3223 ;;		Nothing
  3224 ;; This function is called by:
  3225 ;;		_spiRead
  3226 ;; This function uses a non-reentrant model
  3227 ;;
  3228                           
  3229                           
  3230                           ;psect for function _spiReceiveWait
  3231  0E85                     _spiReceiveWait:
  3232  0E85                     l1416:	
  3233                           ;incstack = 0
  3234                           ; Regs used in _spiReceiveWait: []
  3235                           
  3236  0E85                     l20:	
  3237                           ;SPI.c: 31:     while ( !SSPSTATbits.BF );
  3238                           
  3239  0E85  1683               	bsf	3,5	;RP0=1, select bank1
  3240  0E86  1303               	bcf	3,6	;RP1=0, select bank1
  3241  0E87  1C14               	btfss	20,0	;volatile
  3242  0E88  2E8A               	goto	u701
  3243  0E89  2E8B               	goto	u700
  3244  0E8A                     u701:
  3245  0E8A  2E85               	goto	l20
  3246  0E8B                     u700:
  3247  0E8B                     l23:
  3248  0E8B  0008               	return
  3249  0E8C                     __end_of_spiReceiveWait:
  3250                           
  3251                           	psect	text8
  3252  06C4                     __ptext8:	
  3253 ;; *************** function _setup *****************
  3254 ;; Defined at:
  3255 ;;		line 144 in file "MASTERsrc.c"
  3256 ;; Parameters:    Size  Location     Type
  3257 ;;		None
  3258 ;; Auto vars:     Size  Location     Type
  3259 ;;		None
  3260 ;; Return value:  Size  Location     Type
  3261 ;;                  1    wreg      void 
  3262 ;; Registers used:
  3263 ;;		wreg, status,2, status,0, pclath, cstack
  3264 ;; Tracked objects:
  3265 ;;		On entry : 0/0
  3266 ;;		On exit  : 0/0
  3267 ;;		Unchanged: 0/0
  3268 ;; Data sizes:     COMMON   BANK0   BANK1   BANK3   BANK2
  3269 ;;      Params:         0       0       0       0       0
  3270 ;;      Locals:         0       0       0       0       0
  3271 ;;      Temps:          0       0       0       0       0
  3272 ;;      Totals:         0       0       0       0       0
  3273 ;;Total ram usage:        0 bytes
  3274 ;; Hardware stack levels used:    1
  3275 ;; Hardware stack levels required when called:    3
  3276 ;; This function calls:
  3277 ;;		_LCD_ini
  3278 ;;		_spiInit
  3279 ;; This function is called by:
  3280 ;;		_main
  3281 ;; This function uses a non-reentrant model
  3282 ;;
  3283                           
  3284                           
  3285                           ;psect for function _setup
  3286  06C4                     _setup:
  3287  06C4                     l1482:	
  3288                           ;incstack = 0
  3289                           ; Regs used in _setup: [wreg+status,2+status,0+pclath+cstack]
  3290                           
  3291                           
  3292                           ;MASTERsrc.c: 145:     ANSEL = 0;
  3293  06C4  1683               	bsf	3,5	;RP0=1, select bank3
  3294  06C5  1703               	bsf	3,6	;RP1=1, select bank3
  3295  06C6  0188               	clrf	8	;volatile
  3296                           
  3297                           ;MASTERsrc.c: 146:     ANSELH = 0;
  3298  06C7  0189               	clrf	9	;volatile
  3299  06C8                     l1484:
  3300                           
  3301                           ;MASTERsrc.c: 147:     TRISC1 = 0;
  3302  06C8  1683               	bsf	3,5	;RP0=1, select bank1
  3303  06C9  1303               	bcf	3,6	;RP1=0, select bank1
  3304  06CA  1087               	bcf	7,1	;volatile
  3305  06CB                     l1486:
  3306                           
  3307                           ;MASTERsrc.c: 148:     TRISC2 = 0;
  3308  06CB  1107               	bcf	7,2	;volatile
  3309                           
  3310                           ;MASTERsrc.c: 149:     TRISB = 0;
  3311  06CC  0186               	clrf	6	;volatile
  3312                           
  3313                           ;MASTERsrc.c: 150:     TRISD = 0;
  3314  06CD  0188               	clrf	8	;volatile
  3315                           
  3316                           ;MASTERsrc.c: 151:     PORTB = 0;
  3317  06CE  1283               	bcf	3,5	;RP0=0, select bank0
  3318  06CF  1303               	bcf	3,6	;RP1=0, select bank0
  3319  06D0  0186               	clrf	6	;volatile
  3320                           
  3321                           ;MASTERsrc.c: 152:     PORTD = 0;
  3322  06D1  0188               	clrf	8	;volatile
  3323  06D2                     l1488:
  3324                           
  3325                           ;MASTERsrc.c: 153:     PORTCbits.RC2 = 1;
  3326  06D2  1507               	bsf	7,2	;volatile
  3327  06D3                     l1490:
  3328                           
  3329                           ;MASTERsrc.c: 154:     PORTCbits.RC1 = 1;
  3330  06D3  1487               	bsf	7,1	;volatile
  3331                           
  3332                           ;MASTERsrc.c: 156:     TRISE = 0;
  3333  06D4  1683               	bsf	3,5	;RP0=1, select bank1
  3334  06D5  1303               	bcf	3,6	;RP1=0, select bank1
  3335  06D6  0189               	clrf	9	;volatile
  3336                           
  3337                           ;MASTERsrc.c: 157:     PORTE = 0;
  3338  06D7  1283               	bcf	3,5	;RP0=0, select bank0
  3339  06D8  1303               	bcf	3,6	;RP1=0, select bank0
  3340  06D9  0189               	clrf	9	;volatile
  3341  06DA                     l1492:
  3342                           
  3343                           ;MASTERsrc.c: 158:     check0 = 1;
  3344  06DA  01A9               	clrf	_check0
  3345  06DB  0AA9               	incf	_check0,f
  3346  06DC                     l1494:
  3347                           
  3348                           ;MASTERsrc.c: 160:     PORTEbits.RE0 = 1;
  3349  06DC  1409               	bsf	9,0	;volatile
  3350  06DD                     l1496:
  3351                           
  3352                           ;MASTERsrc.c: 161:     PORTEbits.RE1 = 1;
  3353  06DD  1489               	bsf	9,1	;volatile
  3354  06DE                     l1498:
  3355                           
  3356                           ;MASTERsrc.c: 162:     PORTEbits.RE2 = 1;
  3357  06DE  1509               	bsf	9,2	;volatile
  3358  06DF                     l1500:
  3359                           
  3360                           ;MASTERsrc.c: 164:     spiInit(SPI_MASTER_OSC_DIV4, SPI_DATA_SAMPLE_MIDDLE, SPI_CLOCK_ID
      +                          LE_LOW, SPI_IDLE_2_ACTIVE);
  3361  06DF  01F2               	clrf	spiInit@sDataSample
  3362  06E0  01F3               	clrf	spiInit@sClockIdle
  3363  06E1  01F4               	clrf	spiInit@sTransmitEdge
  3364  06E2  3020               	movlw	32
  3365  06E3  120A  158A  26B8  120A  118A  	fcall	_spiInit
  3366  06E8                     l1502:
  3367                           
  3368                           ;MASTERsrc.c: 166:     LCD_ini();
  3369  06E8  120A  118A  2607  120A  118A  	fcall	_LCD_ini
  3370  06ED                     l111:
  3371  06ED  0008               	return
  3372  06EE                     __end_of_setup:
  3373                           
  3374                           	psect	text9
  3375  0EB8                     __ptext9:	
  3376 ;; *************** function _spiInit *****************
  3377 ;; Defined at:
  3378 ;;		line 12 in file "SPI.c"
  3379 ;; Parameters:    Size  Location     Type
  3380 ;;  sType           1    wreg     enum E1264
  3381 ;;  sDataSample     1    2[COMMON] enum E1272
  3382 ;;  sClockIdle      1    3[COMMON] enum E1276
  3383 ;;  sTransmitEdg    1    4[COMMON] enum E1280
  3384 ;; Auto vars:     Size  Location     Type
  3385 ;;  sType           1    5[COMMON] enum E1264
  3386 ;; Return value:  Size  Location     Type
  3387 ;;                  1    wreg      void 
  3388 ;; Registers used:
  3389 ;;		wreg, status,2, status,0
  3390 ;; Tracked objects:
  3391 ;;		On entry : 0/0
  3392 ;;		On exit  : 0/0
  3393 ;;		Unchanged: 0/0
  3394 ;; Data sizes:     COMMON   BANK0   BANK1   BANK3   BANK2
  3395 ;;      Params:         3       0       0       0       0
  3396 ;;      Locals:         1       0       0       0       0
  3397 ;;      Temps:          0       0       0       0       0
  3398 ;;      Totals:         4       0       0       0       0
  3399 ;;Total ram usage:        4 bytes
  3400 ;; Hardware stack levels used:    1
  3401 ;; Hardware stack levels required when called:    1
  3402 ;; This function calls:
  3403 ;;		Nothing
  3404 ;; This function is called by:
  3405 ;;		_setup
  3406 ;; This function uses a non-reentrant model
  3407 ;;
  3408                           
  3409                           
  3410                           ;psect for function _spiInit
  3411  0EB8                     _spiInit:
  3412                           
  3413                           ;incstack = 0
  3414                           ; Regs used in _spiInit: [wreg+status,2+status,0]
  3415                           ;spiInit@sType stored from wreg
  3416  0EB8  00F5               	movwf	spiInit@sType
  3417  0EB9                     l1406:
  3418                           
  3419                           ;SPI.c: 12: void spiInit(Spi_Type sType, Spi_Data_Sample sDataSample, Spi_Clock_Idle sCl
      +                          ockIdle, Spi_Transmit_Edge sTransmitEdge);SPI.c: 13: {;SPI.c: 14:     TRISC5 = 0;
  3420  0EB9  1683               	bsf	3,5	;RP0=1, select bank1
  3421  0EBA  1303               	bcf	3,6	;RP1=0, select bank1
  3422  0EBB  1287               	bcf	7,5	;volatile
  3423                           
  3424                           ;SPI.c: 15:     if(sType & 0b00000100)
  3425  0EBC  1D75               	btfss	spiInit@sType,2
  3426  0EBD  2EBF               	goto	u691
  3427  0EBE  2EC0               	goto	u690
  3428  0EBF                     u691:
  3429  0EBF  2EC4               	goto	l1412
  3430  0EC0                     u690:
  3431  0EC0                     l1408:
  3432                           
  3433                           ;SPI.c: 16:     {;SPI.c: 17:         SSPSTAT = sTransmitEdge;
  3434  0EC0  0874               	movf	spiInit@sTransmitEdge,w
  3435  0EC1  0094               	movwf	20	;volatile
  3436  0EC2                     l1410:
  3437                           
  3438                           ;SPI.c: 18:         TRISC3 = 1;
  3439  0EC2  1587               	bsf	7,3	;volatile
  3440                           
  3441                           ;SPI.c: 19:     }
  3442  0EC3  2EC8               	goto	l16
  3443  0EC4                     l1412:
  3444                           
  3445                           ;SPI.c: 21:     {;SPI.c: 22:         SSPSTAT = sDataSample | sTransmitEdge;
  3446  0EC4  0872               	movf	spiInit@sDataSample,w
  3447  0EC5  0474               	iorwf	spiInit@sTransmitEdge,w
  3448  0EC6  0094               	movwf	20	;volatile
  3449  0EC7                     l1414:
  3450                           
  3451                           ;SPI.c: 23:         TRISC3 = 0;
  3452  0EC7  1187               	bcf	7,3	;volatile
  3453  0EC8                     l16:	
  3454                           ;SPI.c: 24:     }
  3455                           
  3456                           
  3457                           ;SPI.c: 26:     SSPCON = sType | sClockIdle;
  3458  0EC8  0875               	movf	spiInit@sType,w
  3459  0EC9  0473               	iorwf	spiInit@sClockIdle,w
  3460  0ECA  1283               	bcf	3,5	;RP0=0, select bank0
  3461  0ECB  1303               	bcf	3,6	;RP1=0, select bank0
  3462  0ECC  0094               	movwf	20	;volatile
  3463  0ECD                     l17:
  3464  0ECD  0008               	return
  3465  0ECE                     __end_of_spiInit:
  3466                           
  3467                           	psect	text10
  3468  0607                     __ptext10:	
  3469 ;; *************** function _LCD_ini *****************
  3470 ;; Defined at:
  3471 ;;		line 22 in file "LCD.c"
  3472 ;; Parameters:    Size  Location     Type
  3473 ;;		None
  3474 ;; Auto vars:     Size  Location     Type
  3475 ;;		None
  3476 ;; Return value:  Size  Location     Type
  3477 ;;                  1    wreg      void 
  3478 ;; Registers used:
  3479 ;;		wreg, status,2, status,0, pclath, cstack
  3480 ;; Tracked objects:
  3481 ;;		On entry : 0/0
  3482 ;;		On exit  : 0/0
  3483 ;;		Unchanged: 0/0
  3484 ;; Data sizes:     COMMON   BANK0   BANK1   BANK3   BANK2
  3485 ;;      Params:         0       0       0       0       0
  3486 ;;      Locals:         0       0       0       0       0
  3487 ;;      Temps:          2       0       0       0       0
  3488 ;;      Totals:         2       0       0       0       0
  3489 ;;Total ram usage:        2 bytes
  3490 ;; Hardware stack levels used:    1
  3491 ;; Hardware stack levels required when called:    2
  3492 ;; This function calls:
  3493 ;;		_LCD_cmd
  3494 ;; This function is called by:
  3495 ;;		_setup
  3496 ;; This function uses a non-reentrant model
  3497 ;;
  3498                           
  3499                           
  3500                           ;psect for function _LCD_ini
  3501  0607                     _LCD_ini:
  3502  0607                     l1438:	
  3503                           ;incstack = 0
  3504                           ; Regs used in _LCD_ini: [wreg+status,2+status,0+pclath+cstack]
  3505                           
  3506                           
  3507                           ;LCD.c: 23:     TRISD = 0;
  3508  0607  1683               	bsf	3,5	;RP0=1, select bank1
  3509  0608  1303               	bcf	3,6	;RP1=0, select bank1
  3510  0609  0188               	clrf	8	;volatile
  3511                           
  3512                           ;LCD.c: 24:     PORTD = 0;
  3513  060A  1283               	bcf	3,5	;RP0=0, select bank0
  3514  060B  1303               	bcf	3,6	;RP1=0, select bank0
  3515  060C  0188               	clrf	8	;volatile
  3516  060D                     l1440:
  3517                           
  3518                           ;LCD.c: 26:     TRISCbits.TRISC0 = 0;
  3519  060D  1683               	bsf	3,5	;RP0=1, select bank1
  3520  060E  1303               	bcf	3,6	;RP1=0, select bank1
  3521  060F  1007               	bcf	7,0	;volatile
  3522  0610                     l1442:
  3523                           
  3524                           ;LCD.c: 27:     TRISCbits.TRISC1 = 0;
  3525  0610  1087               	bcf	7,1	;volatile
  3526  0611                     l1444:
  3527                           
  3528                           ;LCD.c: 29:     _delay((unsigned long)((20)*(4000000/4000.0)));
  3529  0611  301A               	movlw	26
  3530  0612  00F6               	movwf	??_LCD_ini+1
  3531  0613  30F8               	movlw	248
  3532  0614  00F5               	movwf	??_LCD_ini
  3533  0615                     u2197:
  3534  0615  0BF5               	decfsz	??_LCD_ini,f
  3535  0616  2E15               	goto	u2197
  3536  0617  0BF6               	decfsz	??_LCD_ini+1,f
  3537  0618  2E15               	goto	u2197
  3538  0619  0000               	nop
  3539  061A                     l1446:
  3540                           
  3541                           ;LCD.c: 31:     PORTCbits.RC0 = 0;
  3542  061A  1283               	bcf	3,5	;RP0=0, select bank0
  3543  061B  1303               	bcf	3,6	;RP1=0, select bank0
  3544  061C  1007               	bcf	7,0	;volatile
  3545  061D                     l1448:
  3546                           
  3547                           ;LCD.c: 32:     LCD_cmd(0b00110000);
  3548  061D  3030               	movlw	48
  3549  061E  120A  158A  26A4  120A  118A  	fcall	_LCD_cmd
  3550  0623                     l1450:
  3551                           
  3552                           ;LCD.c: 34:     _delay((unsigned long)((6)*(4000000/4000.0)));
  3553  0623  3008               	movlw	8
  3554  0624  00F6               	movwf	??_LCD_ini+1
  3555  0625  30C9               	movlw	201
  3556  0626  00F5               	movwf	??_LCD_ini
  3557  0627                     u2207:
  3558  0627  0BF5               	decfsz	??_LCD_ini,f
  3559  0628  2E27               	goto	u2207
  3560  0629  0BF6               	decfsz	??_LCD_ini+1,f
  3561  062A  2E27               	goto	u2207
  3562  062B  2E2C               	nop2
  3563  062C                     l1452:
  3564                           
  3565                           ;LCD.c: 36:     LCD_cmd(0b00110000);
  3566  062C  3030               	movlw	48
  3567  062D  120A  158A  26A4  120A  118A  	fcall	_LCD_cmd
  3568  0632                     l1454:
  3569                           
  3570                           ;LCD.c: 38:     _delay((unsigned long)((11)*(4000000/4000.0)));
  3571  0632  300F               	movlw	15
  3572  0633  00F6               	movwf	??_LCD_ini+1
  3573  0634  3047               	movlw	71
  3574  0635  00F5               	movwf	??_LCD_ini
  3575  0636                     u2217:
  3576  0636  0BF5               	decfsz	??_LCD_ini,f
  3577  0637  2E36               	goto	u2217
  3578  0638  0BF6               	decfsz	??_LCD_ini+1,f
  3579  0639  2E36               	goto	u2217
  3580  063A  2E3B               	nop2
  3581  063B                     l1456:
  3582                           
  3583                           ;LCD.c: 40:     LCD_cmd(0b00110000);
  3584  063B  3030               	movlw	48
  3585  063C  120A  158A  26A4  120A  118A  	fcall	_LCD_cmd
  3586  0641                     l1458:
  3587                           
  3588                           ;LCD.c: 42:     _delay((unsigned long)((2)*(4000000/4000.0)));
  3589  0641  3003               	movlw	3
  3590  0642  00F6               	movwf	??_LCD_ini+1
  3591  0643  3097               	movlw	151
  3592  0644  00F5               	movwf	??_LCD_ini
  3593  0645                     u2227:
  3594  0645  0BF5               	decfsz	??_LCD_ini,f
  3595  0646  2E45               	goto	u2227
  3596  0647  0BF6               	decfsz	??_LCD_ini+1,f
  3597  0648  2E45               	goto	u2227
  3598  0649  2E4A               	nop2
  3599  064A                     l1460:
  3600                           
  3601                           ;LCD.c: 44:     LCD_cmd(0b00111000);
  3602  064A  3038               	movlw	56
  3603  064B  120A  158A  26A4  120A  118A  	fcall	_LCD_cmd
  3604  0650                     l1462:
  3605                           
  3606                           ;LCD.c: 45:     _delay((unsigned long)((2)*(4000000/4000.0)));
  3607  0650  3003               	movlw	3
  3608  0651  00F6               	movwf	??_LCD_ini+1
  3609  0652  3097               	movlw	151
  3610  0653  00F5               	movwf	??_LCD_ini
  3611  0654                     u2237:
  3612  0654  0BF5               	decfsz	??_LCD_ini,f
  3613  0655  2E54               	goto	u2237
  3614  0656  0BF6               	decfsz	??_LCD_ini+1,f
  3615  0657  2E54               	goto	u2237
  3616  0658  2E59               	nop2
  3617  0659                     l1464:
  3618                           
  3619                           ;LCD.c: 47:     LCD_cmd(0b00001100);
  3620  0659  300C               	movlw	12
  3621  065A  120A  158A  26A4  120A  118A  	fcall	_LCD_cmd
  3622  065F                     l1466:
  3623                           
  3624                           ;LCD.c: 48:     _delay((unsigned long)((2)*(4000000/4000.0)));
  3625  065F  3003               	movlw	3
  3626  0660  00F6               	movwf	??_LCD_ini+1
  3627  0661  3097               	movlw	151
  3628  0662  00F5               	movwf	??_LCD_ini
  3629  0663                     u2247:
  3630  0663  0BF5               	decfsz	??_LCD_ini,f
  3631  0664  2E63               	goto	u2247
  3632  0665  0BF6               	decfsz	??_LCD_ini+1,f
  3633  0666  2E63               	goto	u2247
  3634  0667  2E68               	nop2
  3635  0668                     l1468:
  3636                           
  3637                           ;LCD.c: 50:     LCD_cmd(0b00000001);
  3638  0668  3001               	movlw	1
  3639  0669  120A  158A  26A4  120A  118A  	fcall	_LCD_cmd
  3640  066E                     l1470:
  3641                           
  3642                           ;LCD.c: 51:     _delay((unsigned long)((2)*(4000000/4000.0)));
  3643  066E  3003               	movlw	3
  3644  066F  00F6               	movwf	??_LCD_ini+1
  3645  0670  3097               	movlw	151
  3646  0671  00F5               	movwf	??_LCD_ini
  3647  0672                     u2257:
  3648  0672  0BF5               	decfsz	??_LCD_ini,f
  3649  0673  2E72               	goto	u2257
  3650  0674  0BF6               	decfsz	??_LCD_ini+1,f
  3651  0675  2E72               	goto	u2257
  3652  0676  2E77               	nop2
  3653  0677                     l1472:
  3654                           
  3655                           ;LCD.c: 53:     LCD_cmd(0b00000110);
  3656  0677  3006               	movlw	6
  3657  0678  120A  158A  26A4  120A  118A  	fcall	_LCD_cmd
  3658  067D                     l238:
  3659  067D  0008               	return
  3660  067E                     __end_of_LCD_ini:
  3661                           
  3662                           	psect	text11
  3663  0E7E                     __ptext11:	
  3664 ;; *************** function _LCD_clear *****************
  3665 ;; Defined at:
  3666 ;;		line 57 in file "LCD.c"
  3667 ;; Parameters:    Size  Location     Type
  3668 ;;		None
  3669 ;; Auto vars:     Size  Location     Type
  3670 ;;		None
  3671 ;; Return value:  Size  Location     Type
  3672 ;;                  1    wreg      void 
  3673 ;; Registers used:
  3674 ;;		wreg, status,2, status,0, pclath, cstack
  3675 ;; Tracked objects:
  3676 ;;		On entry : 0/0
  3677 ;;		On exit  : 0/0
  3678 ;;		Unchanged: 0/0
  3679 ;; Data sizes:     COMMON   BANK0   BANK1   BANK3   BANK2
  3680 ;;      Params:         0       0       0       0       0
  3681 ;;      Locals:         0       0       0       0       0
  3682 ;;      Temps:          0       0       0       0       0
  3683 ;;      Totals:         0       0       0       0       0
  3684 ;;Total ram usage:        0 bytes
  3685 ;; Hardware stack levels used:    1
  3686 ;; Hardware stack levels required when called:    2
  3687 ;; This function calls:
  3688 ;;		_LCD_cmd
  3689 ;; This function is called by:
  3690 ;;		_main
  3691 ;; This function uses a non-reentrant model
  3692 ;;
  3693                           
  3694                           
  3695                           ;psect for function _LCD_clear
  3696  0E7E                     _LCD_clear:
  3697  0E7E                     l1504:	
  3698                           ;incstack = 0
  3699                           ; Regs used in _LCD_clear: [wreg+status,2+status,0+pclath+cstack]
  3700                           
  3701                           
  3702                           ;LCD.c: 59:     LCD_cmd(1);
  3703  0E7E  3001               	movlw	1
  3704  0E7F  120A  158A  26A4  120A  158A  	fcall	_LCD_cmd
  3705  0E84                     l241:
  3706  0E84  0008               	return
  3707  0E85                     __end_of_LCD_clear:
  3708                           
  3709                           	psect	text12
  3710  0EA4                     __ptext12:	
  3711 ;; *************** function _LCD_cmd *****************
  3712 ;; Defined at:
  3713 ;;		line 12 in file "LCD.c"
  3714 ;; Parameters:    Size  Location     Type
  3715 ;;  cmd             1    wreg     unsigned char 
  3716 ;; Auto vars:     Size  Location     Type
  3717 ;;  cmd             1    4[COMMON] unsigned char 
  3718 ;; Return value:  Size  Location     Type
  3719 ;;                  1    wreg      void 
  3720 ;; Registers used:
  3721 ;;		wreg
  3722 ;; Tracked objects:
  3723 ;;		On entry : 0/0
  3724 ;;		On exit  : 0/0
  3725 ;;		Unchanged: 0/0
  3726 ;; Data sizes:     COMMON   BANK0   BANK1   BANK3   BANK2
  3727 ;;      Params:         0       0       0       0       0
  3728 ;;      Locals:         1       0       0       0       0
  3729 ;;      Temps:          2       0       0       0       0
  3730 ;;      Totals:         3       0       0       0       0
  3731 ;;Total ram usage:        3 bytes
  3732 ;; Hardware stack levels used:    1
  3733 ;; Hardware stack levels required when called:    1
  3734 ;; This function calls:
  3735 ;;		Nothing
  3736 ;; This function is called by:
  3737 ;;		_LCD_ini
  3738 ;;		_LCD_clear
  3739 ;;		_LCD_cursor
  3740 ;; This function uses a non-reentrant model
  3741 ;;
  3742                           
  3743                           
  3744                           ;psect for function _LCD_cmd
  3745  0EA4                     _LCD_cmd:
  3746                           
  3747                           ;incstack = 0
  3748                           ; Regs used in _LCD_cmd: [wreg]
  3749                           ;LCD_cmd@cmd stored from wreg
  3750  0EA4  00F4               	movwf	LCD_cmd@cmd
  3751  0EA5                     l1390:
  3752                           
  3753                           ;LCD.c: 14:     PORTCbits.RC0 = 0;
  3754  0EA5  1283               	bcf	3,5	;RP0=0, select bank0
  3755  0EA6  1303               	bcf	3,6	;RP1=0, select bank0
  3756  0EA7  1007               	bcf	7,0	;volatile
  3757  0EA8                     l1392:
  3758                           
  3759                           ;LCD.c: 15:  PORTD = cmd;
  3760  0EA8  0874               	movf	LCD_cmd@cmd,w
  3761  0EA9  0088               	movwf	8	;volatile
  3762  0EAA                     l1394:
  3763                           
  3764                           ;LCD.c: 16:  PORTCbits.RC1 = 1;
  3765  0EAA  1487               	bsf	7,1	;volatile
  3766                           
  3767                           ;LCD.c: 17:         _delay((unsigned long)((4)*(4000000/4000.0)));
  3768  0EAB  3006               	movlw	6
  3769  0EAC  00F3               	movwf	??_LCD_cmd+1
  3770  0EAD  3030               	movlw	48
  3771  0EAE  00F2               	movwf	??_LCD_cmd
  3772  0EAF                     u2267:
  3773  0EAF  0BF2               	decfsz	??_LCD_cmd,f
  3774  0EB0  2EAF               	goto	u2267
  3775  0EB1  0BF3               	decfsz	??_LCD_cmd+1,f
  3776  0EB2  2EAF               	goto	u2267
  3777  0EB3  0000               	nop
  3778  0EB4                     l1396:
  3779                           
  3780                           ;LCD.c: 18:         PORTCbits.RC1 = 0;
  3781  0EB4  1283               	bcf	3,5	;RP0=0, select bank0
  3782  0EB5  1303               	bcf	3,6	;RP1=0, select bank0
  3783  0EB6  1087               	bcf	7,1	;volatile
  3784  0EB7                     l235:
  3785  0EB7  0008               	return
  3786  0EB8                     __end_of_LCD_cmd:
  3787                           
  3788                           	psect	text13
  3789  0E77                     __ptext13:	
  3790 ;; *************** function _ISR *****************
  3791 ;; Defined at:
  3792 ;;		line 66 in file "MASTERsrc.c"
  3793 ;; Parameters:    Size  Location     Type
  3794 ;;		None
  3795 ;; Auto vars:     Size  Location     Type
  3796 ;;		None
  3797 ;; Return value:  Size  Location     Type
  3798 ;;                  1    wreg      void 
  3799 ;; Registers used:
  3800 ;;		None
  3801 ;; Tracked objects:
  3802 ;;		On entry : 0/0
  3803 ;;		On exit  : 0/0
  3804 ;;		Unchanged: 0/0
  3805 ;; Data sizes:     COMMON   BANK0   BANK1   BANK3   BANK2
  3806 ;;      Params:         0       0       0       0       0
  3807 ;;      Locals:         0       0       0       0       0
  3808 ;;      Temps:          2       0       0       0       0
  3809 ;;      Totals:         2       0       0       0       0
  3810 ;;Total ram usage:        2 bytes
  3811 ;; Hardware stack levels used:    1
  3812 ;; This function calls:
  3813 ;;		Nothing
  3814 ;; This function is called by:
  3815 ;;		Interrupt level 1
  3816 ;; This function uses a non-reentrant model
  3817 ;;
  3818                           
  3819                           
  3820                           ;psect for function _ISR
  3821  0E77                     _ISR:
  3822  0E77                     i1l97:
  3823  0E77  0871               	movf	??_ISR+1,w
  3824  0E78  008A               	movwf	10
  3825  0E79  0E70               	swapf	??_ISR,w
  3826  0E7A  0083               	movwf	3
  3827  0E7B  0EFE               	swapf	btemp,f
  3828  0E7C  0E7E               	swapf	btemp,w
  3829  0E7D  0009               	retfie
  3830  0E7E                     __end_of_ISR:
  3831  007E                     btemp	set	126	;btemp
  3832  007E                     wtemp0	set	126
  3833                           
  3834                           	psect	intentry
  3835  0004                     __pintentry:	
  3836                           ;incstack = 0
  3837                           ; Regs used in _ISR: []
  3838                           
  3839  0004                     interrupt_function:
  3840  007E                     saved_w	set	btemp
  3841  0004  00FE               	movwf	btemp
  3842  0005  0E03               	swapf	3,w
  3843  0006  00F0               	movwf	??_ISR
  3844  0007  080A               	movf	10,w
  3845  0008  00F1               	movwf	??_ISR+1
  3846  0009  120A  158A  2E77   	ljmp	_ISR
  3847                           
  3848                           	psect	config
  3849                           
  3850                           ;Config register CONFIG1 @ 0x2007
  3851                           ;	Oscillator Selection bits
  3852                           ;	FOSC = INTRC_NOCLKOUT, INTOSCIO oscillator: I/O function on RA6/OSC2/CLKOUT pin, I/O f
      +                          unction on RA7/OSC1/CLKIN
  3853                           ;	Watchdog Timer Enable bit
  3854                           ;	WDTE = OFF, WDT disabled and can be enabled by SWDTEN bit of the WDTCON register
  3855                           ;	Power-up Timer Enable bit
  3856                           ;	PWRTE = OFF, PWRT disabled
  3857                           ;	RE3/MCLR pin function select bit
  3858                           ;	MCLRE = ON, RE3/MCLR pin function is MCLR
  3859                           ;	Code Protection bit
  3860                           ;	CP = OFF, Program memory code protection is disabled
  3861                           ;	Data Code Protection bit
  3862                           ;	CPD = OFF, Data memory code protection is disabled
  3863                           ;	Brown Out Reset Selection bits
  3864                           ;	BOREN = OFF, BOR disabled
  3865                           ;	Internal External Switchover bit
  3866                           ;	IESO = OFF, Internal/External Switchover mode is disabled
  3867                           ;	Fail-Safe Clock Monitor Enabled bit
  3868                           ;	FCMEN = OFF, Fail-Safe Clock Monitor is disabled
  3869                           ;	Low Voltage Programming Enable bit
  3870                           ;	LVP = OFF, RB3 pin has digital I/O, HV on MCLR must be used for programming
  3871                           ;	In-Circuit Debugger Mode bit
  3872                           ;	DEBUG = 0x1, unprogrammed default
  3873  2007                     	org	8199
  3874  2007  20F4               	dw	8436
  3875                           
  3876                           ;Config register CONFIG2 @ 0x2008
  3877                           ;	Brown-out Reset Selection bit
  3878                           ;	BOR4V = BOR40V, Brown-out Reset set to 4.0V
  3879                           ;	Flash Program Memory Self Write Enable bits
  3880                           ;	WRT = OFF, Write protection off
  3881  2008                     	org	8200
  3882  2008  3FFF               	dw	16383

Data Sizes:
    Strings     273
    Constant    0
    Data        0
    BSS         6
    Persistent  1
    Stack       0

Auto Spaces:
    Space          Size  Autos    Used
    COMMON           14     10      12
    BANK0            80      5      10
    BANK1            80      0       0
    BANK3            96      0       0
    BANK2            96      0       0

Pointer List with Targets:

    LCD_Wstring@v	PTR unsigned char  size(2) Largest target is 5
		 -> STR_58(CODE[5]), STR_57(CODE[5]), STR_56(CODE[5]), STR_55(CODE[5]), 
		 -> STR_54(CODE[5]), STR_53(CODE[5]), STR_52(CODE[5]), STR_51(CODE[5]), 
		 -> STR_50(CODE[5]), STR_49(CODE[5]), STR_48(CODE[5]), STR_47(CODE[5]), 
		 -> STR_46(CODE[5]), STR_45(CODE[5]), STR_44(CODE[5]), STR_43(CODE[5]), 
		 -> STR_42(CODE[5]), STR_41(CODE[5]), STR_40(CODE[5]), STR_39(CODE[5]), 
		 -> STR_38(CODE[5]), STR_37(CODE[5]), STR_36(CODE[5]), STR_35(CODE[5]), 
		 -> STR_34(CODE[5]), STR_33(CODE[5]), STR_32(CODE[5]), STR_31(CODE[5]), 
		 -> STR_30(CODE[5]), STR_29(CODE[5]), STR_28(CODE[5]), STR_27(CODE[5]), 
		 -> STR_26(CODE[5]), STR_25(CODE[5]), STR_24(CODE[5]), STR_23(CODE[5]), 
		 -> STR_22(CODE[5]), STR_21(CODE[5]), STR_20(CODE[5]), STR_19(CODE[5]), 
		 -> STR_18(CODE[5]), STR_17(CODE[5]), STR_16(CODE[5]), STR_15(CODE[5]), 
		 -> STR_14(CODE[5]), STR_13(CODE[5]), STR_12(CODE[4]), STR_11(CODE[4]), 
		 -> STR_10(CODE[4]), STR_9(CODE[4]), STR_8(CODE[3]), STR_7(CODE[3]), 
		 -> STR_6(CODE[3]), STR_5(CODE[3]), STR_4(CODE[3]), STR_3(CODE[4]), 
		 -> STR_2(CODE[4]), STR_1(CODE[4]), 


Critical Paths under _main in COMMON

    _main->_transformADC
    _transformADC->_LCD_Wstring
    _transformADC->_LCD_cursor
    _LCD_cursor->_LCD_cmd
    _LCD_Wstring->_LCD_Wchar
    _setup->_LCD_ini
    _LCD_ini->_LCD_cmd
    _LCD_clear->_LCD_cmd

Critical Paths under _ISR in COMMON

    None.

Critical Paths under _main in BANK0

    _main->_transformADC
    _transformADC->_LCD_Wstring

Critical Paths under _ISR in BANK0

    None.

Critical Paths under _main in BANK1

    None.

Critical Paths under _ISR in BANK1

    None.

Critical Paths under _main in BANK3

    None.

Critical Paths under _ISR in BANK3

    None.

Critical Paths under _main in BANK2

    None.

Critical Paths under _ISR in BANK2

    None.

Call Graph Tables:

 ---------------------------------------------------------------------------------
 (Depth) Function   	        Calls       Base Space   Used Autos Params    Refs
 ---------------------------------------------------------------------------------
 (0) _main                                                 2     2      0   22250
                                              3 BANK0      2     2      0
                        _LCD_Wstring
                          _LCD_clear
                         _LCD_cursor
                              _setup
                            _spiRead
                           _spiWrite
                       _transformADC
 ---------------------------------------------------------------------------------
 (1) _transformADC                                         2     2      0   11879
                                              9 COMMON     1     1      0
                                              2 BANK0      1     1      0
                        _LCD_Wstring
                         _LCD_cursor
 ---------------------------------------------------------------------------------
 (2) _LCD_cursor                                           4     3      1    4564
                                              5 COMMON     4     3      1
                            _LCD_cmd
 ---------------------------------------------------------------------------------
 (2) _LCD_Wstring                                          7     5      2    5381
                                              4 COMMON     5     3      2
                                              0 BANK0      2     2      0
                          _LCD_Wchar
 ---------------------------------------------------------------------------------
 (3) _LCD_Wchar                                            2     2      0      31
                                              2 COMMON     2     2      0
 ---------------------------------------------------------------------------------
 (1) _spiWrite                                             1     1      0      22
                                              2 COMMON     1     1      0
 ---------------------------------------------------------------------------------
 (1) _spiRead                                              0     0      0       0
                     _spiReceiveWait
 ---------------------------------------------------------------------------------
 (2) _spiReceiveWait                                       0     0      0       0
 ---------------------------------------------------------------------------------
 (1) _setup                                                0     0      0     382
                            _LCD_ini
                            _spiInit
 ---------------------------------------------------------------------------------
 (2) _spiInit                                              4     1      3     360
                                              2 COMMON     4     1      3
 ---------------------------------------------------------------------------------
 (2) _LCD_ini                                              2     2      0      22
                                              5 COMMON     2     2      0
                            _LCD_cmd
 ---------------------------------------------------------------------------------
 (1) _LCD_clear                                            0     0      0      22
                            _LCD_cmd
 ---------------------------------------------------------------------------------
 (3) _LCD_cmd                                              3     3      0      22
                                              2 COMMON     3     3      0
 ---------------------------------------------------------------------------------
 Estimated maximum stack depth 3
 ---------------------------------------------------------------------------------
 (Depth) Function   	        Calls       Base Space   Used Autos Params    Refs
 ---------------------------------------------------------------------------------
 (4) _ISR                                                  2     2      0       0
                                              0 COMMON     2     2      0
 ---------------------------------------------------------------------------------
 Estimated maximum stack depth 4
 ---------------------------------------------------------------------------------

 Call Graph Graphs:

 _main (ROOT)
   _LCD_Wstring
     _LCD_Wchar
   _LCD_clear
     _LCD_cmd
   _LCD_cursor
     _LCD_cmd
   _setup
     _LCD_ini
       _LCD_cmd
     _spiInit
   _spiRead
     _spiReceiveWait
   _spiWrite
   _transformADC
     _LCD_Wstring
       _LCD_Wchar
     _LCD_cursor
       _LCD_cmd

 _ISR (ROOT)

 Address spaces:
Name               Size   Autos  Total    Cost      Usage
BITCOMMON            E      0       0       0        0.0%
EEDATA             100      0       0       0        0.0%
NULL                 0      0       0       0        0.0%
CODE                 0      0       0       0        0.0%
COMMON               E      A       C       1       85.7%
BITSFR0              0      0       0       1        0.0%
SFR0                 0      0       0       1        0.0%
BITSFR1              0      0       0       2        0.0%
SFR1                 0      0       0       2        0.0%
STACK                0      0       0       2        0.0%
ABS                  0      0      16       3        0.0%
BITBANK0            50      0       0       4        0.0%
BITSFR3              0      0       0       4        0.0%
SFR3                 0      0       0       4        0.0%
BANK0               50      5       A       5       12.5%
BITSFR2              0      0       0       5        0.0%
SFR2                 0      0       0       5        0.0%
BITBANK1            50      0       0       6        0.0%
BANK1               50      0       0       7        0.0%
BITBANK3            60      0       0       8        0.0%
BANK3               60      0       0       9        0.0%
BITBANK2            60      0       0      10        0.0%
BANK2               60      0       0      11        0.0%
DATA                 0      0      16      12        0.0%


Microchip Technology PIC Macro Assembler V2.31 build 20201012212115 
Symbol Table                                                                                   Tue Feb 23 21:14:33 2021

                      pc 0002              _SSPSTATbits 0094                       l20 0E85  
                     l23 0E8B                       l16 0EC8                       l17 0ECD  
                     l34 0E94                       l26 0E76                       fsr 0004  
                    l111 06ED                      l117 00F1                      l222 0606  
                    l216 0606                      l241 0E84                      l250 0EA3  
                    l235 0EB7                      l238 067D                      l247 0EF1  
                    _ADC 0028                      l256 06C3                      u700 0E8B  
                    _ISR 0E77                      u701 0E8A                      u710 0ED4  
                    u711 0ED3                      u720 0EE6                      u721 0EE5  
                    u690 0EC0                      u691 0EBF              ?_LCD_cursor 0075  
                    fsr0 0004                      indf 0000             ?_LCD_Wstring 0074  
           _transformADC 001B                     ?_ISR 0070          __end_of_LCD_cmd 0EB8  
        __end_of_LCD_ini 067E                     l2000 0102                     l2010 012C  
                   l2002 010C                     l2100 02B2                     l2020 015A  
                   l2012 0136                     l2004 0112                     l2110 02E0  
                   l2102 02BC                     l2030 0184                     l2022 0160  
                   l2014 0140                     l2006 011C                     l2200 0466  
                   l2120 030A                     l2112 02E6                     l2104 02C6  
                   l2040 01AE                     l2032 018E                     l2024 016A  
                   l2016 0146                     l2008 0126                     l1410 0EC2  
                   l2210 0490                     l2202 046C                     l2130 0334  
                   l2122 0314                     l2114 02F0                     l2106 02CC  
                   l2050 01DC                     l2042 01B8                     l2034 0194  
                   l2026 0174                     l2018 0150                     l1412 0EC4  
                   l1500 06DF                     l1420 0ED4                     l2220 04BA  
                   l2212 049A                     l2204 0476                     l2140 0362  
                   l2132 033E                     l2124 031A                     l2116 02FA  
                   l2108 02D6                     l2060 0206                     l2052 01E2  
                   l2044 01C2                     l2036 019E                     l2028 017A  
                   l2300 0F0D                     l1414 0EC7                     l1406 0EB9  
                   l1502 06E8                     l1422 0ED9                     l2230 04E8  
                   l2222 04C4                     l2214 04A0                     l2206 0480  
                   l2150 038C                     l2142 0368                     l2134 0348  
                   l2126 0324                     l2118 0300                     l2070 0230  
                   l2062 0210                     l2054 01EC                     l2046 01C8  
                   l2038 01A8                     l2310 0F3F                     l2302 0F15  
                   l1504 0E7E                     l1440 060D                     l1408 0EC0  
                   l1416 0E85                     l1424 0EE0                     l2240 0512  
                   l2232 04EE                     l2224 04CE                     l2216 04AA  
                   l2208 0486                     l2160 03B6                     l2152 0396  
                   l2144 0372                     l2136 034E                     l2128 032E  
                   l2080 025E                     l2072 023A                     l2064 0216  
                   l2056 01F6                     l2048 01D2                     l2320 0F69  
                   l2312 0F46                     l2304 0F1D                     l1450 0623  
                   l1442 0610                     l1426 0EE6                     l1418 0ECF  
                   l2250 053C                     l2242 051C                     l2234 04F8  
                   l2226 04D4                     l2218 04B4                     l2170 03E4  
                   l2162 03C0                     l2154 039C                     l2146 037C  
                   l2138 0358                     l2090 0288                     l2082 0264  
                   l2074 0244                     l2066 0220                     l2058 01FC  
                   l2330 0F81                     l2322 0F73                     l2314 0F47  
                   l2306 0F2E                     l1460 064A                     l1452 062C  
                   l1444 0611                     l1428 0EEB                     l2260 056A  
                   l2252 0546                     l2244 0522                     l2236 0502  
                   l2228 04DE                     l2180 040E                     l2172 03EA  
                   l2164 03CA                     l2156 03A6                     l2148 0382  
                   l2092 0292                     l2084 026E                     l2076 024A  
                   l2068 022A                     l2340 0FB0                     l2332 0F89  
                   l2324 0F76                     l2316 0F4F                     l2308 0F36  
                   l1390 0EA5                     l1470 066E                     l1462 0650  
                   l1454 0632                     l1446 061A                     l1438 0607  
                   l2270 0594                     l2262 0570                     l2254 0550  
                   l2246 052C                     l2238 0508                     l2190 0438  
                   l2182 0418                     l2174 03F4                     l2166 03D0  
                   l2158 03B0                     l2094 0298                     l2086 0278  
                   l2078 0254                     l2350 0FCB                     l2342 0FB4  
                   l2334 0F8F                     l2318 0F55                     l2326 0F7A  
                   l1392 0EA8                     l1472 0677                     l1464 0659  
                   l1456 063B                     l1448 061D                     l2280 05BE  
                   l2272 059E                     l2264 057A                     l2256 0556  
                   l2248 0536                     l2192 0442                     l2184 041E  
                   l2176 03FE                     l2168 03DA                     l2096 02A2  
                   l2088 027E                     l2360 0FFA                     l2352 0FD3  
                   l2344 0FBA                     l2336 0FA3                     l2328 0F80  
                   l1394 0EAA                     l1466 065F                     l1458 0641  
                   l1490 06D3                     l1482 06C4                     l1474 0E72  
                   l2290 05EC                     l2282 05C8                     l2274 05A4  
                   l2266 0584                     l2258 0560                     l2194 044C  
                   l2186 0428                     l2178 0404                     l2098 02AC  
                   l2354 0FD9                     l2338 0FAD                     l2346 0FC2  
                   l1396 0EB4                     l1468 0668                     l1492 06DA  
                   l1484 06C8                     l1476 0E8C                     l2292 05F2  
                   l2284 05D2                     l2276 05AE                     l2268 058A  
                   l2196 0452                     l2188 0432                     l2356 0FED  
                   l2348 0FCA                     l1494 06DC                     l1486 06CB  
                   l1478 0E91                     l2294 05FC                     l2286 05D8  
                   l2278 05B8                     l2198 045C                     l2358 0FF7  
                   l1496 06DD                     l1488 06D2                     l2288 05E2  
                   l2296 0EF2                     l1498 06DE                     l1930 0E9B  
                   l2298 0F04                     l1932 0EA0                     l1940 06A7  
                   l1926 0E96                     l1934 067E                     l1950 003F  
                   l1942 001E                     l1928 0E99                     l1936 0683  
                   l1960 0065                     l1952 0045                     l1944 0024  
                   l1938 069F                     l1970 008C                     l1954 004B  
                   l1962 006D                     l1946 002E                     l1980 00B1  
                   l1972 0093                     l1964 0073                     l1956 0055  
                   l1948 0037                     l1990 00D9                     l1982 00BA  
                   l1966 0079                     l1974 009B                     l1958 005E  
                   l1992 00E2                     l1984 00C1                     l1976 00A1  
                   l1968 0083                     l1994 00E9                     l1978 00A7  
                   l1986 00C9                     l1988 00CF                     l1996 00F1  
                   l1998 00F8                     STR_1 07F6                     STR_2 07FA  
                   STR_3 07FE                     STR_4 0802                     STR_5 0805  
                   STR_6 0808                     STR_7 080B                     STR_8 080E  
                   STR_9 07E6                     u2000 0FCA                     u2001 0FC9  
                   u1400 0024                     u1401 0023                     u2017 0F11  
                   u1410 0045                     u1411 0044                     u2107 0FCF  
                   u2027 0F2A                     u1500 012C                     u1420 004B  
                   u1501 012B                     u1421 004A                     u2117 0FDF  
                   u2037 0F4B                     u1510 0146                     u1430 0073  
                   u2207 0627                     u1511 0145                     u1431 0072  
                   u2127 0FF3                     u2047 0F5B                     u1600 0230  
                   u1520 0160                     u1440 0079                     u2217 0636  
                   u1601 022F                     u1521 015F                     u1441 0078  
                   u2137 0039                     u2057 0F6F                     u1370 068D  
                   u1610 024A                     u1530 017A                     u1450 00A1  
                   u2227 0645                     u1611 0249                     u1531 0179  
                   u1451 00A0                     u2147 0060                     u2067 0F85  
                   u1380 06B1                     u1700 0334                     u1620 0264  
                   u1540 0194                     u1460 00A7                     u2237 0654  
                   u1701 0333                     u1621 0263                     u1541 0193  
                   u1461 00A6                     u2157 008E                     u2077 0F95  
                   u1390 06C3                     u1710 034E                     u1630 027E  
                   u1550 01AE                     u1470 00CF                     u2247 0663  
                   u1391 06C2                     u1711 034D                     u1631 027D  
                   u1551 01AD                     u1471 00CE                     u2167 00BC  
                   u2087 0FA9                     u1800 0438                     u1720 0368  
                   u1640 0298                     u1560 01C8                     u1480 00F8  
                   u2257 0672                     u1801 0437                     u1721 0367  
                   u1641 0297                     u1561 01C7                     u1481 00F7  
                   u2177 00E4                     u2097 0FBE                     u1810 0452  
                   u1730 0382                     u1650 02B2                     u1570 01E2  
                   u1490 0112                     u2267 0EAF                     u2187 0E9E  
                   u1811 0451                     u1731 0381                     u1651 02B1  
                   u1571 01E1                     u1491 0111                     u1900 053C  
                   u1820 046C                     u1740 039C                     u1660 02CC  
                   u1580 01FC                     u2197 0615                     u1901 053B  
                   u1821 046B                     u1741 039B                     u1661 02CB  
                   u1581 01FB                     u1910 0556                     u1830 0486  
                   u1750 03B6                     u1670 02E6                     u1590 0216  
                   u1911 0555                     u1831 0485                     u1751 03B5  
                   u1671 02E5                     u1591 0215                     u1920 0570  
                   u1840 04A0                     u1760 03D0                     u1680 0300  
                   u1921 056F                     u1841 049F                     u1761 03CF  
                   u1681 02FF                     u1930 058A                     u1850 04BA  
                   u1770 03EA                     u1690 031A                     u1931 0589  
                   u1851 04B9                     u1771 03E9                     u1691 0319  
                   u1940 05A4                     u1860 04D4                     u1780 0404  
                   u1941 05A3                     u1861 04D3                     u1781 0403  
                   u1950 05BE                     u1870 04EE                     u1790 041E  
                   u1951 05BD                     u1871 04ED                     u1791 041D  
                   u1960 05D8                     u1880 0508                     u1961 05D7  
                   u1881 0507                     u1970 05F2                     u1890 0522  
                   u1971 05F1                     u1891 0521                     u1980 0F46  
                   u1981 0F45                     u1990 0F80                     u1991 0F7F  
                   i1l97 0E77                     _main 0EF2                     btemp 007E  
     __size_of_LCD_Wchar 000F                     start 000C       __size_of_LCD_clear 0007  
                  ??_ISR 0070                    ?_main 0070                    STR_10 07EA  
                  STR_11 07EE                    STR_12 07F2                    STR_20 075F  
                  STR_21 078C                    STR_13 0700                    STR_22 07B9  
                  STR_30 0769                    STR_14 072D                    STR_31 0796  
                  STR_15 075A                    STR_23 070A                    STR_32 07C3  
                  STR_16 0787                    STR_40 0773                    STR_24 0737  
                  STR_17 07B4                    STR_41 07A0                    STR_25 0764  
                  STR_33 0714                    STR_42 07CD                    STR_26 0791  
                  STR_50 077D                    STR_34 0741                    STR_18 0705  
                  STR_27 07BE                    STR_51 07AA                    STR_35 076E  
                  STR_19 0732                    STR_43 071E                    STR_52 07D7  
                  STR_36 079B                    STR_44 074B                    STR_28 070F  
                  STR_37 07C8                    STR_45 0778                    STR_29 073C  
                  STR_53 0728                    STR_46 07A5                    STR_54 0755  
                  STR_38 0719                    STR_47 07D2                    STR_55 0782  
                  STR_39 0746                    STR_56 07AF                    STR_48 0723  
                  STR_57 07DC                    STR_49 0750                    STR_58 07E1  
                  _ANSEL 0188                    _PORTB 0006                    _PORTD 0008  
                  _PORTE 0009                    _TRISB 0086                    _TRISD 0088  
                  _TRISE 0089                    _data1 0026                    _data2 007A  
                  _data3 0025                    _setup 06C4                    pclath 000A  
        __end_of_spiInit 0ECE          __end_of_spiRead 0E95                    status 0003  
                  wtemp0 007E      __size_of_LCD_cursor 0024          __initialization 000F  
            LCD_cursor@a 0078              LCD_cursor@x 0077              LCD_cursor@y 0075  
           __end_of_main 1000                   ??_main 0023        __end_of_LCD_Wchar 0EA4  
              ??_LCD_cmd 0072                ??_LCD_ini 0075        __end_of_LCD_clear 0E85  
                 ?_setup 0070                   _ANSELH 0189                   _TRISC1 0439  
                 _TRISC2 043A                   _TRISC3 043B                   _TRISC5 043D  
                 _SSPCON 0014                   _SSPBUF 0013                   _check0 0029  
                 _check1 007B             LCD_Wstring@i 0020             LCD_Wstring@v 0074  
                 saved_w 007E         __end_of_spiWrite 0E77                ??_spiInit 0075  
              ??_spiRead 0072     __size_of_LCD_Wstring 0046  __end_of__initialization 0017  
         __pcstackCOMMON 0070            __end_of_setup 06EE             ??_LCD_cursor 0076  
                ??_setup 0077               __pbssBANK0 0025               __pmaintext 0EF2  
     __end_of_LCD_cursor 0EF2               __pintentry 0004  __size_of_spiReceiveWait 0007  
                _LCD_cmd 0EA4                  _LCD_ini 0607                  _SSPSTAT 0094  
             __stringtab 06EE                ?_spiWrite 0070                _ADCresult 0027  
                __ptext1 001B                  __ptext2 0ECE                  __ptext3 067E  
                __ptext4 0E95                  __ptext5 0E71                  __ptext6 0E8C  
                __ptext7 0E85                  __ptext8 06C4                  __ptext9 0EB8  
           __size_of_ISR 0007            transformADC@k 0022                  _spiInit 0EB8  
                _spiRead 0E8C                _LCD_Wchar 0E95                _LCD_clear 0E7E  
   end_of_initialization 0017               ??_spiWrite 0072             __pstringtext 0700  
              _PORTCbits 0007                _PORTEbits 0009                _TRISCbits 0087  
             ?_LCD_Wchar 0070              spiWrite@dat 0072               ?_LCD_clear 0070  
             LCD_Wchar@c 0073           _spiReceiveWait 0E85               LCD_cmd@cmd 0074  
    start_initialization 000F              __end_of_ISR 0E7E            ??_LCD_Wstring 0076  
          ?_transformADC 0070   __end_of_spiReceiveWait 0E8C                 ?_LCD_cmd 0070  
               ?_LCD_ini 0070              __pbssCOMMON 007A                ___latbits 0002  
          __pcstackBANK0 0020           ??_transformADC 0079              ??_LCD_Wchar 0072  
            ??_LCD_clear 0075      __end_of_LCD_Wstring 06C4                __pnvBANK0 0029  
        ?_spiReceiveWait 0070        __size_of_spiWrite 0006                __pstrings 06EE  
               ?_spiInit 0072                 ?_spiRead 0070           __size_of_setup 002A  
   spiInit@sTransmitEdge 0074        interrupt_function 0004       spiInit@sDataSample 0072  
            __stringbase 0700         __size_of_LCD_cmd 0014         __size_of_LCD_ini 0077  
            _LCD_Wstring 067E     __end_of_transformADC 0607       __end_of__stringtab 0700  
               __ptext10 0607                 __ptext11 0E7E                 __ptext12 0EA4  
               __ptext13 0E77         __size_of_spiInit 0016         __size_of_spiRead 0009  
          __size_of_main 010E                 _spiWrite 0E71             spiInit@sType 0075  
      spiInit@sClockIdle 0073               _LCD_cursor 0ECE                 intlevel1 0000  
       ??_spiReceiveWait 0072                stringcode 06F8                 stringtab 06EE  
  __size_of_transformADC 05EC  
